(dp0
S'(1.7, -0.3, 0.7), (1.7, -0.4, 0.7), (1.7, -0.5, 0.7)'
p1
(dp2
(F1.8
F-0.5
F0.7
tp3
F1.0
ssS'(0.1, -9.6, 0.1), (0.0, -9.6, 0.1), (-0.1, -9.6, 0.1)'
p4
(dp5
(F-0.2
F-9.6
F0.1
tp6
F1.0
ssS'(-4.0, -4.8, -0.7), (-4.0, -4.7, -0.7), (-4.0, -4.6, -0.7)'
p7
(dp8
(F-4.0
F-4.5
F-0.7
tp9
F1.0
ssS'(-0.4, -9.7, 0.0), (-0.5, -9.7, 0.0), (-0.6, -9.7, 0.0)'
p10
(dp11
(F-0.7
F-9.7
F0.0
tp12
F1.0
ssS'(1.9, -7.0, 0.7), (1.9, -7.1, 0.7), (1.9, -7.2, 0.7)'
p13
(dp14
(F1.9
F-7.3
F0.7
tp15
F1.0
ssS'(-4.0, -4.9, -0.7), (-4.0, -4.8, -0.7), (-4.0, -4.7, -0.7)'
p16
(dp17
(F-4.0
F-4.6
F-0.7
tp18
F1.0
ssS'(1.8, -1.4, 0.7), (1.8, -1.5, 0.7), (1.9, -1.5, 0.7)'
p19
(dp20
(F1.9
F-1.6
F0.7
tp21
F1.0
ssS'(1.9, -7.9, 0.7), (1.9, -8.0, 0.7), (1.9, -8.1, 0.7)'
p22
(dp23
(F1.8
F-8.1
F0.7
tp24
F1.0
ssS'(-3.8, -1.5, -0.7), (-3.8, -1.4, -0.7), (-3.8, -1.3, -0.7)'
p25
(dp26
(F-3.8
F-1.2
F-0.7
tp27
F1.0
ssS'(-4.0, -3.9, -0.7), (-4.0, -3.8, -0.7), (-4.0, -3.7, -0.7)'
p28
(dp29
(F-4.0
F-3.6
F-0.7
tp30
F1.0
ssS'(1.9, -8.0, 0.7), (1.9, -8.1, 0.7), (1.8, -8.1, 0.7)'
p31
(dp32
(F1.8
F-8.2
F0.7
tp33
F1.0
ssS'(-3.9, -7.5, -0.7), (-4.0, -7.5, -0.7), (-4.0, -7.4, -0.7)'
p34
(dp35
(F-4.0
F-7.3
F-0.7
tp36
F1.0
ssS'(1.0, -9.5, 0.1), (0.9, -9.5, 0.1), (0.8, -9.5, 0.1)'
p37
(dp38
(F0.7
F-9.5
F0.1
tp39
F1.0
ssS'(-3.8, -9.4, -0.7), (-3.8, -9.3, -0.7), (-3.8, -9.2, -0.7)'
p40
(dp41
(F-3.8
F-9.1
F-0.7
tp42
F1.0
ssS'(-4.0, -6.4, -0.7), (-4.0, -6.3, -0.7), (-4.0, -6.2, -0.7)'
p43
(dp44
(F-4.0
F-6.1
F-0.7
tp45
F1.0
ssS'(-3.5, -9.9, 0.0), (-3.6, -9.9, 0.0), (-3.7, -9.9, 0.0)'
p46
(dp47
(F-3.7
F-9.9
F-0.1
tp48
F1.0
ssS'(-2.9, -9.8, 0.0), (-3.0, -9.8, 0.0), (-3.1, -9.8, 0.0)'
p49
(dp50
(F-3.2
F-9.8
F0.0
tp51
F1.0
ssS'(1.1, -9.5, 0.1), (1.0, -9.5, 0.1), (0.9, -9.5, 0.1)'
p52
(dp53
(F0.8
F-9.5
F0.1
tp54
F1.0
ssS'(-4.0, -3.8, -0.7), (-4.0, -3.7, -0.7), (-4.0, -3.6, -0.7)'
p55
(dp56
(F-4.0
F-3.5
F-0.7
tp57
F1.0
ssS'(1.7, -9.2, 0.7), (1.7, -9.3, 0.7), (1.7, -9.4, 0.7)'
p58
(dp59
(F1.7
F-9.4
F0.6
tp60
F1.0
ssS'(2.0, -4.0, 0.7), (2.0, -4.1, 0.7), (2.0, -4.2, 0.7)'
p61
(dp62
(F2.0
F-4.3
F0.7
tp63
F1.0
ssS'(2.0, -5.1, 0.7), (2.0, -5.2, 0.7), (2.0, -5.3, 0.7)'
p64
(dp65
(F2.0
F-5.4
F0.7
tp66
F1.0
ssS'(2.0, -4.8, 0.7), (2.0, -4.9, 0.7), (2.0, -5.0, 0.7)'
p67
(dp68
(F2.0
F-5.1
F0.7
tp69
F1.0
ssS'(2.0, -3.3, 0.7), (2.0, -3.4, 0.7), (2.0, -3.5, 0.7)'
p70
(dp71
(F2.0
F-3.6
F0.7
tp72
F1.0
ssS'(-4.0, -4.7, -0.7), (-4.0, -4.6, -0.7), (-4.0, -4.5, -0.7)'
p73
(dp74
(F-4.0
F-4.4
F-0.7
tp75
F1.0
ssS'(-0.1, -9.6, 0.1), (-0.2, -9.6, 0.1), (-0.3, -9.6, 0.1)'
p76
(dp77
(F-0.3
F-9.7
F0.1
tp78
F1.0
ssS'(1.8, -1.3, 0.7), (1.8, -1.4, 0.7), (1.8, -1.5, 0.7)'
p79
(dp80
(F1.9
F-1.5
F0.7
tp81
F1.0
ssS'(1.8, -8.8, 0.7), (1.8, -8.9, 0.7), (1.8, -9.0, 0.7)'
p82
(dp83
(F1.8
F-9.1
F0.7
tp84
F1.0
ssS'(1.8, -0.7, 0.7), (1.8, -0.8, 0.7), (1.8, -0.9, 0.7)'
p85
(dp86
(F1.8
F-1.0
F0.7
tp87
F1.0
ssS'(2.0, -4.2, 0.7), (2.0, -4.3, 0.7), (2.0, -4.4, 0.7)'
p88
(dp89
(F2.0
F-4.5
F0.7
tp90
F1.0
ssS'(-1.4, -9.8, 0.0), (-1.5, -9.8, 0.0), (-1.6, -9.8, 0.0)'
p91
(dp92
(F-1.7
F-9.8
F0.0
tp93
F1.0
ssS'(-0.3, -9.7, 0.1), (-0.4, -9.7, 0.1), (-0.4, -9.7, 0.0)'
p94
(dp95
(F-0.5
F-9.7
F0.0
tp96
F1.0
ssS'(1.9, -2.2, 0.7), (1.9, -2.3, 0.7), (1.9, -2.4, 0.7)'
p97
(dp98
(F1.9
F-2.5
F0.7
tp99
F1.0
ssS'(-3.8, -1.4, -0.7), (-3.8, -1.3, -0.7), (-3.8, -1.2, -0.7)'
p100
(dp101
(F-3.8
F-1.1
F-0.7
tp102
F1.0
ssS'(1.8, -0.6, 0.7), (1.8, -0.7, 0.7), (1.8, -0.8, 0.7)'
p103
(dp104
(F1.8
F-0.9
F0.7
tp105
F1.0
ssS'(-3.8, -9.2, -0.7), (-3.8, -9.1, -0.7), (-3.8, -9.0, -0.7)'
p106
(dp107
(F-3.8
F-8.9
F-0.7
tp108
F1.0
ssS'(1.7, -0.2, 1.0), (1.7, -0.2, 0.9), (1.7, -0.2, 0.8)'
p109
(dp110
(F1.7
F-0.2
F0.7
tp111
F1.0
ssS'(-4.0, -4.3, -0.7), (-4.0, -4.2, -0.7), (-4.0, -4.1, -0.7)'
p112
(dp113
(F-4.0
F-4.0
F-0.7
tp114
F1.0
ssS'(-2.2, -9.8, 0.0), (-2.3, -9.8, 0.0), (-2.4, -9.8, 0.0)'
p115
(dp116
(F-2.5
F-9.8
F0.0
tp117
F1.0
ssS'(-3.1, -9.8, 0.0), (-3.2, -9.8, 0.0), (-3.2, -9.9, 0.0)'
p118
(dp119
(F-3.3
F-9.9
F0.0
tp120
F1.0
ssS'(-3.9, -2.4, -0.7), (-3.9, -2.3, -0.7), (-3.9, -2.2, -0.7)'
p121
(dp122
(F-3.9
F-2.1
F-0.7
tp123
F1.0
ssS'(0.8, -9.5, 0.1), (0.7, -9.5, 0.1), (0.6, -9.5, 0.1)'
p124
(dp125
(F0.6
F-9.6
F0.1
tp126
F1.0
ssS'(2.0, -5.6, 0.7), (2.0, -5.7, 0.7), (2.0, -5.8, 0.7)'
p127
(dp128
(F2.0
F-5.9
F0.7
tp129
F1.0
ssS'(-4.0, -3.6, -0.7), (-4.0, -3.5, -0.7), (-4.0, -3.4, -0.7)'
p130
(dp131
(F-4.0
F-3.3
F-0.7
tp132
F1.0
ssS'(2.0, -3.1, 0.7), (2.0, -3.2, 0.7), (2.0, -3.3, 0.7)'
p133
(dp134
(F2.0
F-3.4
F0.7
tp135
F1.0
ssS'(-4.0, -3.0, -0.7), (-3.9, -3.0, -0.7), (-3.9, -2.9, -0.7)'
p136
(dp137
(F-3.9
F-2.8
F-0.7
tp138
F1.0
ssS'(1.7, -9.3, 0.7), (1.7, -9.4, 0.7), (1.7, -9.4, 0.6)'
p139
(dp140
(F1.7
F-9.4
F0.5
tp141
F1.0
ssS'(-4.0, -6.5, -0.7), (-4.0, -6.4, -0.7), (-4.0, -6.3, -0.7)'
p142
(dp143
(F-4.0
F-6.2
F-0.7
tp144
F1.0
ssS'(-4.0, -6.7, -0.7), (-4.0, -6.6, -0.7), (-4.0, -6.5, -0.7)'
p145
(dp146
(F-4.0
F-6.4
F-0.7
tp147
F1.0
ssS'(0.3, -9.6, 0.1), (0.2, -9.6, 0.1), (0.1, -9.6, 0.1)'
p148
(dp149
(F0.0
F-9.6
F0.1
tp150
F1.0
ssS'(1.8, -8.3, 0.7), (1.8, -8.4, 0.7), (1.8, -8.5, 0.7)'
p151
(dp152
(F1.8
F-8.6
F0.7
tp153
F1.0
ssS'(1.9, -7.3, 0.7), (1.9, -7.4, 0.7), (1.9, -7.5, 0.7)'
p154
(dp155
(F1.9
F-7.6
F0.7
tp156
F1.0
ssS'(1.2, -9.5, 0.1), (1.1, -9.5, 0.1), (1.0, -9.5, 0.1)'
p157
(dp158
(F0.9
F-9.5
F0.1
tp159
F1.0
ssS'(-4.0, -5.6, -0.7), (-4.0, -5.5, -0.7), (-4.0, -5.4, -0.7)'
p160
(dp161
(F-4.0
F-5.3
F-0.7
tp162
F1.0
ssS'(-4.0, -7.4, -0.7), (-4.0, -7.3, -0.7), (-4.0, -7.2, -0.7)'
p163
(dp164
(F-4.0
F-7.1
F-0.7
tp165
F1.0
ssS'(2.0, -5.2, 0.7), (2.0, -5.3, 0.7), (2.0, -5.4, 0.7)'
p166
(dp167
(F2.0
F-5.5
F0.7
tp168
F1.0
ssS'(1.8, -1.1, 0.7), (1.8, -1.2, 0.7), (1.8, -1.3, 0.7)'
p169
(dp170
(F1.8
F-1.4
F0.7
tp171
F1.0
ssS'(1.7, -0.2, 0.7), (1.7, -0.3, 0.7), (1.7, -0.4, 0.7)'
p172
(dp173
(F1.7
F-0.5
F0.7
tp174
F1.0
ssS'(-0.2, -9.6, 0.1), (-0.3, -9.6, 0.1), (-0.3, -9.7, 0.1)'
p175
(dp176
(F-0.4
F-9.7
F0.1
tp177
F1.0
ssS'(-3.7, -9.9, -0.6), (-3.7, -9.9, -0.7), (-3.7, -9.8, -0.7)'
p178
(dp179
(F-3.8
F-9.8
F-0.7
tp180
F1.0
ssS'(-3.9, -2.0, -0.7), (-3.9, -1.9, -0.7), (-3.9, -1.8, -0.7)'
p181
(dp182
(F-3.9
F-1.7
F-0.7
tp183
F1.0
ssS'(-2.1, -9.8, 0.0), (-2.2, -9.8, 0.0), (-2.3, -9.8, 0.0)'
p184
(dp185
(F-2.4
F-9.8
F0.0
tp186
F1.0
ssS'(-3.8, -9.6, -0.7), (-3.8, -9.5, -0.7), (-3.8, -9.4, -0.7)'
p187
(dp188
(F-3.8
F-9.3
F-0.7
tp189
F1.0
ssS'(1.9, -7.5, 0.7), (1.9, -7.6, 0.7), (1.9, -7.7, 0.7)'
p190
(dp191
(F1.9
F-7.8
F0.7
tp192
F1.0
ssS'(-4.0, -5.8, -0.7), (-4.0, -5.7, -0.7), (-4.0, -5.6, -0.7)'
p193
(dp194
(F-4.0
F-5.5
F-0.7
tp195
F1.0
ssS'(-1.0, -9.7, 0.0), (-1.1, -9.7, 0.0), (-1.2, -9.7, 0.0)'
p196
(dp197
(F-1.3
F-9.7
F0.0
tp198
F1.0
ssS'(1.9, -7.4, 0.7), (1.9, -7.5, 0.7), (1.9, -7.6, 0.7)'
p199
(dp200
(F1.9
F-7.7
F0.7
tp201
F1.0
ssS'(-4.0, -6.9, -0.7), (-4.0, -6.8, -0.7), (-4.0, -6.7, -0.7)'
p202
(dp203
(F-4.0
F-6.6
F-0.7
tp204
F1.0
ssS'(1.7, -9.4, 0.3), (1.7, -9.4, 0.2), (1.7, -9.4, 0.1)'
p205
(dp206
(F1.6
F-9.4
F0.1
tp207
F1.0
ssS'(1.9, -1.5, 0.7), (1.9, -1.6, 0.7), (1.9, -1.7, 0.7)'
p208
(dp209
(F1.9
F-1.8
F0.7
tp210
F1.0
ssS'(1.9, -2.4, 0.7), (1.9, -2.5, 0.7), (1.9, -2.6, 0.7)'
p211
(dp212
(F1.9
F-2.7
F0.7
tp213
F1.0
ssS'(-3.9, -8.9, -0.7), (-3.9, -8.8, -0.7), (-3.9, -8.7, -0.7)'
p214
(dp215
(F-3.9
F-8.6
F-0.7
tp216
F1.0
ssS'(1.8, -8.1, 0.7), (1.8, -8.2, 0.7), (1.8, -8.3, 0.7)'
p217
(dp218
(F1.8
F-8.4
F0.7
tp219
F1.0
ssS'(1.8, -8.7, 0.7), (1.8, -8.8, 0.7), (1.8, -8.9, 0.7)'
p220
(dp221
(F1.8
F-9.0
F0.7
tp222
F1.0
ssS'(-4.0, -5.9, -0.7), (-4.0, -5.8, -0.7), (-4.0, -5.7, -0.7)'
p223
(dp224
(F-4.0
F-5.6
F-0.7
tp225
F1.0
ssS'(2.0, -5.9, 0.7), (2.0, -6.0, 0.7), (2.0, -6.1, 0.7)'
p226
(dp227
(F2.0
F-6.2
F0.7
tp228
F1.0
ssS'(-3.9, -8.3, -0.7), (-3.9, -8.2, -0.7), (-3.9, -8.1, -0.7)'
p229
(dp230
(F-3.9
F-8.0
F-0.7
tp231
F1.0
ssS'(-3.9, -8.5, -0.7), (-3.9, -8.4, -0.7), (-3.9, -8.3, -0.7)'
p232
(dp233
(F-3.9
F-8.2
F-0.7
tp234
F1.0
ssS'(-2.4, -9.8, 0.0), (-2.5, -9.8, 0.0), (-2.6, -9.8, 0.0)'
p235
(dp236
(F-2.7
F-9.8
F0.0
tp237
F1.0
ssS'(-3.9, -2.5, -0.7), (-3.9, -2.4, -0.7), (-3.9, -2.3, -0.7)'
p238
(dp239
(F-3.9
F-2.2
F-0.7
tp240
F1.0
ssS'(-2.6, -9.8, 0.0), (-2.7, -9.8, 0.0), (-2.8, -9.8, 0.0)'
p241
(dp242
(F-2.9
F-9.8
F0.0
tp243
F1.0
ssS'(-4.0, -4.0, -0.7), (-4.0, -3.9, -0.7), (-4.0, -3.8, -0.7)'
p244
(dp245
(F-4.0
F-3.7
F-0.7
tp246
F1.0
ssS'(-4.0, -7.1, -0.7), (-4.0, -7.0, -0.7), (-4.0, -6.9, -0.7)'
p247
(dp248
(F-4.0
F-6.8
F-0.7
tp249
F1.0
ssS'(1.7, -0.2, 0.8), (1.7, -0.2, 0.7), (1.7, -0.3, 0.7)'
p250
(dp251
(F1.7
F-0.4
F0.7
tp252
F1.0
ssS'(1.8, -9.0, 0.7), (1.8, -9.1, 0.7), (1.8, -9.2, 0.7)'
p253
(dp254
(F1.7
F-9.2
F0.7
tp255
F1.0
ssS'(1.9, -2.1, 0.7), (1.9, -2.2, 0.7), (1.9, -2.3, 0.7)'
p256
(dp257
(F1.9
F-2.4
F0.7
tp258
F1.0
ssS'(0.4, -9.6, 0.1), (0.3, -9.6, 0.1), (0.2, -9.6, 0.1)'
p259
(dp260
(F0.1
F-9.6
F0.1
tp261
F1.0
ssS'(0.7, -9.5, 0.1), (0.6, -9.5, 0.1), (0.6, -9.6, 0.1)'
p262
(dp263
(F0.5
F-9.6
F0.1
tp264
F1.0
ssS'(1.4, -9.4, 0.1), (1.3, -9.4, 0.1), (1.3, -9.5, 0.1)'
p265
(dp266
(F1.2
F-9.5
F0.1
tp267
F1.0
ssS'(-3.2, -9.8, 0.0), (-3.2, -9.9, 0.0), (-3.3, -9.9, 0.0)'
p268
(dp269
(F-3.4
F-9.9
F0.0
tp270
F1.0
ssS'(-3.8, -1.3, -0.7), (-3.8, -1.2, -0.7), (-3.8, -1.1, -0.7)'
p271
(dp272
(F-3.8
F-1.0
F-0.7
tp273
F1.0
ssS'(-4.0, -6.1, -0.7), (-4.0, -6.0, -0.7), (-4.0, -5.9, -0.7)'
p274
(dp275
(F-4.0
F-5.8
F-0.7
tp276
F1.0
ssS'(-3.8, -9.7, -0.7), (-3.8, -9.6, -0.7), (-3.8, -9.5, -0.7)'
p277
(dp278
(F-3.8
F-9.4
F-0.7
tp279
F1.0
ssS'(2.0, -3.9, 0.7), (2.0, -4.0, 0.7), (2.0, -4.1, 0.7)'
p280
(dp281
(F2.0
F-4.2
F0.7
tp282
F1.0
ssS'(1.8, -8.2, 0.7), (1.8, -8.3, 0.7), (1.8, -8.4, 0.7)'
p283
(dp284
(F1.8
F-8.5
F0.7
tp285
F1.0
ssS'(2.0, -5.5, 0.7), (2.0, -5.6, 0.7), (2.0, -5.7, 0.7)'
p286
(dp287
(F2.0
F-5.8
F0.7
tp288
F1.0
ssS'(-4.0, -7.2, -0.7), (-4.0, -7.1, -0.7), (-4.0, -7.0, -0.7)'
p289
(dp290
(F-4.0
F-6.9
F-0.7
tp291
F1.0
ssS'(-3.9, -8.8, -0.7), (-3.9, -8.7, -0.7), (-3.9, -8.6, -0.7)'
p292
(dp293
(F-3.9
F-8.5
F-0.7
tp294
F1.0
ssS'(-4.0, -6.6, -0.7), (-4.0, -6.5, -0.7), (-4.0, -6.4, -0.7)'
p295
(dp296
(F-4.0
F-6.3
F-0.7
tp297
F1.0
ssS'(0.6, -9.6, 0.1), (0.5, -9.6, 0.1), (0.4, -9.6, 0.1)'
p298
(dp299
(F0.3
F-9.6
F0.1
tp300
F1.0
ssS'(-3.8, -9.8, -0.7), (-3.8, -9.7, -0.7), (-3.8, -9.6, -0.7)'
p301
(dp302
(F-3.8
F-9.5
F-0.7
tp303
F1.0
ssS'(-2.0, -9.8, 0.0), (-2.1, -9.8, 0.0), (-2.2, -9.8, 0.0)'
p304
(dp305
(F-2.3
F-9.8
F0.0
tp306
F1.0
ssS'(-3.8, -1.1, -0.7), (-3.8, -1.0, -0.7), (-3.8, -0.9, -0.7)'
p307
(dp308
(F-3.8
F-0.8
F-0.7
tp309
F1.0
ssS'(2.0, -4.4, 0.7), (2.0, -4.5, 0.7), (2.0, -4.6, 0.7)'
p310
(dp311
(F2.0
F-4.7
F0.7
tp312
F1.0
ssS'(-3.9, -7.8, -0.7), (-3.9, -7.7, -0.7), (-3.9, -7.6, -0.7)'
p313
(dp314
(F-3.9
F-7.5
F-0.7
tp315
F1.0
ssS'(1.9, -7.6, 0.7), (1.9, -7.7, 0.7), (1.9, -7.8, 0.7)'
p316
(dp317
(F1.9
F-7.9
F0.7
tp318
F1.0
ssS'(-3.9, -8.1, -0.7), (-3.9, -8.0, -0.7), (-3.9, -7.9, -0.7)'
p319
(dp320
(F-3.9
F-7.8
F-0.7
tp321
F1.0
ssS'(-4.0, -5.1, -0.7), (-4.0, -5.0, -0.7), (-4.0, -4.9, -0.7)'
p322
(dp323
(F-4.0
F-4.8
F-0.7
tp324
F1.0
ssS'(1.9, -7.1, 0.7), (1.9, -7.2, 0.7), (1.9, -7.3, 0.7)'
p325
(dp326
(F1.9
F-7.4
F0.7
tp327
F1.0
ssS'(-4.0, -3.4, -0.7), (-4.0, -3.3, -0.7), (-4.0, -3.2, -0.7)'
p328
(dp329
(F-4.0
F-3.1
F-0.7
tp330
F1.0
ssS'(1.9, -1.8, 0.7), (1.9, -1.9, 0.7), (1.9, -2.0, 0.7)'
p331
(dp332
(F1.9
F-2.1
F0.7
tp333
F1.0
ssS'(2.0, -6.4, 0.7), (2.0, -6.5, 0.7), (2.0, -6.6, 0.7)'
p334
(dp335
(F1.9
F-6.6
F0.7
tp336
F1.0
ssS'(-3.6, -9.9, 0.0), (-3.7, -9.9, 0.0), (-3.7, -9.9, -0.1)'
p337
(dp338
(F-3.7
F-9.9
F-0.2
tp339
F1.0
ssS'(1.8, -1.0, 0.7), (1.8, -1.1, 0.7), (1.8, -1.2, 0.7)'
p340
(dp341
(F1.8
F-1.3
F0.7
tp342
F1.0
ssS'(-4.0, -6.3, -0.7), (-4.0, -6.2, -0.7), (-4.0, -6.1, -0.7)'
p343
(dp344
(F-4.0
F-6.0
F-0.7
tp345
F1.0
ssS'(-0.7, -9.7, 0.0), (-0.8, -9.7, 0.0), (-0.9, -9.7, 0.0)'
p346
(dp347
(F-1.0
F-9.7
F0.0
tp348
F1.0
ssS'(1.9, -1.6, 0.7), (1.9, -1.7, 0.7), (1.9, -1.8, 0.7)'
p349
(dp350
(F1.9
F-1.9
F0.7
tp351
F1.0
ssS'(-3.9, -1.9, -0.7), (-3.9, -1.8, -0.7), (-3.9, -1.7, -0.7)'
p352
(dp353
(F-3.8
F-1.7
F-0.7
tp354
F1.0
ssS'(1.8, -1.5, 0.7), (1.9, -1.5, 0.7), (1.9, -1.6, 0.7)'
p355
(dp356
(F1.9
F-1.7
F0.7
tp357
F1.0
ssS'(-2.7, -9.8, 0.0), (-2.8, -9.8, 0.0), (-2.9, -9.8, 0.0)'
p358
(dp359
(F-3.0
F-9.8
F0.0
tp360
F1.0
ssS'(1.7, -0.5, 0.7), (1.8, -0.5, 0.7), (1.8, -0.6, 0.7)'
p361
(dp362
(F1.8
F-0.7
F0.7
tp363
F1.0
ssS'(-4.0, -7.0, -0.7), (-4.0, -6.9, -0.7), (-4.0, -6.8, -0.7)'
p364
(dp365
(F-4.0
F-6.7
F-0.7
tp366
F1.0
ssS'(2.0, -6.2, 0.7), (2.0, -6.3, 0.7), (2.0, -6.4, 0.7)'
p367
(dp368
(F2.0
F-6.5
F0.7
tp369
F1.0
ssS'(1.7, -9.4, 0.6), (1.7, -9.4, 0.5), (1.7, -9.4, 0.4)'
p370
(dp371
(F1.7
F-9.4
F0.3
tp372
F1.0
ssS'(-4.0, -5.7, -0.7), (-4.0, -5.6, -0.7), (-4.0, -5.5, -0.7)'
p373
(dp374
(F-4.0
F-5.4
F-0.7
tp375
F1.0
ssS'(1.9, -8.1, 0.7), (1.8, -8.1, 0.7), (1.8, -8.2, 0.7)'
p376
(dp377
(F1.8
F-8.3
F0.7
tp378
F1.0
ssS'(1.8, -8.9, 0.7), (1.8, -9.0, 0.7), (1.8, -9.1, 0.7)'
p379
(dp380
(F1.8
F-9.2
F0.7
tp381
F1.0
ssS'(-0.9, -9.7, 0.0), (-1.0, -9.7, 0.0), (-1.1, -9.7, 0.0)'
p382
(dp383
(F-1.2
F-9.7
F0.0
tp384
F1.0
ssS'(-3.9, -2.3, -0.7), (-3.9, -2.2, -0.7), (-3.9, -2.1, -0.7)'
p385
(dp386
(F-3.9
F-2.0
F-0.7
tp387
F1.0
ssS'(1.9, -1.9, 0.7), (1.9, -2.0, 0.7), (1.9, -2.1, 0.7)'
p388
(dp389
(F1.9
F-2.2
F0.7
tp390
F1.0
ssS'(-3.9, -8.2, -0.7), (-3.9, -8.1, -0.7), (-3.9, -8.0, -0.7)'
p391
(dp392
(F-3.9
F-7.9
F-0.7
tp393
F1.0
ssS'(1.7, -9.4, 0.7), (1.7, -9.4, 0.6), (1.7, -9.4, 0.5)'
p394
(dp395
(F1.7
F-9.4
F0.4
tp396
F1.0
ssS'(1.8, -8.6, 0.7), (1.8, -8.7, 0.7), (1.8, -8.8, 0.7)'
p397
(dp398
(F1.8
F-8.9
F0.7
tp399
F1.0
ssS'(-3.0, -9.8, 0.0), (-3.1, -9.8, 0.0), (-3.2, -9.8, 0.0)'
p400
(dp401
(F-3.2
F-9.9
F0.0
tp402
F1.0
ssS'(-1.9, -9.8, 0.0), (-2.0, -9.8, 0.0), (-2.1, -9.8, 0.0)'
p403
(dp404
(F-2.2
F-9.8
F0.0
tp405
F1.0
ssS'(-3.3, -9.9, 0.0), (-3.4, -9.9, 0.0), (-3.5, -9.9, 0.0)'
p406
(dp407
(F-3.6
F-9.9
F0.0
tp408
F1.0
ssS'(-4.0, -4.4, -0.7), (-4.0, -4.3, -0.7), (-4.0, -4.2, -0.7)'
p409
(dp410
(F-4.0
F-4.1
F-0.7
tp411
F1.0
ssS'(1.9, -2.7, 0.7), (1.9, -2.8, 0.7), (1.9, -2.9, 0.7)'
p412
(dp413
(F1.9
F-3.0
F0.7
tp414
F1.0
ssS'(-0.8, -9.7, 0.0), (-0.9, -9.7, 0.0), (-1.0, -9.7, 0.0)'
p415
(dp416
(F-1.1
F-9.7
F0.0
tp417
F1.0
ssS'(-3.7, -9.9, -0.2), (-3.7, -9.9, -0.3), (-3.7, -9.9, -0.4)'
p418
(dp419
(F-3.7
F-9.9
F-0.5
tp420
F1.0
ssS'(-1.6, -9.8, 0.0), (-1.7, -9.8, 0.0), (-1.8, -9.8, 0.0)'
p421
(dp422
(F-1.9
F-9.8
F0.0
tp423
F1.0
ssS'(-4.0, -5.2, -0.7), (-4.0, -5.1, -0.7), (-4.0, -5.0, -0.7)'
p424
(dp425
(F-4.0
F-4.9
F-0.7
tp426
F1.0
ssS'(1.8, -9.2, 0.7), (1.7, -9.2, 0.7), (1.7, -9.3, 0.7)'
p427
(dp428
(F1.7
F-9.4
F0.7
tp429
F1.0
ssS'(1.7, -9.4, 0.4), (1.7, -9.4, 0.3), (1.7, -9.4, 0.2)'
p430
(dp431
(F1.7
F-9.4
F0.1
tp432
F1.0
ssS'(0.6, -9.5, 0.1), (0.6, -9.6, 0.1), (0.5, -9.6, 0.1)'
p433
(dp434
(F0.4
F-9.6
F0.1
tp435
F1.0
ssS'(-3.9, -8.0, -0.7), (-3.9, -7.9, -0.7), (-3.9, -7.8, -0.7)'
p436
(dp437
(F-3.9
F-7.7
F-0.7
tp438
F1.0
ssS'(-3.9, -2.8, -0.7), (-3.9, -2.7, -0.7), (-3.9, -2.6, -0.7)'
p439
(dp440
(F-3.9
F-2.5
F-0.7
tp441
F1.0
ssS'(1.9, -6.6, 0.7), (1.9, -6.7, 0.7), (1.9, -6.8, 0.7)'
p442
(dp443
(F1.9
F-6.9
F0.7
tp444
F1.0
ssS'(-3.9, -2.2, -0.7), (-3.9, -2.1, -0.7), (-3.9, -2.0, -0.7)'
p445
(dp446
(F-3.9
F-1.9
F-0.7
tp447
F1.0
ssS'(-3.8, -9.1, -0.7), (-3.8, -9.0, -0.7), (-3.8, -8.9, -0.7)'
p448
(dp449
(F-3.9
F-8.9
F-0.7
tp450
F1.0
ssS'(1.9, -2.0, 0.7), (1.9, -2.1, 0.7), (1.9, -2.2, 0.7)'
p451
(dp452
(F1.9
F-2.3
F0.7
tp453
F1.0
ssS'(-4.0, -3.5, -0.7), (-4.0, -3.4, -0.7), (-4.0, -3.3, -0.7)'
p454
(dp455
(F-4.0
F-3.2
F-0.7
tp456
F1.0
ssS'(1.7, -0.2, 0.7), (1.7, -0.2, 0.8), (1.7, -0.2, 0.7)'
p457
(dp458
(F1.7
F-0.3
F0.7
tp459
F1.0
ssS'(-4.0, -5.3, -0.7), (-4.0, -5.2, -0.7), (-4.0, -5.1, -0.7)'
p460
(dp461
(F-4.0
F-5.0
F-0.7
tp462
F1.0
ssS'(1.8, -8.4, 0.7), (1.8, -8.5, 0.7), (1.8, -8.6, 0.7)'
p463
(dp464
(F1.8
F-8.7
F0.7
tp465
F1.0
ssS'(2.0, -5.8, 0.7), (2.0, -5.9, 0.7), (2.0, -6.0, 0.7)'
p466
(dp467
(F2.0
F-6.1
F0.7
tp468
F1.0
ssS'(-3.8, -1.6, -0.7), (-3.8, -1.5, -0.7), (-3.8, -1.4, -0.7)'
p469
(dp470
(F-3.8
F-1.3
F-0.7
tp471
F1.0
ssS'(-4.0, -7.3, -0.7), (-4.0, -7.2, -0.7), (-4.0, -7.1, -0.7)'
p472
(dp473
(F-4.0
F-7.0
F-0.7
tp474
F1.0
ssS'(-3.9, -7.7, -0.7), (-3.9, -7.6, -0.7), (-3.9, -7.5, -0.7)'
p475
(dp476
(F-4.0
F-7.5
F-0.7
tp477
F1.0
ssS'(2.0, -4.5, 0.7), (2.0, -4.6, 0.7), (2.0, -4.7, 0.7)'
p478
(dp479
(F2.0
F-4.8
F0.7
tp480
F1.0
ssS'(-3.9, -7.6, -0.7), (-3.9, -7.5, -0.7), (-4.0, -7.5, -0.7)'
p481
(dp482
(F-4.0
F-7.4
F-0.7
tp483
F1.0
ssS'(2.0, -5.3, 0.7), (2.0, -5.4, 0.7), (2.0, -5.5, 0.7)'
p484
(dp485
(F2.0
F-5.6
F0.7
tp486
F1.0
ssS'(1.9, -7.7, 0.7), (1.9, -7.8, 0.7), (1.9, -7.9, 0.7)'
p487
(dp488
(F1.9
F-8.0
F0.7
tp489
F1.0
ssS'(2.0, -4.7, 0.7), (2.0, -4.8, 0.7), (2.0, -4.9, 0.7)'
p490
(dp491
(F2.0
F-5.0
F0.7
tp492
F1.0
ssS'(-3.8, -9.3, -0.7), (-3.8, -9.2, -0.7), (-3.8, -9.1, -0.7)'
p493
(dp494
(F-3.8
F-9.0
F-0.7
tp495
F1.0
ssS'(1.8, -0.8, 0.7), (1.8, -0.9, 0.7), (1.8, -1.0, 0.7)'
p496
(dp497
(F1.8
F-1.1
F0.7
tp498
F1.0
ssS'(2.0, -4.6, 0.7), (2.0, -4.7, 0.7), (2.0, -4.8, 0.7)'
p499
(dp500
(F2.0
F-4.9
F0.7
tp501
F1.0
ssS'(-3.9, -1.7, -0.7), (-3.8, -1.7, -0.7), (-3.8, -1.6, -0.7)'
p502
(dp503
(F-3.8
F-1.5
F-0.7
tp504
F1.0
ssS'(2.0, -5.0, 0.7), (2.0, -5.1, 0.7), (2.0, -5.2, 0.7)'
p505
(dp506
(F2.0
F-5.3
F0.7
tp507
F1.0
ssS'(-2.5, -9.8, 0.0), (-2.6, -9.8, 0.0), (-2.7, -9.8, 0.0)'
p508
(dp509
(F-2.8
F-9.8
F0.0
tp510
F1.0
ssS'(-0.6, -9.7, 0.0), (-0.7, -9.7, 0.0), (-0.8, -9.7, 0.0)'
p511
(dp512
(F-0.9
F-9.7
F0.0
tp513
F1.0
ssS'(1.9, -3.1, 0.7), (2.0, -3.1, 0.7), (2.0, -3.2, 0.7)'
p514
(dp515
(F2.0
F-3.3
F0.7
tp516
F1.0
ssS'(0.0, -9.6, 0.1), (-0.1, -9.6, 0.1), (-0.2, -9.6, 0.1)'
p517
(dp518
(F-0.3
F-9.6
F0.1
tp519
F1.0
ssS'(-1.1, -9.7, 0.0), (-1.2, -9.7, 0.0), (-1.3, -9.7, 0.0)'
p520
(dp521
(F-1.4
F-9.7
F0.0
tp522
F1.0
ssS'(1.7, -9.4, 0.1), (1.6, -9.4, 0.1), (1.5, -9.4, 0.1)'
p523
(dp524
(F1.4
F-9.4
F0.1
tp525
F1.0
ssS'(-4.0, -4.1, -0.7), (-4.0, -4.0, -0.7), (-4.0, -3.9, -0.7)'
p526
(dp527
(F-4.0
F-3.8
F-0.7
tp528
F1.0
ssS'(2.0, -6.1, 0.7), (2.0, -6.2, 0.7), (2.0, -6.3, 0.7)'
p529
(dp530
(F2.0
F-6.4
F0.7
tp531
F1.0
ssS'(-3.7, -9.9, -0.3), (-3.7, -9.9, -0.4), (-3.7, -9.9, -0.5)'
p532
(dp533
(F-3.7
F-9.9
F-0.6
tp534
F1.0
ssS'(2.0, -3.4, 0.7), (2.0, -3.5, 0.7), (2.0, -3.6, 0.7)'
p535
(dp536
(F2.0
F-3.7
F0.7
tp537
F1.0
ssS'(-3.9, -2.6, -0.7), (-3.9, -2.5, -0.7), (-3.9, -2.4, -0.7)'
p538
(dp539
(F-3.9
F-2.3
F-0.7
tp540
F1.0
ssS'(1.9, -2.6, 0.7), (1.9, -2.7, 0.7), (1.9, -2.8, 0.7)'
p541
(dp542
(F1.9
F-2.9
F0.7
tp543
F1.0
ssS'(2.0, -4.1, 0.7), (2.0, -4.2, 0.7), (2.0, -4.3, 0.7)'
p544
(dp545
(F2.0
F-4.4
F0.7
tp546
F1.0
ssS'(-0.5, -9.7, 0.0), (-0.6, -9.7, 0.0), (-0.7, -9.7, 0.0)'
p547
(dp548
(F-0.8
F-9.7
F0.0
tp549
F1.0
ssS'(-0.4, -9.7, 0.1), (-0.4, -9.7, 0.0), (-0.5, -9.7, 0.0)'
p550
(dp551
(F-0.6
F-9.7
F0.0
tp552
F1.0
ssS'(-2.3, -9.8, 0.0), (-2.4, -9.8, 0.0), (-2.5, -9.8, 0.0)'
p553
(dp554
(F-2.6
F-9.8
F0.0
tp555
F1.0
ssS'(-3.7, -9.9, -0.5), (-3.7, -9.9, -0.6), (-3.7, -9.9, -0.7)'
p556
(dp557
(F-3.7
F-9.8
F-0.7
tp558
F1.0
ssS'(-1.4, -9.7, 0.0), (-1.4, -9.8, 0.0), (-1.5, -9.8, 0.0)'
p559
(dp560
(F-1.6
F-9.8
F0.0
tp561
F1.0
ssS'(1.6, -0.2, 1.0), (1.7, -0.2, 1.0), (1.7, -0.2, 0.9)'
p562
(dp563
(F1.7
F-0.2
F0.8
tp564
F1.0
ssS'(-3.9, -1.8, -0.7), (-3.9, -1.7, -0.7), (-3.8, -1.7, -0.7)'
p565
(dp566
(F-3.8
F-1.6
F-0.7
tp567
F1.0
ssS'(-4.0, -6.2, -0.7), (-4.0, -6.1, -0.7), (-4.0, -6.0, -0.7)'
p568
(dp569
(F-4.0
F-5.9
F-0.7
tp570
F1.0
ssS'(-3.8, -8.9, -0.7), (-3.9, -8.9, -0.7), (-3.9, -8.8, -0.7)'
p571
(dp572
(F-3.9
F-8.7
F-0.7
tp573
F1.0
ssS'(1.7, -0.2, 0.8), (1.7, -0.2, 0.7), (1.7, -0.2, 0.8)'
p574
(dp575
(F1.7
F-0.2
F0.7
tp576
F1.0
ssS'(2.0, -3.7, 0.7), (2.0, -3.8, 0.7), (2.0, -3.9, 0.7)'
p577
(dp578
(F2.0
F-4.0
F0.7
tp579
F1.0
ssS'(-3.7, -9.8, -0.7), (-3.8, -9.8, -0.7), (-3.8, -9.7, -0.7)'
p580
(dp581
(F-3.8
F-9.6
F-0.7
tp582
F1.0
ssS'(1.8, -1.2, 0.7), (1.8, -1.3, 0.7), (1.8, -1.4, 0.7)'
p583
(dp584
(F1.8
F-1.5
F0.7
tp585
F1.0
ssS'(-4.0, -5.4, -0.7), (-4.0, -5.3, -0.7), (-4.0, -5.2, -0.7)'
p586
(dp587
(F-4.0
F-5.1
F-0.7
tp588
F1.0
ssS'(-3.9, -2.9, -0.7), (-3.9, -2.8, -0.7), (-3.9, -2.7, -0.7)'
p589
(dp590
(F-3.9
F-2.6
F-0.7
tp591
F1.0
ssS'(1.8, -8.5, 0.7), (1.8, -8.6, 0.7), (1.8, -8.7, 0.7)'
p592
(dp593
(F1.8
F-8.8
F0.7
tp594
F1.0
ssS'(1.9, -2.5, 0.7), (1.9, -2.6, 0.7), (1.9, -2.7, 0.7)'
p595
(dp596
(F1.9
F-2.8
F0.7
tp597
F1.0
ssS'(-3.9, -8.4, -0.7), (-3.9, -8.3, -0.7), (-3.9, -8.2, -0.7)'
p598
(dp599
(F-3.9
F-8.1
F-0.7
tp600
F1.0
ssS'(2.0, -6.6, 0.7), (1.9, -6.6, 0.7), (1.9, -6.7, 0.7)'
p601
(dp602
(F1.9
F-6.8
F0.7
tp603
F1.0
ssS'(-3.4, -9.9, 0.0), (-3.5, -9.9, 0.0), (-3.6, -9.9, 0.0)'
p604
(dp605
(F-3.7
F-9.9
F0.0
tp606
F1.0
ssS'(-3.8, -9.5, -0.7), (-3.8, -9.4, -0.7), (-3.8, -9.3, -0.7)'
p607
(dp608
(F-3.8
F-9.2
F-0.7
tp609
F1.0
ssS'(1.3, -9.5, 0.1), (1.2, -9.5, 0.1), (1.1, -9.5, 0.1)'
p610
(dp611
(F1.0
F-9.5
F0.1
tp612
F1.0
ssS'(0.2, -9.6, 0.1), (0.1, -9.6, 0.1), (0.0, -9.6, 0.1)'
p613
(dp614
(F-0.1
F-9.6
F0.1
tp615
F1.0
ssS'(1.7, -9.4, 0.2), (1.7, -9.4, 0.1), (1.6, -9.4, 0.1)'
p616
(dp617
(F1.5
F-9.4
F0.1
tp618
F1.0
ssS'(2.0, -3.2, 0.7), (2.0, -3.3, 0.7), (2.0, -3.4, 0.7)'
p619
(dp620
(F2.0
F-3.5
F0.7
tp621
F1.0
ssS'(1.6, -9.4, 0.1), (1.5, -9.4, 0.1), (1.4, -9.4, 0.1)'
p622
(dp623
(F1.3
F-9.4
F0.1
tp624
F1.0
ssS'(1.7, -0.2, 0.9), (1.7, -0.2, 0.8), (1.7, -0.2, 0.7)'
p625
(dp626
(F1.7
F-0.2
F0.8
tp627
F1.0
ssS'(-3.7, -9.9, -0.4), (-3.7, -9.9, -0.5), (-3.7, -9.9, -0.6)'
p628
(dp629
(F-3.7
F-9.9
F-0.7
tp630
F1.0
ssS'(1.9, -2.3, 0.7), (1.9, -2.4, 0.7), (1.9, -2.5, 0.7)'
p631
(dp632
(F1.9
F-2.6
F0.7
tp633
F1.0
ssS'(1.9, -7.2, 0.7), (1.9, -7.3, 0.7), (1.9, -7.4, 0.7)'
p634
(dp635
(F1.9
F-7.5
F0.7
tp636
F1.0
ssS'(1.9, -3.0, 0.7), (1.9, -3.1, 0.7), (2.0, -3.1, 0.7)'
p637
(dp638
(F2.0
F-3.2
F0.7
tp639
F1.0
ssS'(1.8, -0.9, 0.7), (1.8, -1.0, 0.7), (1.8, -1.1, 0.7)'
p640
(dp641
(F1.8
F-1.2
F0.7
tp642
F1.0
ssS'(-3.7, -9.9, -0.7), (-3.7, -9.8, -0.7), (-3.8, -9.8, -0.7)'
p643
(dp644
(F-3.8
F-9.7
F-0.7
tp645
F1.0
ssS'(0.9, -9.5, 0.1), (0.8, -9.5, 0.1), (0.7, -9.5, 0.1)'
p646
(dp647
(F0.6
F-9.5
F0.1
tp648
F1.0
ssS'(-4.0, -3.1, -0.7), (-4.0, -3.0, -0.7), (-3.9, -3.0, -0.7)'
p649
(dp650
(F-3.9
F-2.9
F-0.7
tp651
F1.0
ssS'(0.5, -9.6, 0.1), (0.4, -9.6, 0.1), (0.3, -9.6, 0.1)'
p652
(dp653
(F0.2
F-9.6
F0.1
tp654
F1.0
ssS'(-4.0, -6.0, -0.7), (-4.0, -5.9, -0.7), (-4.0, -5.8, -0.7)'
p655
(dp656
(F-4.0
F-5.7
F-0.7
tp657
F1.0
ssS'(-4.0, -3.2, -0.7), (-4.0, -3.1, -0.7), (-4.0, -3.0, -0.7)'
p658
(dp659
(F-3.9
F-3.0
F-0.7
tp660
F1.0
ssS'(-3.8, -9.0, -0.7), (-3.8, -8.9, -0.7), (-3.9, -8.9, -0.7)'
p661
(dp662
(F-3.9
F-8.8
F-0.7
tp663
F1.0
ssS'(1.8, -9.1, 0.7), (1.8, -9.2, 0.7), (1.7, -9.2, 0.7)'
p664
(dp665
(F1.7
F-9.3
F0.7
tp666
F1.0
ssS'(1.7, -9.4, 0.5), (1.7, -9.4, 0.4), (1.7, -9.4, 0.3)'
p667
(dp668
(F1.7
F-9.4
F0.2
tp669
F1.0
ssS'(2.0, -5.7, 0.7), (2.0, -5.8, 0.7), (2.0, -5.9, 0.7)'
p670
(dp671
(F2.0
F-6.0
F0.7
tp672
F1.0
ssS'(-3.2, -9.9, 0.0), (-3.3, -9.9, 0.0), (-3.4, -9.9, 0.0)'
p673
(dp674
(F-3.5
F-9.9
F0.0
tp675
F1.0
ssS'(1.9, -6.8, 0.7), (1.9, -6.9, 0.7), (1.9, -7.0, 0.7)'
p676
(dp677
(F1.9
F-7.1
F0.7
tp678
F1.0
ssS'(-4.0, -4.6, -0.7), (-4.0, -4.5, -0.7), (-4.0, -4.4, -0.7)'
p679
(dp680
(F-4.0
F-4.3
F-0.7
tp681
F1.0
ssS'(-4.0, -7.5, -0.7), (-4.0, -7.4, -0.7), (-4.0, -7.3, -0.7)'
p682
(dp683
(F-4.0
F-7.2
F-0.7
tp684
F1.0
ssS'(-3.8, -1.0, -0.7), (-3.8, -0.9, -0.7), (-3.8, -0.8, -0.7)'
p685
(dp686
(F-3.8
F-0.7
F-0.7
tp687
F1.0
ssS'(1.9, -6.7, 0.7), (1.9, -6.8, 0.7), (1.9, -6.9, 0.7)'
p688
(dp689
(F1.9
F-7.0
F0.7
tp690
F1.0
ssS'(-3.9, -8.6, -0.7), (-3.9, -8.5, -0.7), (-3.9, -8.4, -0.7)'
p691
(dp692
(F-3.9
F-8.3
F-0.7
tp693
F1.0
ssS'(2.0, -3.5, 0.7), (2.0, -3.6, 0.7), (2.0, -3.7, 0.7)'
p694
(dp695
(F2.0
F-3.8
F0.7
tp696
F1.0
ssS'(2.0, -4.3, 0.7), (2.0, -4.4, 0.7), (2.0, -4.5, 0.7)'
p697
(dp698
(F2.0
F-4.6
F0.7
tp699
F1.0
ssS'(-3.8, -1.7, -0.7), (-3.8, -1.6, -0.7), (-3.8, -1.5, -0.7)'
p700
(dp701
(F-3.8
F-1.4
F-0.7
tp702
F1.0
ssS'(-1.7, -9.8, 0.0), (-1.8, -9.8, 0.0), (-1.9, -9.8, 0.0)'
p703
(dp704
(F-2.0
F-9.8
F0.0
tp705
F1.0
ssS'(-3.7, -9.9, -0.1), (-3.7, -9.9, -0.2), (-3.7, -9.9, -0.3)'
p706
(dp707
(F-3.7
F-9.9
F-0.4
tp708
F1.0
ssS'(-1.5, -9.8, 0.0), (-1.6, -9.8, 0.0), (-1.7, -9.8, 0.0)'
p709
(dp710
(F-1.8
F-9.8
F0.0
tp711
F1.0
ssS'(2.0, -6.3, 0.7), (2.0, -6.4, 0.7), (2.0, -6.5, 0.7)'
p712
(dp713
(F2.0
F-6.6
F0.7
tp714
F1.0
ssS'(-3.7, -9.9, 0.0), (-3.7, -9.9, -0.1), (-3.7, -9.9, -0.2)'
p715
(dp716
(F-3.7
F-9.9
F-0.3
tp717
F1.0
ssS'(-4.0, -5.0, -0.7), (-4.0, -4.9, -0.7), (-4.0, -4.8, -0.7)'
p718
(dp719
(F-4.0
F-4.7
F-0.7
tp720
F1.0
ssS'(2.0, -6.5, 0.7), (2.0, -6.6, 0.7), (1.9, -6.6, 0.7)'
p721
(dp722
(F1.9
F-6.7
F0.7
tp723
F1.0
ssS'(1.9, -2.8, 0.7), (1.9, -2.9, 0.7), (1.9, -3.0, 0.7)'
p724
(dp725
(F1.9
F-3.1
F0.7
tp726
F1.0
ssS'(-0.3, -9.6, 0.1), (-0.3, -9.7, 0.1), (-0.4, -9.7, 0.1)'
p727
(dp728
(F-0.4
F-9.7
F0.0
tp729
F1.0
ssS'(1.5, -9.4, 0.1), (1.4, -9.4, 0.1), (1.3, -9.4, 0.1)'
p730
(dp731
(F1.3
F-9.5
F0.1
tp732
F1.0
ssS'(2.0, -6.0, 0.7), (2.0, -6.1, 0.7), (2.0, -6.2, 0.7)'
p733
(dp734
(F2.0
F-6.3
F0.7
tp735
F1.0
ssS'(1.7, -0.4, 0.7), (1.7, -0.5, 0.7), (1.8, -0.5, 0.7)'
p736
(dp737
(F1.8
F-0.6
F0.7
tp738
F1.0
ssS'(-4.0, -5.5, -0.7), (-4.0, -5.4, -0.7), (-4.0, -5.3, -0.7)'
p739
(dp740
(F-4.0
F-5.2
F-0.7
tp741
F1.0
ssS'(-1.8, -9.8, 0.0), (-1.9, -9.8, 0.0), (-2.0, -9.8, 0.0)'
p742
(dp743
(F-2.1
F-9.8
F0.0
tp744
F1.0
ssS'(1.9, -2.9, 0.7), (1.9, -3.0, 0.7), (1.9, -3.1, 0.7)'
p745
(dp746
(F2.0
F-3.1
F0.7
tp747
F1.0
ssS'(-1.3, -9.7, 0.0), (-1.4, -9.7, 0.0), (-1.4, -9.8, 0.0)'
p748
(dp749
(F-1.5
F-9.8
F0.0
tp750
F1.0
ssS'(-4.0, -6.8, -0.7), (-4.0, -6.7, -0.7), (-4.0, -6.6, -0.7)'
p751
(dp752
(F-4.0
F-6.5
F-0.7
tp753
F1.0
ssS'(-3.9, -2.7, -0.7), (-3.9, -2.6, -0.7), (-3.9, -2.5, -0.7)'
p754
(dp755
(F-3.9
F-2.4
F-0.7
tp756
F1.0
ssS'(1.9, -1.7, 0.7), (1.9, -1.8, 0.7), (1.9, -1.9, 0.7)'
p757
(dp758
(F1.9
F-2.0
F0.7
tp759
F1.0
ssS'(-3.8, -0.8, -0.7), (-3.8, -0.7, -0.7), (-3.8, -0.7, -0.8)'
p760
(dp761
(F-3.8
F-0.7
F-0.7
tp762
F1.0
ssS'(-3.9, -2.1, -0.7), (-3.9, -2.0, -0.7), (-3.9, -1.9, -0.7)'
p763
(dp764
(F-3.9
F-1.8
F-0.7
tp765
F1.0
ssS'(-1.2, -9.7, 0.0), (-1.3, -9.7, 0.0), (-1.4, -9.7, 0.0)'
p766
(dp767
(F-1.4
F-9.8
F0.0
tp768
F1.0
ssS'(2.0, -3.6, 0.7), (2.0, -3.7, 0.7), (2.0, -3.8, 0.7)'
p769
(dp770
(F2.0
F-3.9
F0.7
tp771
F1.0
ssS'(2.0, -5.4, 0.7), (2.0, -5.5, 0.7), (2.0, -5.6, 0.7)'
p772
(dp773
(F2.0
F-5.7
F0.7
tp774
F1.0
ssS'(-4.0, -4.2, -0.7), (-4.0, -4.1, -0.7), (-4.0, -4.0, -0.7)'
p775
(dp776
(F-4.0
F-3.9
F-0.7
tp777
F1.0
ssS'(-3.9, -8.7, -0.7), (-3.9, -8.6, -0.7), (-3.9, -8.5, -0.7)'
p778
(dp779
(F-3.9
F-8.4
F-0.7
tp780
F1.0
ssS'(-3.9, -7.9, -0.7), (-3.9, -7.8, -0.7), (-3.9, -7.7, -0.7)'
p781
(dp782
(F-3.9
F-7.6
F-0.7
tp783
F1.0
ssS'(1.9, -7.8, 0.7), (1.9, -7.9, 0.7), (1.9, -8.0, 0.7)'
p784
(dp785
(F1.9
F-8.1
F0.7
tp786
F1.0
ssS'(-3.8, -1.2, -0.7), (-3.8, -1.1, -0.7), (-3.8, -1.0, -0.7)'
p787
(dp788
(F-3.8
F-0.9
F-0.7
tp789
F1.0
ssS'(1.9, -6.9, 0.7), (1.9, -7.0, 0.7), (1.9, -7.1, 0.7)'
p790
(dp791
(F1.9
F-7.2
F0.7
tp792
F1.0
ssS'(-4.0, -4.5, -0.7), (-4.0, -4.4, -0.7), (-4.0, -4.3, -0.7)'
p793
(dp794
(F-4.0
F-4.2
F-0.7
tp795
F1.0
ssS'(1.8, -0.5, 0.7), (1.8, -0.6, 0.7), (1.8, -0.7, 0.7)'
p796
(dp797
(F1.8
F-0.8
F0.7
tp798
F1.0
ssS'(-4.0, -3.3, -0.7), (-4.0, -3.2, -0.7), (-4.0, -3.1, -0.7)'
p799
(dp800
(F-4.0
F-3.0
F-0.7
tp801
F1.0
ssS'(2.0, -3.8, 0.7), (2.0, -3.9, 0.7), (2.0, -4.0, 0.7)'
p802
(dp803
(F2.0
F-4.1
F0.7
tp804
F1.0
ssS'(1.5, -0.2, 1.0), (1.6, -0.2, 1.0), (1.7, -0.2, 1.0)'
p805
(dp806
(F1.7
F-0.2
F0.9
tp807
F1.0
ssS'(-3.9, -3.0, -0.7), (-3.9, -2.9, -0.7), (-3.9, -2.8, -0.7)'
p808
(dp809
(F-3.9
F-2.7
F-0.7
tp810
F1.0
ssS'(2.0, -4.9, 0.7), (2.0, -5.0, 0.7), (2.0, -5.1, 0.7)'
p811
(dp812
(F2.0
F-5.2
F0.7
tp813
F1.0
ssS'(-3.8, -0.9, -0.7), (-3.8, -0.8, -0.7), (-3.8, -0.7, -0.7)'
p814
(dp815
(F-3.8
F-0.7
F-0.8
tp816
F1.0
ssS'(-4.0, -3.7, -0.7), (-4.0, -3.6, -0.7), (-4.0, -3.5, -0.7)'
p817
(dp818
(F-4.0
F-3.4
F-0.7
tp819
F1.0
ssS'(-2.8, -9.8, 0.0), (-2.9, -9.8, 0.0), (-3.0, -9.8, 0.0)'
p820
(dp821
(F-3.1
F-9.8
F0.0
tp822
F1.0
ssS'(1.3, -9.4, 0.1), (1.3, -9.5, 0.1), (1.2, -9.5, 0.1)'
p823
(dp824
(F1.1
F-9.5
F0.1
tp825
F1.0
ss.