(dp0
S'(-1.2, -9.6, 0.0), (-1.3, -9.6, 0.0), (-1.4, -9.6, 0.0)'
p1
(dp2
(F-1.4
F-9.7
F0.0
tp3
F0.25
s(F-1.5
F-9.6
F0.0
tp4
F0.75
ssS'(1.6, -9.4, 0.5), (1.6, -9.4, 0.4), (1.6, -9.4, 0.3)'
p5
(dp6
(F1.6
F-9.4
F0.2
tp7
F1.0
ssS'(-3.8, -9.8, -0.2), (-3.8, -9.8, -0.3), (-3.8, -9.8, -0.4)'
p8
(dp9
(F-3.8
F-9.8
F-0.5
tp10
F1.0
ssS'(-3.8, -0.9, -0.7), (-3.8, -0.8, -0.7), (-3.7, -0.8, -0.7)'
p11
(dp12
(F-3.7
F-0.7
F-0.7
tp13
F1.0
ssS'(1.8, -2.0, 0.7), (1.8, -2.1, 0.7), (1.8, -2.2, 0.7)'
p14
(dp15
(F1.9
F-2.2
F0.7
tp16
F0.3333333333333333
s(F1.8
F-2.3
F0.7
tp17
F0.6666666666666666
ssS'(-3.9, -1.6, -0.7), (-3.9, -1.5, -0.7), (-3.8, -1.5, -0.7)'
p18
(dp19
(F-3.8
F-1.4
F-0.7
tp20
F1.0
ssS'(1.9, -5.1, 0.7), (1.9, -5.2, 0.7), (1.9, -5.3, 0.7)'
p21
(dp22
(F1.9
F-5.4
F0.7
tp23
F0.75
s(F1.8
F-5.3
F0.7
tp24
F0.25
ssS'(1.6, -8.8, 0.7), (1.6, -8.9, 0.7), (1.6, -9.0, 0.7)'
p25
(dp26
(F1.6
F-9.1
F0.7
tp27
F1.0
ssS'(-4.0, -4.9, -0.7), (-4.0, -4.8, -0.7), (-4.0, -4.7, -0.7)'
p28
(dp29
(F-4.0
F-4.6
F-0.7
tp30
F1.0
ssS'(1.7, -9.3, 0.7), (1.7, -9.3, 0.6), (1.7, -9.3, 0.5)'
p31
(dp32
(F1.7
F-9.3
F0.4
tp33
F1.0
ssS'(-3.8, -9.7, -0.7), (-3.9, -9.7, -0.7), (-3.9, -9.6, -0.7)'
p34
(dp35
(F-3.9
F-9.5
F-0.7
tp36
F1.0
ssS'(-3.7, -1.9, -0.7), (-3.7, -1.8, -0.7), (-3.7, -1.7, -0.7)'
p37
(dp38
(F-3.7
F-1.6
F-0.7
tp39
F1.0
ssS'(-3.8, -1.5, -0.7), (-3.8, -1.4, -0.7), (-3.8, -1.3, -0.7)'
p40
(dp41
(F-3.8
F-1.2
F-0.7
tp42
F1.0
ssS'(-3.1, -9.8, 0.0), (-3.1, -9.9, 0.0), (-3.2, -9.9, 0.0)'
p43
(dp44
(F-3.3
F-9.9
F0.0
tp45
F1.0
ssS'(1.9, -3.6, 0.7), (1.9, -3.7, 0.7), (1.9, -3.8, 0.7)'
p46
(dp47
(F2.0
F-3.8
F0.7
tp48
F0.2
s(F1.9
F-3.9
F0.7
tp49
F0.8
ssS'(-3.7, -8.9, -0.7), (-3.7, -8.8, -0.7), (-3.7, -8.7, -0.7)'
p50
(dp51
(F-3.7
F-8.6
F-0.7
tp52
F1.0
ssS'(1.0, -9.5, 0.1), (0.9, -9.5, 0.1), (0.8, -9.5, 0.1)'
p53
(dp54
(F0.7
F-9.5
F0.1
tp55
F1.0
ssS'(-0.5, -9.6, 0.1), (-0.5, -9.7, 0.1), (-0.6, -9.7, 0.1)'
p56
(dp57
(F-0.7
F-9.7
F0.1
tp58
F1.0
ssS'(1.2, -9.4, 0.1), (1.2, -9.5, 0.1), (1.1, -9.5, 0.1)'
p59
(dp60
(F1.0
F-9.5
F0.1
tp61
F1.0
ssS'(-4.0, -7.1, -0.7), (-4.0, -7.0, -0.7), (-4.0, -6.9, -0.7)'
p62
(dp63
(F-4.0
F-6.8
F-0.7
tp64
F1.0
ssS'(-3.6, -0.6, -0.8), (0.1, 0.0, 1.0), (0.2, 0.0, 1.0)'
p65
(dp66
(F0.3
F-0.0
F1.0
tp67
F1.0
ssS'(-2.9, -9.8, 0.0), (-3.0, -9.8, 0.0), (-3.1, -9.8, 0.0)'
p68
(dp69
(F-3.1
F-9.9
F0.0
tp70
F0.14285714285714285
s(F-3.2
F-9.8
F0.0
tp71
F0.8571428571428571
ssS'(-3.6, -9.4, -0.7), (-3.7, -9.4, -0.7), (-3.7, -9.3, -0.7)'
p72
(dp73
(F-3.7
F-9.2
F-0.7
tp74
F1.0
ssS'(1.8, -9.4, 0.6), (1.8, -9.4, 0.5), (1.8, -9.4, 0.4)'
p75
(dp76
(F1.8
F-9.4
F0.3
tp77
F1.0
ssS'(1.2, -9.4, 0.1), (1.1, -9.4, 0.1), (1.0, -9.4, 0.1)'
p78
(dp79
(F0.9
F-9.4
F0.1
tp80
F0.625
s(F1.0
F-9.5
F0.1
tp81
F0.375
ssS'(-3.7, -9.6, -0.7), (-3.7, -9.5, -0.7), (-3.8, -9.5, -0.7)'
p82
(dp83
(F-3.8
F-9.4
F-0.7
tp84
F1.0
ssS'(-4.0, -7.0, -0.7), (-4.0, -6.9, -0.7), (-4.0, -6.8, -0.7)'
p85
(dp86
(F-4.0
F-6.7
F-0.7
tp87
F1.0
ssS'(-4.1, -4.5, -0.7), (-4.1, -4.4, -0.7), (-4.1, -4.3, -0.7)'
p88
(dp89
(F-4.1
F-4.2
F-0.7
tp90
F1.0
ssS'(2.0, -5.1, 0.7), (2.0, -5.2, 0.7), (2.0, -5.3, 0.7)'
p91
(dp92
(F2.0
F-5.4
F0.7
tp93
F1.0
ssS'(2.0, -4.8, 0.7), (2.0, -4.9, 0.7), (2.0, -5.0, 0.7)'
p94
(dp95
(F2.0
F-5.1
F0.7
tp96
F1.0
ssS'(-3.6, -1.2, -0.8), (-3.6, -1.1, -0.8), (-3.6, -1.0, -0.8)'
p97
(dp98
(F-3.6
F-0.9
F-0.8
tp99
F1.0
ssS'(-3.6, -0.9, -0.7), (-3.6, -0.9, -0.8), (-3.6, -0.8, -0.8)'
p100
(dp101
(F-3.6
F-0.7
F-0.8
tp102
F1.0
ssS'(-3.8, -2.7, -0.7), (-3.8, -2.6, -0.7), (-3.8, -2.5, -0.7)'
p103
(dp104
(F-3.7
F-2.5
F-0.7
tp105
F0.2857142857142857
s(F-3.8
F-2.4
F-0.7
tp106
F0.7142857142857143
ssS'(1.8, -1.3, 0.7), (1.8, -1.4, 0.7), (1.8, -1.5, 0.7)'
p107
(dp108
(F1.9
F-1.5
F0.7
tp109
F0.2
s(F1.8
F-1.6
F0.7
tp110
F0.8
ssS'(-3.9, -6.1, -0.7), (-3.9, -6.0, -0.7), (-3.9, -5.9, -0.7)'
p111
(dp112
(F-3.9
F-5.8
F-0.7
tp113
F1.0
ssS'(-3.9, -1.3, -0.7), (-3.9, -1.2, -0.7), (-3.9, -1.1, -0.7)'
p114
(dp115
(F-3.9
F-1.0
F-0.7
tp116
F1.0
ssS'(-3.9, -3.6, -0.7), (-3.9, -3.5, -0.7), (-3.9, -3.4, -0.7)'
p117
(dp118
(F-3.8
F-3.4
F-0.7
tp119
F0.2
s(F-3.9
F-3.3
F-0.7
tp120
F0.8
ssS'(2.0, -8.2, 0.7), (1.9, -8.2, 0.7), (1.9, -8.3, 0.7)'
p121
(dp122
(F1.9
F-8.4
F0.7
tp123
F1.0
ssS'(1.8, -1.5, 0.7), (1.8, -1.6, 0.7), (1.9, -1.6, 0.7)'
p124
(dp125
(F1.9
F-1.7
F0.7
tp126
F1.0
ssS'(1.7, -0.2, 0.7), (1.7, -0.3, 0.7), (1.8, -0.3, 0.7)'
p127
(dp128
(F1.8
F-0.4
F0.7
tp129
F1.0
ssS'(1.8, -0.4, 0.7), (1.8, -0.5, 0.7), (1.8, -0.6, 0.7)'
p130
(dp131
(F1.8
F-0.7
F0.7
tp132
F1.0
ssS'(-3.7, -9.7, -0.0), (-3.8, -9.7, -0.0), (-3.9, -9.7, -0.0)'
p133
(dp134
(F-4.0
F-9.7
F-0.0
tp135
F1.0
ssS'(1.9, -2.2, 0.7), (1.9, -2.3, 0.7), (1.9, -2.4, 0.7)'
p136
(dp137
(F1.9
F-2.5
F0.7
tp138
F1.0
ssS'(-4.1, -5.3, -0.7), (-4.1, -5.2, -0.7), (-4.1, -5.1, -0.7)'
p139
(dp140
(F-4.1
F-5.0
F-0.7
tp141
F1.0
ssS'(1.8, -2.2, 0.7), (1.8, -2.3, 0.7), (1.8, -2.4, 0.7)'
p142
(dp143
(F1.8
F-2.5
F0.7
tp144
F1.0
ssS'(-3.9, -3.4, -0.7), (-3.9, -3.3, -0.7), (-3.8, -3.3, -0.7)'
p145
(dp146
(F-3.8
F-3.2
F-0.7
tp147
F1.0
ssS'(-4.0, -3.2, -0.7), (-4.0, -3.1, -0.7), (-4.0, -3.0, -0.7)'
p148
(dp149
(F-4.0
F-2.9
F-0.7
tp150
F0.8
s(F-3.9
F-3.0
F-0.7
tp151
F0.2
ssS'(1.9, -3.3, 0.7), (2.0, -3.3, 0.7), (2.0, -3.4, 0.7)'
p152
(dp153
(F2.0
F-3.5
F0.7
tp154
F1.0
ssS'(1.9, -5.0, 0.7), (1.9, -5.1, 0.7), (1.9, -5.2, 0.7)'
p155
(dp156
(F1.9
F-5.3
F0.7
tp157
F1.0
ssS'(2.0, -7.6, 0.7), (2.0, -7.7, 0.7), (2.0, -7.8, 0.7)'
p158
(dp159
(F2.0
F-7.9
F0.7
tp160
F1.0
ssS'(-3.7, -1.2, -0.8), (-3.7, -1.1, -0.8), (-3.7, -1.0, -0.8)'
p161
(dp162
(F-3.7
F-0.9
F-0.8
tp163
F1.0
ssS'(-1.0, -9.6, 0.0), (-1.0, -9.7, 0.0), (-1.1, -9.7, 0.0)'
p164
(dp165
(F-1.2
F-9.7
F0.0
tp166
F1.0
ssS'(1.7, -7.1, 0.7), (1.7, -7.2, 0.7), (1.7, -7.3, 0.7)'
p167
(dp168
(F1.7
F-7.4
F0.7
tp169
F1.0
ssS'(2.0, -7.3, 0.7), (2.0, -7.4, 0.7), (2.0, -7.5, 0.7)'
p170
(dp171
(F2.0
F-7.6
F0.7
tp172
F1.0
ssS'(2.0, -5.6, 0.7), (2.0, -5.7, 0.7), (2.0, -5.8, 0.7)'
p173
(dp174
(F2.0
F-5.9
F0.7
tp175
F1.0
ssS'(1.8, -9.3, 0.4), (1.8, -9.3, 0.3), (1.8, -9.3, 0.2)'
p176
(dp177
(F1.8
F-9.3
F0.1
tp178
F1.0
ssS'(2.0, -3.1, 0.7), (2.0, -3.2, 0.7), (2.0, -3.3, 0.7)'
p179
(dp180
(F2.0
F-3.4
F0.7
tp181
F1.0
ssS'(-3.5, -0.6, -0.8), (0.1, 0.0, 1.0), (0.2, 0.0, 1.0)'
p182
(dp183
(F0.3
F-0.0
F1.0
tp184
F1.0
ssS'(-4.0, -2.9, -0.7), (-4.0, -2.8, -0.7), (-3.9, -2.8, -0.7)'
p185
(dp186
(F-3.9
F-2.7
F-0.7
tp187
F1.0
ssS'(-3.8, -7.8, -0.7), (-3.9, -7.8, -0.7), (-3.9, -7.7, -0.7)'
p188
(dp189
(F-3.9
F-7.6
F-0.7
tp190
F1.0
ssS'(1.8, -6.8, 0.7), (1.8, -6.9, 0.7), (1.8, -7.0, 0.7)'
p191
(dp192
(F1.8
F-7.1
F0.7
tp193
F1.0
ssS'(1.8, -8.3, 0.7), (1.8, -8.4, 0.7), (1.8, -8.5, 0.7)'
p194
(dp195
(F1.8
F-8.6
F0.7
tp196
F1.0
ssS'(1.7, -9.3, 0.4), (1.7, -9.3, 0.3), (1.7, -9.3, 0.2)'
p197
(dp198
(F1.7
F-9.3
F0.1
tp199
F1.0
ssS'(-4.0, -6.5, -0.7), (-4.0, -6.4, -0.7), (-4.0, -6.3, -0.7)'
p200
(dp201
(F-4.0
F-6.2
F-0.7
tp202
F1.0
ssS'(2.0, -7.1, 0.7), (1.9, -7.1, 0.7), (1.9, -7.2, 0.7)'
p203
(dp204
(F1.9
F-7.3
F0.7
tp205
F1.0
ssS'(2.0, -5.6, 0.7), (1.9, -5.6, 0.7), (1.9, -5.7, 0.7)'
p206
(dp207
(F1.9
F-5.8
F0.7
tp208
F1.0
ssS'(1.9, -9.1, 0.7), (1.9, -9.2, 0.7), (1.9, -9.3, 0.7)'
p209
(dp210
(F1.9
F-9.3
F0.6
tp211
F0.75
s(F1.8
F-9.3
F0.7
tp212
F0.25
ssS'(2.0, -5.2, 0.7), (2.0, -5.3, 0.7), (2.0, -5.4, 0.7)'
p213
(dp214
(F1.9
F-5.4
F0.7
tp215
F0.09090909090909091
s(F2.0
F-5.5
F0.7
tp216
F0.9090909090909091
ssS'(1.8, -1.1, 0.7), (1.8, -1.2, 0.7), (1.8, -1.3, 0.7)'
p217
(dp218
(F1.8
F-1.4
F0.7
tp219
F1.0
ssS'(1.7, -0.6, 0.8), (1.7, -0.6, 0.7), (1.7, -0.7, 0.7)'
p220
(dp221
(F1.8
F-0.7
F0.7
tp222
F1.0
ssS'(-3.6, -0.6, -0.7), (-3.6, -0.6, -0.8), (0.1, 0.0, 1.0)'
p223
(dp224
(F0.2
F0.0
F1.0
tp225
F1.0
ssS'(-1.3, -9.8, 0.0), (-1.4, -9.8, 0.0), (-1.5, -9.8, 0.0)'
p226
(dp227
(F-1.6
F-9.8
F0.0
tp228
F1.0
ssS'(1.9, -7.5, 0.7), (1.9, -7.6, 0.7), (1.9, -7.7, 0.7)'
p229
(dp230
(F1.9
F-7.8
F0.7
tp231
F1.0
ssS'(1.8, -5.3, 0.7), (1.8, -5.4, 0.7), (1.8, -5.5, 0.7)'
p232
(dp233
(F1.8
F-5.6
F0.7
tp234
F1.0
ssS'(-3.9, -9.2, -0.7), (-3.9, -9.1, -0.7), (-3.9, -9.0, -0.7)'
p235
(dp236
(F-3.9
F-8.9
F-0.7
tp237
F1.0
ssS'(-0.1, -9.6, 0.0), (-0.2, -9.6, 0.0), (-0.3, -9.6, 0.0)'
p238
(dp239
(F-0.4
F-9.6
F0.0
tp240
F1.0
ssS'(0.4, -9.5, 0.1), (0.3, -9.5, 0.1), (0.3, -9.6, 0.1)'
p241
(dp242
(F0.2
F-9.6
F0.1
tp243
F1.0
ssS'(1.8, -5.4, 0.7), (1.8, -5.5, 0.7), (1.8, -5.6, 0.7)'
p244
(dp245
(F1.8
F-5.7
F0.7
tp246
F1.0
ssS'(1.7, -0.3, 0.7), (1.7, -0.4, 0.7), (1.8, -0.4, 0.7)'
p247
(dp248
(F1.8
F-0.5
F0.7
tp249
F1.0
ssS'(-3.7, -9.5, -0.7), (-3.7, -9.4, -0.7), (-3.8, -9.4, -0.7)'
p250
(dp251
(F-3.8
F-9.3
F-0.7
tp252
F1.0
ssS'(-4.1, -3.7, -0.7), (-4.0, -3.7, -0.7), (-4.0, -3.6, -0.7)'
p253
(dp254
(F-4.0
F-3.5
F-0.7
tp255
F1.0
ssS'(-3.9, -0.8, -0.7), (-3.8, -0.8, -0.7), (-3.8, -0.7, -0.7)'
p256
(dp257
(F-3.8
F-0.6
F-0.7
tp258
F1.0
ssS'(-4.1, -8.4, -0.7), (-4.1, -8.3, -0.7), (-4.1, -8.2, -0.7)'
p259
(dp260
(F-4.1
F-8.1
F-0.7
tp261
F1.0
ssS'(1.9, -2.4, 0.7), (1.9, -2.5, 0.7), (1.9, -2.6, 0.7)'
p262
(dp263
(F1.9
F-2.7
F0.7
tp264
F0.8333333333333334
s(F2.0
F-2.6
F0.7
tp265
F0.16666666666666666
ssS'(2.0, -8.3, 0.7), (2.0, -8.4, 0.7), (1.9, -8.4, 0.7)'
p266
(dp267
(F1.9
F-8.5
F0.7
tp268
F1.0
ssS'(-3.7, -0.6, -0.8), (0.1, 0.0, 1.0), (0.2, 0.0, 1.0)'
p269
(dp270
(F0.3
F-0.0
F1.0
tp271
F1.0
ssS'(-4.1, -4.6, -0.7), (-4.1, -4.5, -0.7), (-4.1, -4.4, -0.7)'
p272
(dp273
(F-4.1
F-4.3
F-0.7
tp274
F1.0
ssS'(1.8, -8.7, 0.7), (1.8, -8.8, 0.7), (1.8, -8.9, 0.7)'
p275
(dp276
(F1.8
F-9.0
F0.7
tp277
F1.0
ssS'(-4.1, -5.9, -0.7), (-4.1, -5.8, -0.7), (-4.1, -5.7, -0.7)'
p278
(dp279
(F-4.1
F-5.6
F-0.7
tp280
F1.0
ssS'(-3.6, -1.4, -0.7), (-3.6, -1.3, -0.7), (-3.6, -1.3, -0.8)'
p281
(dp282
(F-3.6
F-1.2
F-0.8
tp283
F1.0
ssS'(-1.1, -9.7, 0.0), (-1.2, -9.7, 0.0), (-1.2, -9.8, 0.0)'
p284
(dp285
(F-1.3
F-9.8
F0.0
tp286
F1.0
ssS'(-4.1, -7.1, -0.7), (-4.1, -7.0, -0.7), (-4.1, -6.9, -0.7)'
p287
(dp288
(F-4.1
F-6.8
F-0.7
tp289
F1.0
ssS'(-3.6, -9.8, 0.0), (-3.7, -9.8, 0.0), (-3.7, -9.8, -0.1)'
p290
(dp291
(F-3.7
F-9.8
F-0.2
tp292
F1.0
ssS'(-3.6, -9.9, -0.5), (-3.6, -9.9, -0.6), (-3.6, -9.9, -0.7)'
p293
(dp294
(F-3.6
F-9.8
F-0.7
tp295
F1.0
ssS'(-3.8, -9.8, -0.7), (-3.8, -9.7, -0.7), (-3.8, -9.6, -0.7)'
p296
(dp297
(F-3.8
F-9.5
F-0.7
tp298
F1.0
ssS'(-2.4, -9.8, 0.0), (-2.5, -9.8, 0.0), (-2.6, -9.8, 0.0)'
p299
(dp300
(F-2.7
F-9.8
F0.0
tp301
F1.0
ssS'(-4.1, -8.5, -0.7), (-4.1, -8.4, -0.7), (-4.1, -8.3, -0.7)'
p302
(dp303
(F-4.1
F-8.2
F-0.7
tp304
F1.0
ssS'(-0.9, -9.6, 0.0), (-1.0, -9.6, 0.0), (-1.0, -9.7, 0.0)'
p305
(dp306
(F-1.1
F-9.7
F0.0
tp307
F1.0
ssS'(-4.0, -2.4, -0.7), (-4.0, -2.3, -0.7), (-4.0, -2.2, -0.7)'
p308
(dp309
(F-4.0
F-2.1
F-0.7
tp310
F1.0
ssS'(1.9, -8.1, 0.7), (1.9, -8.2, 0.7), (1.9, -8.3, 0.7)'
p311
(dp312
(F1.9
F-8.4
F0.7
tp313
F1.0
ssS'(-4.0, -4.0, -0.7), (-4.0, -3.9, -0.7), (-4.0, -3.8, -0.7)'
p314
(dp315
(F-4.0
F-3.7
F-0.7
tp316
F1.0
ssS'(-3.5, -9.9, 0.0), (-3.6, -9.9, 0.0), (-3.7, -9.9, 0.0)'
p317
(dp318
(F-3.7
F-9.9
F-0.1
tp319
F1.0
ssS'(-1.4, -9.6, 0.0), (-1.5, -9.6, 0.0), (-1.6, -9.6, 0.0)'
p320
(dp321
(F-1.6
F-9.7
F0.0
tp322
F1.0
ssS'(-3.9, -5.5, -0.7), (-3.9, -5.4, -0.7), (-3.9, -5.3, -0.7)'
p323
(dp324
(F-3.9
F-5.2
F-0.7
tp325
F1.0
ssS'(1.9, -6.9, 0.7), (1.9, -7.0, 0.7), (1.9, -7.1, 0.7)'
p326
(dp327
(F1.9
F-7.2
F0.7
tp328
F0.8333333333333334
s(F1.8
F-7.1
F0.7
tp329
F0.16666666666666666
ssS'(-0.2, -9.6, 0.0), (-0.3, -9.6, 0.0), (-0.4, -9.6, 0.0)'
p330
(dp331
(F-0.5
F-9.6
F0.0
tp332
F1.0
ssS'(-3.8, -1.2, -0.8), (-3.8, -1.1, -0.8), (-3.8, -1.0, -0.8)'
p333
(dp334
(F-3.8
F-0.9
F-0.8
tp335
F1.0
ssS'(-4.1, -4.8, -0.7), (-4.1, -4.7, -0.7), (-4.1, -4.6, -0.7)'
p336
(dp337
(F-4.1
F-4.5
F-0.7
tp338
F1.0
ssS'(-3.9, -9.8, -0.4), (-3.9, -9.8, -0.5), (-3.9, -9.8, -0.6)'
p339
(dp340
(F-3.9
F-9.8
F-0.7
tp341
F1.0
ssS'(-3.6, -9.8, 0.0), (-3.6, -9.8, -0.1), (-3.6, -9.8, -0.2)'
p342
(dp343
(F-3.6
F-9.8
F-0.3
tp344
F1.0
ssS'(-3.8, -0.6, -0.7), (-3.8, -0.6, -0.8), (0.1, 0.0, 1.0)'
p345
(dp346
(F0.2
F0.0
F1.0
tp347
F1.0
ssS'(1.7, -0.3, 0.8), (1.7, -0.4, 0.8), (1.7, -0.4, 0.7)'
p348
(dp349
(F1.7
F-0.5
F0.7
tp350
F1.0
ssS'(-3.9, -1.2, -0.7), (-3.9, -1.1, -0.7), (-3.9, -1.0, -0.7)'
p351
(dp352
(F-3.9
F-0.9
F-0.7
tp353
F1.0
ssS'(1.0, -9.4, 0.1), (0.9, -9.4, 0.1), (0.9, -9.5, 0.1)'
p354
(dp355
(F0.8
F-9.5
F0.1
tp356
F1.0
ssS'(1.7, -0.3, 0.7), (1.8, -0.3, 0.7), (1.8, -0.4, 0.7)'
p357
(dp358
(F1.8
F-0.5
F0.7
tp359
F1.0
ssS'(-3.9, -3.2, -0.7), (-3.8, -3.2, -0.7), (-3.8, -3.1, -0.7)'
p360
(dp361
(F-3.8
F-3.0
F-0.7
tp362
F1.0
ssS'(-3.5, -0.6, -0.8), (-3.5, -0.5, -0.8), (0.1, 0.0, 1.0)'
p363
(dp364
(F0.2
F0.0
F1.0
tp365
F1.0
ssS'(-3.6, -1.3, -0.7), (-3.6, -1.2, -0.7), (-3.6, -1.1, -0.7)'
p366
(dp367
(F-3.6
F-1.0
F-0.7
tp368
F1.0
ssS'(-3.7, -1.6, -0.7), (-3.7, -1.5, -0.7), (-3.7, -1.4, -0.7)'
p369
(dp370
(F-3.7
F-1.3
F-0.7
tp371
F1.0
ssS'(-2.8, -9.9, 0.0), (-2.9, -9.9, 0.0), (-3.0, -9.9, 0.0)'
p372
(dp373
(F-3.1
F-9.9
F0.0
tp374
F1.0
ssS'(0.5, -9.5, 0.1), (0.5, -9.6, 0.1), (0.4, -9.6, 0.1)'
p375
(dp376
(F0.3
F-9.6
F0.1
tp377
F1.0
ssS'(-3.8, -9.6, -0.7), (-3.8, -9.5, -0.7), (-3.8, -9.4, -0.7)'
p378
(dp379
(F-3.8
F-9.3
F-0.7
tp380
F1.0
ssS'(-3.6, -9.7, -0.7), (-3.6, -9.6, -0.7), (-3.7, -9.6, -0.7)'
p381
(dp382
(F-3.7
F-9.5
F-0.7
tp383
F1.0
ssS'(-3.8, -9.7, 0.0), (-3.8, -9.7, -0.1), (-3.8, -9.7, -0.2)'
p384
(dp385
(F-3.8
F-9.7
F-0.3
tp386
F1.0
ssS'(-3.8, -1.0, -0.7), (-3.8, -0.9, -0.7), (-3.7, -0.9, -0.7)'
p387
(dp388
(F-3.7
F-0.8
F-0.7
tp389
F1.0
ssS'(1.7, -9.3, 0.1), (1.7, -9.4, 0.1), (1.6, -9.4, 0.1)'
p390
(dp391
(F1.5
F-9.4
F0.1
tp392
F1.0
ssS'(-1.8, -9.7, 0.0), (-1.9, -9.7, 0.0), (-2.0, -9.7, 0.0)'
p393
(dp394
(F-2.1
F-9.7
F0.0
tp395
F1.0
ssS'(-3.9, -6.8, -0.7), (-4.0, -6.8, -0.7), (-4.0, -6.7, -0.7)'
p396
(dp397
(F-4.0
F-6.6
F-0.7
tp398
F1.0
ssS'(-4.1, -8.6, -0.7), (-4.1, -8.5, -0.7), (-4.1, -8.4, -0.7)'
p399
(dp400
(F-4.1
F-8.3
F-0.7
tp401
F1.0
ssS'(-3.8, -1.1, -0.7), (-3.8, -1.0, -0.7), (-3.8, -0.9, -0.7)'
p402
(dp403
(F-3.8
F-0.8
F-0.7
tp404
F0.75
s(F-3.7
F-0.9
F-0.7
tp405
F0.25
ssS'(-1.9, -9.7, 0.0), (-2.0, -9.7, 0.0), (-2.1, -9.7, 0.0)'
p406
(dp407
(F-2.2
F-9.7
F0.0
tp408
F0.7777777777777778
s(F-2.1
F-9.8
F0.0
tp409
F0.2222222222222222
ssS'(1.9, -2.8, 0.7), (2.0, -2.8, 0.7), (2.0, -2.9, 0.7)'
p410
(dp411
(F2.0
F-3.0
F0.7
tp412
F1.0
ssS'(1.5, -9.4, 0.5), (1.5, -9.4, 0.4), (1.5, -9.4, 0.3)'
p413
(dp414
(F1.5
F-9.4
F0.2
tp415
F1.0
ssS'(1.9, -7.1, 0.7), (1.9, -7.2, 0.7), (1.9, -7.3, 0.7)'
p416
(dp417
(F1.9
F-7.4
F0.7
tp418
F1.0
ssS'(-4.0, -3.4, -0.7), (-4.0, -3.3, -0.7), (-4.0, -3.2, -0.7)'
p419
(dp420
(F-4.0
F-3.1
F-0.7
tp421
F1.0
ssS'(-4.1, -5.2, -0.7), (-4.1, -5.1, -0.7), (-4.1, -5.0, -0.7)'
p422
(dp423
(F-4.1
F-4.9
F-0.7
tp424
F1.0
ssS'(-3.8, -8.5, -0.7), (-3.8, -8.4, -0.7), (-3.8, -8.3, -0.7)'
p425
(dp426
(F-3.8
F-8.2
F-0.7
tp427
F1.0
ssS'(-2.9, -9.7, 0.0), (-3.0, -9.7, 0.0), (-3.0, -9.8, 0.0)'
p428
(dp429
(F-3.1
F-9.8
F0.0
tp430
F1.0
ssS'(1.6, -9.4, 0.6), (1.6, -9.4, 0.5), (1.6, -9.4, 0.4)'
p431
(dp432
(F1.6
F-9.4
F0.3
tp433
F1.0
ssS'(-3.9, -2.9, -0.7), (-3.9, -2.8, -0.7), (-3.9, -2.7, -0.7)'
p434
(dp435
(F-3.8
F-2.7
F-0.7
tp436
F0.3333333333333333
s(F-3.9
F-2.6
F-0.7
tp437
F0.6666666666666666
ssS'(-4.0, -6.3, -0.7), (-4.0, -6.2, -0.7), (-4.0, -6.1, -0.7)'
p438
(dp439
(F-4.0
F-6.0
F-0.7
tp440
F0.6666666666666666
s(F-4.1
F-6.1
F-0.7
tp441
F0.3333333333333333
ssS'(1.9, -9.2, 0.7), (1.9, -9.3, 0.7), (1.9, -9.3, 0.6)'
p442
(dp443
(F1.9
F-9.3
F0.5
tp444
F1.0
ssS'(-0.9, -9.7, 0.1), (-1.0, -9.7, 0.1), (-1.0, -9.7, 0.0)'
p445
(dp446
(F-1.1
F-9.7
F0.0
tp447
F1.0
ssS'(1.9, -1.6, 0.7), (1.9, -1.7, 0.7), (1.9, -1.8, 0.7)'
p448
(dp449
(F1.9
F-1.9
F0.7
tp450
F1.0
ssS'(0.2, -9.5, 0.1), (0.2, -9.6, 0.1), (0.1, -9.6, 0.1)'
p451
(dp452
(F0.0
F-9.6
F0.1
tp453
F1.0
ssS'(1.9, -1.4, 0.7), (1.9, -1.5, 0.7), (1.9, -1.6, 0.7)'
p454
(dp455
(F1.9
F-1.7
F0.7
tp456
F1.0
ssS'(-4.0, -2.5, -0.7), (-4.0, -2.4, -0.7), (-3.9, -2.4, -0.7)'
p457
(dp458
(F-3.9
F-2.3
F-0.7
tp459
F1.0
ssS'(-3.8, -9.5, -0.7), (-3.8, -9.4, -0.7), (-3.8, -9.3, -0.7)'
p460
(dp461
(F-3.8
F-9.2
F-0.7
tp462
F1.0
ssS'(-3.8, -9.8, -0.4), (-3.8, -9.8, -0.5), (-3.8, -9.8, -0.6)'
p463
(dp464
(F-3.8
F-9.8
F-0.7
tp465
F1.0
ssS'(1.8, -7.6, 0.7), (1.7, -7.6, 0.7), (1.7, -7.7, 0.7)'
p466
(dp467
(F1.7
F-7.8
F0.7
tp468
F1.0
ssS'(-3.9, -9.6, -0.7), (-3.9, -9.5, -0.7), (-4.0, -9.5, -0.7)'
p469
(dp470
(F-4.0
F-9.4
F-0.7
tp471
F1.0
ssS'(-3.9, -8.2, -0.7), (-3.9, -8.1, -0.7), (-3.9, -8.0, -0.7)'
p472
(dp473
(F-3.9
F-7.9
F-0.7
tp474
F1.0
ssS'(2.0, -7.9, 0.7), (2.0, -8.0, 0.7), (2.0, -8.1, 0.7)'
p475
(dp476
(F2.0
F-8.2
F0.7
tp477
F0.75
s(F1.9
F-8.1
F0.7
tp478
F0.25
ssS'(1.8, -8.6, 0.7), (1.8, -8.7, 0.7), (1.8, -8.8, 0.7)'
p479
(dp480
(F1.8
F-8.9
F0.7
tp481
F1.0
ssS'(-3.8, -1.8, -0.7), (-3.8, -1.7, -0.7), (-3.8, -1.6, -0.7)'
p482
(dp483
(F-3.8
F-1.5
F-0.7
tp484
F1.0
ssS'(0.8, -9.4, 0.1), (0.8, -9.5, 0.1), (0.7, -9.5, 0.1)'
p485
(dp486
(F0.6
F-9.5
F0.1
tp487
F1.0
ssS'(-3.9, -6.0, -0.7), (-4.0, -6.0, -0.7), (-4.0, -5.9, -0.7)'
p488
(dp489
(F-4.0
F-5.8
F-0.7
tp490
F1.0
ssS'(-3.8, -1.5, -0.7), (-3.8, -1.4, -0.7), (-3.8, -1.4, -0.8)'
p491
(dp492
(F-3.8
F-1.3
F-0.8
tp493
F1.0
ssS'(1.5, -9.4, 0.3), (1.5, -9.4, 0.2), (1.5, -9.4, 0.1)'
p494
(dp495
(F1.4
F-9.4
F0.1
tp496
F1.0
ssS'(-4.0, -2.8, -0.7), (-3.9, -2.8, -0.7), (-3.9, -2.7, -0.7)'
p497
(dp498
(F-3.9
F-2.6
F-0.7
tp499
F1.0
ssS'(-3.6, -1.5, -0.7), (-3.6, -1.4, -0.7), (-3.6, -1.3, -0.7)'
p500
(dp501
(F-3.6
F-1.2
F-0.7
tp502
F0.5
s(F-3.6
F-1.3
F-0.8
tp503
F0.5
ssS'(1.9, -2.7, 0.7), (1.9, -2.8, 0.7), (1.9, -2.9, 0.7)'
p504
(dp505
(F1.9
F-3.0
F0.7
tp506
F1.0
ssS'(-4.1, -5.4, -0.7), (-4.1, -5.3, -0.7), (-4.1, -5.2, -0.7)'
p507
(dp508
(F-4.1
F-5.1
F-0.7
tp509
F1.0
ssS'(1.8, -6.4, 0.7), (1.8, -6.5, 0.7), (1.8, -6.6, 0.7)'
p510
(dp511
(F1.8
F-6.7
F0.7
tp512
F1.0
ssS'(-3.7, -0.8, -0.7), (-3.7, -0.7, -0.7), (-3.7, -0.7, -0.8)'
p513
(dp514
(F0.1
F0.0
F1.0
tp515
F0.25
s(F-3.7
F-0.7
F-0.7
tp516
F0.5
s(F-3.7
F-0.6
F-0.8
tp517
F0.25
ssS'(-3.8, -0.7, -0.7), (-3.8, -0.6, -0.7), (-3.8, -0.6, -0.8)'
p518
(dp519
(F0.1
F0.0
F1.0
tp520
F1.0
ssS'(-2.0, -9.7, 0.0), (-2.1, -9.7, 0.0), (-2.1, -9.8, 0.0)'
p521
(dp522
(F-2.2
F-9.8
F0.0
tp523
F1.0
ssS'(1.8, -9.2, 0.7), (1.7, -9.2, 0.7), (1.7, -9.3, 0.7)'
p524
(dp525
(F1.7
F-9.3
F0.6
tp526
F1.0
ssS'(-3.9, -8.6, -0.7), (-4.0, -8.6, -0.7), (-4.0, -8.5, -0.7)'
p527
(dp528
(F-4.0
F-8.4
F-0.7
tp529
F1.0
ssS'(-3.8, -1.4, -0.8), (-3.8, -1.3, -0.8), (-3.8, -1.2, -0.8)'
p530
(dp531
(F-3.7
F-1.2
F-0.8
tp532
F1.0
ssS'(0.1, -9.5, 0.0), (0.0, -9.5, 0.0), (0.0, -9.6, 0.0)'
p533
(dp534
(F-0.1
F-9.6
F0.0
tp535
F1.0
ssS'(-3.6, -9.8, -0.6), (-3.6, -9.8, -0.7), (-3.6, -9.7, -0.7)'
p536
(dp537
(F-3.6
F-9.6
F-0.7
tp538
F1.0
ssS'(-3.9, -2.2, -0.7), (-3.9, -2.1, -0.7), (-3.9, -2.0, -0.7)'
p539
(dp540
(F-3.9
F-1.9
F-0.7
tp541
F0.8333333333333334
s(F-3.8
F-2.0
F-0.7
tp542
F0.16666666666666666
ssS'(-4.0, -3.6, -0.7), (-4.0, -3.5, -0.7), (-4.0, -3.4, -0.7)'
p543
(dp544
(F-4.0
F-3.3
F-0.7
tp545
F1.0
ssS'(-4.1, -7.8, -0.7), (-4.1, -7.7, -0.7), (-4.1, -7.6, -0.7)'
p546
(dp547
(F-4.1
F-7.5
F-0.7
tp548
F1.0
ssS'(2.0, -6.4, 0.7), (2.0, -6.5, 0.7), (2.0, -6.6, 0.7)'
p549
(dp550
(F2.0
F-6.7
F0.7
tp551
F1.0
ssS'(1.8, -0.2, 0.8), (1.8, -0.2, 0.7), (1.8, -0.3, 0.7)'
p552
(dp553
(F1.8
F-0.4
F0.7
tp554
F1.0
ssS'(-4.0, -2.9, -0.7), (-4.0, -2.8, -0.7), (-4.0, -2.7, -0.7)'
p555
(dp556
(F-4.0
F-2.6
F-0.7
tp557
F1.0
ssS'(-3.9, -6.6, -0.7), (-3.9, -6.5, -0.7), (-3.9, -6.4, -0.7)'
p558
(dp559
(F-4.0
F-6.4
F-0.7
tp560
F0.1
s(F-3.9
F-6.3
F-0.7
tp561
F0.9
ssS'(-4.0, -5.3, -0.7), (-4.0, -5.2, -0.7), (-4.0, -5.1, -0.7)'
p562
(dp563
(F-4.0
F-5.0
F-0.7
tp564
F1.0
ssS'(-1.5, -9.7, 0.0), (-1.6, -9.7, 0.0), (-1.7, -9.7, 0.0)'
p565
(dp566
(F-1.8
F-9.7
F0.0
tp567
F1.0
ssS'(-4.0, -2.4, -0.7), (-3.9, -2.4, -0.7), (-3.9, -2.3, -0.7)'
p568
(dp569
(F-3.9
F-2.2
F-0.7
tp570
F1.0
ssS'(-4.1, -4.0, -0.7), (-4.1, -3.9, -0.7), (-4.1, -3.8, -0.7)'
p571
(dp572
(F-4.1
F-3.7
F-0.7
tp573
F1.0
ssS'(0.7, -0.0, 1.0), (0.7, -0.1, 1.0), (0.8, -0.1, 1.0)'
p574
(dp575
(F0.9
F-0.1
F1.0
tp576
F1.0
ssS'(1.7, -0.6, 0.7), (1.8, -0.6, 0.7), (1.8, -0.7, 0.7)'
p577
(dp578
(F1.8
F-0.8
F0.7
tp579
F1.0
ssS'(-3.5, -0.8, -0.8), (-3.5, -0.7, -0.8), (-3.5, -0.6, -0.8)'
p580
(dp581
(F0.1
F0.0
F1.0
tp582
F0.5
s(F-3.5
F-0.5
F-0.8
tp583
F0.5
ssS'(-3.9, -7.7, -0.7), (-3.9, -7.6, -0.7), (-3.9, -7.5, -0.7)'
p584
(dp585
(F-3.9
F-7.4
F-0.7
tp586
F1.0
ssS'(1.7, -9.2, 0.7), (1.7, -9.3, 0.7), (1.7, -9.3, 0.6)'
p587
(dp588
(F1.7
F-9.3
F0.5
tp589
F1.0
ssS'(-4.0, -2.6, -0.7), (-4.0, -2.5, -0.7), (-4.0, -2.4, -0.7)'
p590
(dp591
(F-3.9
F-2.4
F-0.7
tp592
F0.5
s(F-4.0
F-2.3
F-0.7
tp593
F0.5
ssS'(2.0, -4.5, 0.7), (2.0, -4.6, 0.7), (2.0, -4.7, 0.7)'
p594
(dp595
(F2.0
F-4.8
F0.7
tp596
F1.0
ssS'(0.0, -9.5, 0.0), (0.0, -9.6, 0.0), (-0.1, -9.6, 0.0)'
p597
(dp598
(F-0.2
F-9.6
F0.0
tp599
F1.0
ssS'(-3.7, -0.9, -0.8), (-3.7, -0.8, -0.8), (-3.7, -0.7, -0.8)'
p600
(dp601
(F-3.7
F-0.6
F-0.8
tp602
F1.0
ssS'(-3.6, -9.9, -0.6), (-3.6, -9.9, -0.7), (-3.6, -9.8, -0.7)'
p603
(dp604
(F-3.6
F-9.7
F-0.7
tp605
F1.0
ssS'(1.4, -0.1, 1.0), (1.5, -0.1, 1.0), (1.5, -0.2, 1.0)'
p606
(dp607
(F1.6
F-0.2
F1.0
tp608
F1.0
ssS'(-1.5, -9.6, 0.0), (-1.5, -9.7, 0.0), (-1.6, -9.7, 0.0)'
p609
(dp610
(F-1.7
F-9.7
F0.0
tp611
F1.0
ssS'(1.9, -3.2, 0.7), (1.9, -3.3, 0.7), (1.9, -3.4, 0.7)'
p612
(dp613
(F2.0
F-3.4
F0.7
tp614
F0.16666666666666666
s(F1.9
F-3.5
F0.7
tp615
F0.8333333333333334
ssS'(-1.1, -9.7, 0.1), (-1.1, -9.7, 0.0), (-1.2, -9.7, 0.0)'
p616
(dp617
(F-1.2
F-9.8
F0.0
tp618
F1.0
ssS'(-3.0, -9.8, 0.0), (-3.1, -9.8, 0.0), (-3.2, -9.8, 0.0)'
p619
(dp620
(F-3.3
F-9.8
F0.0
tp621
F1.0
ssS'(-3.7, -9.7, 0.0), (-3.7, -9.7, -0.1), (-3.7, -9.7, -0.2)'
p622
(dp623
(F-3.7
F-9.7
F-0.3
tp624
F1.0
ssS'(1.7, -0.3, 0.8), (1.7, -0.3, 0.7), (1.7, -0.4, 0.7)'
p625
(dp626
(F1.7
F-0.5
F0.7
tp627
F1.0
ssS'(2.0, -5.4, 0.7), (1.9, -5.4, 0.7), (1.9, -5.5, 0.7)'
p628
(dp629
(F1.9
F-5.6
F0.7
tp630
F1.0
ssS'(1.7, -7.3, 0.7), (1.7, -7.4, 0.7), (1.7, -7.5, 0.7)'
p631
(dp632
(F1.7
F-7.6
F0.7
tp633
F1.0
ssS'(-3.1, -9.7, 0.0), (-3.2, -9.7, 0.0), (-3.3, -9.7, 0.0)'
p634
(dp635
(F-3.4
F-9.7
F0.0
tp636
F1.0
ssS'(1.3, -0.1, 1.0), (1.4, -0.1, 1.0), (1.4, -0.2, 1.0)'
p637
(dp638
(F1.5
F-0.2
F1.0
tp639
F1.0
ssS'(-3.9, -9.8, -0.6), (-3.9, -9.8, -0.7), (-3.9, -9.7, -0.7)'
p640
(dp641
(F-3.9
F-9.6
F-0.7
tp642
F1.0
ssS'(-2.4, -9.7, 0.0), (-2.5, -9.7, 0.0), (-2.5, -9.8, 0.0)'
p643
(dp644
(F-2.6
F-9.8
F0.0
tp645
F1.0
ssS'(-0.6, -9.7, 0.0), (-0.7, -9.7, 0.0), (-0.8, -9.7, 0.0)'
p646
(dp647
(F-0.9
F-9.7
F0.0
tp648
F1.0
ssS'(-3.6, -9.9, -0.7), (-3.6, -9.8, -0.7), (-3.6, -9.7, -0.7)'
p649
(dp650
(F-3.6
F-9.6
F-0.7
tp651
F1.0
ssS'(-3.7, -9.8, -0.3), (-3.7, -9.8, -0.4), (-3.7, -9.8, -0.5)'
p652
(dp653
(F-3.7
F-9.8
F-0.6
tp654
F1.0
ssS'(-1.1, -9.7, 0.0), (-1.2, -9.7, 0.0), (-1.3, -9.7, 0.0)'
p655
(dp656
(F-1.4
F-9.7
F0.0
tp657
F1.0
ssS'(-2.3, -9.7, 0.0), (-2.4, -9.7, 0.0), (-2.5, -9.7, 0.0)'
p658
(dp659
(F-2.5
F-9.8
F0.0
tp660
F0.14285714285714285
s(F-2.6
F-9.7
F0.0
tp661
F0.8571428571428571
ssS'(-1.5, -9.6, 0.0), (-1.6, -9.6, 0.0), (-1.6, -9.7, 0.0)'
p662
(dp663
(F-1.7
F-9.7
F0.0
tp664
F1.0
ssS'(-3.8, -8.9, -0.7), (-3.8, -8.8, -0.7), (-3.8, -8.7, -0.7)'
p665
(dp666
(F-3.8
F-8.6
F-0.7
tp667
F1.0
ssS'(-3.9, -2.3, -0.7), (-3.9, -2.2, -0.7), (-3.9, -2.1, -0.7)'
p668
(dp669
(F-3.9
F-2.0
F-0.7
tp670
F1.0
ssS'(-3.9, -3.7, -0.7), (-3.9, -3.6, -0.7), (-3.9, -3.5, -0.7)'
p671
(dp672
(F-3.9
F-3.4
F-0.7
tp673
F1.0
ssS'(2.0, -3.4, 0.7), (2.0, -3.5, 0.7), (2.0, -3.6, 0.7)'
p674
(dp675
(F2.0
F-3.7
F0.7
tp676
F1.0
ssS'(-3.9, -3.3, -0.7), (-3.9, -3.2, -0.7), (-3.9, -3.1, -0.7)'
p677
(dp678
(F-3.9
F-3.0
F-0.7
tp679
F1.0
ssS'(2.0, -4.2, 0.7), (2.0, -4.3, 0.7), (2.0, -4.4, 0.7)'
p680
(dp681
(F2.0
F-4.5
F0.7
tp682
F1.0
ssS'(-0.5, -9.6, 0.0), (-0.6, -9.6, 0.0), (-0.7, -9.6, 0.0)'
p683
(dp684
(F-0.7
F-9.7
F0.0
tp685
F0.2222222222222222
s(F-0.8
F-9.6
F0.0
tp686
F0.7777777777777778
ssS'(-0.3, -9.6, 0.0), (-0.4, -9.6, 0.0), (-0.5, -9.6, 0.0)'
p687
(dp688
(F-0.6
F-9.6
F0.0
tp689
F1.0
ssS'(-3.9, -1.8, -0.7), (-3.9, -1.7, -0.7), (-3.8, -1.7, -0.7)'
p690
(dp691
(F-3.8
F-1.6
F-0.7
tp692
F1.0
ssS'(1.8, -2.4, 0.7), (1.8, -2.5, 0.7), (1.8, -2.6, 0.7)'
p693
(dp694
(F1.9
F-2.6
F0.7
tp695
F0.5
s(F1.8
F-2.7
F0.7
tp696
F0.5
ssS'(-4.0, -9.7, -0.0), (-4.0, -9.7, -0.1), (-4.0, -9.7, -0.2)'
p697
(dp698
(F-4.0
F-9.7
F-0.3
tp699
F1.0
ssS'(-3.3, -9.7, 0.0), (-3.4, -9.7, 0.0), (-3.5, -9.7, 0.0)'
p700
(dp701
(F-3.6
F-9.7
F0.0
tp702
F1.0
ssS'(2.0, -2.8, 0.7), (2.0, -2.9, 0.7), (2.0, -3.0, 0.7)'
p703
(dp704
(F2.0
F-3.1
F0.7
tp705
F1.0
ssS'(1.9, -2.7, 0.7), (1.9, -2.8, 0.7), (2.0, -2.8, 0.7)'
p706
(dp707
(F2.0
F-2.9
F0.7
tp708
F1.0
ssS'(-3.9, -1.6, -0.7), (-3.9, -1.5, -0.7), (-3.9, -1.4, -0.7)'
p709
(dp710
(F-3.9
F-1.3
F-0.7
tp711
F1.0
ssS'(1.6, -8.4, 0.7), (1.6, -8.5, 0.7), (1.6, -8.6, 0.7)'
p712
(dp713
(F1.6
F-8.7
F0.7
tp714
F1.0
ssS'(-3.6, -1.3, -0.7), (-3.6, -1.3, -0.8), (-3.6, -1.2, -0.8)'
p715
(dp716
(F-3.6
F-1.1
F-0.8
tp717
F1.0
ssS'(-3.8, -3.8, -0.7), (-3.8, -3.7, -0.7), (-3.8, -3.6, -0.7)'
p718
(dp719
(F-3.8
F-3.5
F-0.7
tp720
F1.0
ssS'(-4.0, -7.8, -0.7), (-4.0, -7.7, -0.7), (-4.0, -7.6, -0.7)'
p721
(dp722
(F-4.0
F-7.5
F-0.7
tp723
F1.0
ssS'(-4.0, -7.9, -0.7), (-4.0, -7.8, -0.7), (-4.0, -7.7, -0.7)'
p724
(dp725
(F-4.0
F-7.6
F-0.7
tp726
F1.0
ssS'(-3.7, -8.8, -0.7), (-3.7, -8.7, -0.7), (-3.7, -8.6, -0.7)'
p727
(dp728
(F-3.7
F-8.5
F-0.7
tp729
F1.0
ssS'(-3.9, -7.4, -0.7), (-3.9, -7.3, -0.7), (-3.9, -7.2, -0.7)'
p730
(dp731
(F-3.9
F-7.1
F-0.7
tp732
F1.0
ssS'(-3.6, -9.8, -0.1), (-3.6, -9.8, -0.2), (-3.6, -9.8, -0.3)'
p733
(dp734
(F-3.6
F-9.8
F-0.4
tp735
F1.0
ssS'(-0.9, -9.6, 0.0), (-1.0, -9.6, 0.0), (-1.1, -9.6, 0.0)'
p736
(dp737
(F-1.2
F-9.6
F0.0
tp738
F1.0
ssS'(1.8, -2.6, 0.7), (1.9, -2.6, 0.7), (1.9, -2.7, 0.7)'
p739
(dp740
(F1.9
F-2.8
F0.7
tp741
F1.0
ssS'(-3.8, -0.8, -0.8), (-3.8, -0.7, -0.8), (-3.7, -0.7, -0.8)'
p742
(dp743
(F-3.7
F-0.6
F-0.8
tp744
F1.0
ssS'(-3.8, -2.6, -0.7), (-3.8, -2.5, -0.7), (-3.7, -2.5, -0.7)'
p745
(dp746
(F-3.7
F-2.4
F-0.7
tp747
F1.0
ssS'(1.8, -1.6, 0.7), (1.8, -1.7, 0.7), (1.9, -1.7, 0.7)'
p748
(dp749
(F1.9
F-1.8
F0.7
tp750
F1.0
ssS'(1.6, -9.4, 0.1), (1.5, -9.4, 0.1), (1.4, -9.4, 0.1)'
p751
(dp752
(F1.3
F-9.4
F0.1
tp753
F1.0
ssS'(-4.1, -8.2, -0.7), (-4.1, -8.1, -0.7), (-4.1, -8.0, -0.7)'
p754
(dp755
(F-4.1
F-7.9
F-0.7
tp756
F1.0
ssS'(-3.9, -6.1, -0.7), (-3.9, -6.0, -0.7), (-4.0, -6.0, -0.7)'
p757
(dp758
(F-4.0
F-5.9
F-0.7
tp759
F1.0
ssS'(-4.0, -2.0, -0.7), (-4.0, -1.9, -0.7), (-4.0, -1.8, -0.7)'
p760
(dp761
(F-3.9
F-1.8
F-0.7
tp762
F1.0
ssS'(1.9, -2.3, 0.7), (1.9, -2.4, 0.7), (1.9, -2.5, 0.7)'
p763
(dp764
(F2.0
F-2.5
F0.7
tp765
F0.07692307692307693
s(F1.9
F-2.6
F0.7
tp766
F0.9230769230769231
ssS'(1.8, -6.1, 0.7), (1.8, -6.2, 0.7), (1.8, -6.3, 0.7)'
p767
(dp768
(F1.8
F-6.4
F0.7
tp769
F1.0
ssS'(-3.9, -9.8, -0.7), (-3.9, -9.7, -0.7), (-3.9, -9.6, -0.7)'
p770
(dp771
(F-3.9
F-9.5
F-0.7
tp772
F1.0
ssS'(-3.9, -5.1, -0.7), (-3.9, -5.0, -0.7), (-3.9, -4.9, -0.7)'
p773
(dp774
(F-3.9
F-4.8
F-0.7
tp775
F1.0
ssS'(1.8, -0.9, 0.7), (1.8, -1.0, 0.7), (1.8, -1.1, 0.7)'
p776
(dp777
(F1.8
F-1.2
F0.7
tp778
F1.0
ssS'(0.3, -9.5, 0.1), (0.3, -9.5, 0.0), (0.2, -9.5, 0.0)'
p779
(dp780
(F0.1
F-9.5
F0.0
tp781
F1.0
ssS'(-3.9, -4.2, -0.7), (-3.9, -4.1, -0.7), (-3.8, -4.1, -0.7)'
p782
(dp783
(F-3.8
F-4.0
F-0.7
tp784
F1.0
ssS'(-3.7, -9.7, 0.0), (-3.8, -9.7, 0.0), (-3.8, -9.7, -0.1)'
p785
(dp786
(F-3.8
F-9.7
F-0.2
tp787
F1.0
ssS'(-3.8, -3.2, -0.7), (-3.8, -3.1, -0.7), (-3.8, -3.0, -0.7)'
p788
(dp789
(F-3.8
F-2.9
F-0.7
tp790
F1.0
ssS'(2.0, -8.2, 0.7), (2.0, -8.3, 0.7), (2.0, -8.4, 0.7)'
p791
(dp792
(F1.9
F-8.4
F0.7
tp793
F1.0
ssS'(1.9, -7.0, 0.7), (1.9, -7.1, 0.7), (1.8, -7.1, 0.7)'
p794
(dp795
(F1.8
F-7.2
F0.7
tp796
F1.0
ssS'(1.9, -3.3, 0.7), (1.9, -3.4, 0.7), (2.0, -3.4, 0.7)'
p797
(dp798
(F2.0
F-3.5
F0.7
tp799
F1.0
ssS'(-4.0, -6.0, -0.7), (-4.0, -5.9, -0.7), (-4.0, -5.8, -0.7)'
p800
(dp801
(F-4.0
F-5.7
F-0.7
tp802
F1.0
ssS'(-3.7, -1.4, -0.7), (-3.7, -1.3, -0.7), (-3.7, -1.2, -0.7)'
p803
(dp804
(F-3.6
F-1.2
F-0.7
tp805
F0.2
s(F-3.7
F-1.1
F-0.7
tp806
F0.8
ssS'(-3.8, -1.7, -0.7), (-3.8, -1.6, -0.7), (-3.8, -1.5, -0.7)'
p807
(dp808
(F-3.7
F-1.5
F-0.7
tp809
F0.25
s(F-3.8
F-1.4
F-0.7
tp810
F0.75
ssS'(-3.8, -3.6, -0.7), (-3.8, -3.5, -0.7), (-3.8, -3.4, -0.7)'
p811
(dp812
(F-3.8
F-3.3
F-0.7
tp813
F1.0
ssS'(1.2, -0.1, 1.0), (1.3, -0.1, 1.0), (1.4, -0.1, 1.0)'
p814
(dp815
(F1.4
F-0.2
F1.0
tp816
F0.15384615384615385
s(F1.5
F-0.1
F1.0
tp817
F0.8461538461538461
ssS'(1.9, -3.4, 0.7), (2.0, -3.4, 0.7), (2.0, -3.5, 0.7)'
p818
(dp819
(F2.0
F-3.6
F0.7
tp820
F1.0
ssS'(2.0, -7.7, 0.7), (2.0, -7.8, 0.7), (2.0, -7.9, 0.7)'
p821
(dp822
(F2.0
F-8.0
F0.7
tp823
F1.0
ssS'(-0.2, -9.6, 0.1), (-0.3, -9.6, 0.1), (-0.4, -9.6, 0.1)'
p824
(dp825
(F-0.5
F-9.6
F0.1
tp826
F1.0
ssS'(-4.0, -3.3, -0.7), (-4.0, -3.2, -0.7), (-4.0, -3.1, -0.7)'
p827
(dp828
(F-4.0
F-3.0
F-0.7
tp829
F1.0
ssS'(2.0, -6.5, 0.7), (2.0, -6.6, 0.7), (2.0, -6.7, 0.7)'
p830
(dp831
(F2.0
F-6.8
F0.7
tp832
F1.0
ssS'(-3.8, -7.6, -0.7), (-3.8, -7.5, -0.7), (-3.8, -7.4, -0.7)'
p833
(dp834
(F-3.8
F-7.3
F-0.7
tp835
F1.0
ssS'(1.8, -7.5, 0.7), (1.8, -7.6, 0.7), (1.7, -7.6, 0.7)'
p836
(dp837
(F1.7
F-7.7
F0.7
tp838
F1.0
ssS'(-3.9, -7.0, -0.7), (-3.9, -6.9, -0.7), (-3.9, -6.8, -0.7)'
p839
(dp840
(F-4.0
F-6.8
F-0.7
tp841
F0.1111111111111111
s(F-3.9
F-6.7
F-0.7
tp842
F0.8888888888888888
ssS'(-4.1, -5.8, -0.7), (-4.1, -5.7, -0.7), (-4.1, -5.6, -0.7)'
p843
(dp844
(F-4.1
F-5.5
F-0.7
tp845
F1.0
ssS'(-3.7, -9.2, -0.7), (-3.7, -9.1, -0.7), (-3.7, -9.0, -0.7)'
p846
(dp847
(F-3.7
F-8.9
F-0.7
tp848
F1.0
ssS'(-4.1, -6.6, -0.7), (-4.1, -6.5, -0.7), (-4.1, -6.4, -0.7)'
p849
(dp850
(F-4.1
F-6.3
F-0.7
tp851
F1.0
ssS'(-3.9, -9.5, -0.7), (-4.0, -9.5, -0.7), (-4.0, -9.4, -0.7)'
p852
(dp853
(F-4.0
F-9.3
F-0.7
tp854
F1.0
ssS'(2.0, -6.3, 0.7), (2.0, -6.4, 0.7), (2.0, -6.5, 0.7)'
p855
(dp856
(F2.0
F-6.6
F0.7
tp857
F0.875
s(F1.9
F-6.5
F0.7
tp858
F0.125
ssS'(-4.0, -5.0, -0.7), (-4.0, -4.9, -0.7), (-4.0, -4.8, -0.7)'
p859
(dp860
(F-4.0
F-4.7
F-0.7
tp861
F1.0
ssS'(-3.8, -7.8, -0.7), (-3.8, -7.7, -0.7), (-3.9, -7.7, -0.7)'
p862
(dp863
(F-3.9
F-7.6
F-0.7
tp864
F1.0
ssS'(-3.7, -1.7, -0.7), (-3.7, -1.6, -0.7), (-3.6, -1.6, -0.7)'
p865
(dp866
(F-3.6
F-1.5
F-0.7
tp867
F1.0
ssS'(-4.0, -2.5, -0.7), (-4.0, -2.4, -0.7), (-4.0, -2.3, -0.7)'
p868
(dp869
(F-4.0
F-2.2
F-0.7
tp870
F1.0
ssS'(-0.3, -9.6, 0.1), (-0.3, -9.7, 0.1), (-0.4, -9.7, 0.1)'
p871
(dp872
(F-0.5
F-9.7
F0.1
tp873
F1.0
ssS'(-3.9, -7.6, -0.7), (-3.9, -7.5, -0.7), (-3.9, -7.4, -0.7)'
p874
(dp875
(F-3.9
F-7.3
F-0.7
tp876
F1.0
ssS'(1.7, -8.0, 0.7), (1.7, -8.1, 0.7), (1.7, -8.2, 0.7)'
p877
(dp878
(F1.6
F-8.2
F0.7
tp879
F0.3333333333333333
s(F1.7
F-8.3
F0.7
tp880
F0.6666666666666666
ssS'(-4.0, -3.1, -0.7), (-4.0, -3.0, -0.7), (-4.0, -2.9, -0.7)'
p881
(dp882
(F-4.0
F-2.8
F-0.7
tp883
F1.0
ssS'(-3.6, -9.7, 0.0), (-3.7, -9.7, 0.0), (-3.8, -9.7, 0.0)'
p884
(dp885
(F-3.8
F-9.7
F-0.1
tp886
F1.0
ssS'(1.9, -2.9, 0.7), (1.9, -3.0, 0.7), (1.9, -3.1, 0.7)'
p887
(dp888
(F1.9
F-3.2
F0.7
tp889
F1.0
ssS'(1.9, -5.2, 0.7), (1.9, -5.3, 0.7), (1.8, -5.3, 0.7)'
p890
(dp891
(F1.8
F-5.4
F0.7
tp892
F1.0
ssS'(1.9, -4.8, 0.7), (1.9, -4.9, 0.7), (1.9, -5.0, 0.7)'
p893
(dp894
(F1.9
F-5.1
F0.7
tp895
F1.0
ssS'(-4.0, -8.4, -0.7), (-4.0, -8.3, -0.7), (-4.0, -8.2, -0.7)'
p896
(dp897
(F-4.0
F-8.1
F-0.7
tp898
F1.0
ssS'(1.8, -0.2, 0.7), (1.8, -0.3, 0.7), (1.8, -0.4, 0.7)'
p899
(dp900
(F1.8
F-0.5
F0.7
tp901
F1.0
ssS'(-3.7, -8.5, -0.7), (-3.8, -8.5, -0.7), (-3.8, -8.4, -0.7)'
p902
(dp903
(F-3.8
F-8.3
F-0.7
tp904
F1.0
ssS'(-3.7, -9.3, -0.7), (-3.7, -9.2, -0.7), (-3.8, -9.2, -0.7)'
p905
(dp906
(F-3.8
F-9.1
F-0.7
tp907
F1.0
ssS'(1.8, -9.1, 0.7), (1.8, -9.2, 0.7), (1.7, -9.2, 0.7)'
p908
(dp909
(F1.7
F-9.3
F0.7
tp910
F1.0
ssS'(1.8, -9.4, 0.3), (1.8, -9.4, 0.2), (1.8, -9.4, 0.1)'
p911
(dp912
(F1.7
F-9.4
F0.1
tp913
F1.0
ssS'(1.3, -9.4, 0.1), (1.2, -9.4, 0.1), (1.2, -9.5, 0.1)'
p914
(dp915
(F1.1
F-9.5
F0.1
tp916
F1.0
ssS'(1.7, -8.1, 0.7), (1.7, -8.2, 0.7), (1.7, -8.3, 0.7)'
p917
(dp918
(F1.7
F-8.4
F0.7
tp919
F0.5
s(F1.6
F-8.3
F0.7
tp920
F0.5
ssS'(1.9, -3.8, 0.7), (2.0, -3.8, 0.7), (2.0, -3.9, 0.7)'
p921
(dp922
(F2.0
F-4.0
F0.7
tp923
F1.0
ssS'(-3.9, -2.1, -0.7), (-3.9, -2.0, -0.7), (-3.9, -1.9, -0.7)'
p924
(dp925
(F-3.9
F-1.8
F-0.7
tp926
F0.8
s(F-3.8
F-1.9
F-0.7
tp927
F0.2
ssS'(0.0, -9.5, 0.0), (-0.1, -9.5, 0.0), (-0.1, -9.6, 0.0)'
p928
(dp929
(F-0.2
F-9.6
F0.0
tp930
F1.0
ssS'(1.8, -1.6, 0.7), (1.8, -1.7, 0.7), (1.8, -1.8, 0.7)'
p931
(dp932
(F1.8
F-1.9
F0.7
tp933
F1.0
ssS'(-3.9, -4.3, -0.7), (-3.9, -4.2, -0.7), (-3.9, -4.1, -0.7)'
p934
(dp935
(F-3.9
F-4.0
F-0.7
tp936
F0.75
s(F-3.8
F-4.1
F-0.7
tp937
F0.25
ssS'(-3.9, -9.8, -0.3), (-3.9, -9.8, -0.4), (-3.9, -9.8, -0.5)'
p938
(dp939
(F-3.9
F-9.8
F-0.6
tp940
F1.0
ssS'(-4.0, -4.2, -0.7), (-4.0, -4.1, -0.7), (-4.0, -4.0, -0.7)'
p941
(dp942
(F-4.0
F-3.9
F-0.7
tp943
F1.0
ssS'(-1.2, -9.8, 0.0), (-1.3, -9.8, 0.0), (-1.4, -9.8, 0.0)'
p944
(dp945
(F-1.5
F-9.8
F0.0
tp946
F1.0
ssS'(1.6, -8.6, 0.7), (1.6, -8.7, 0.7), (1.6, -8.8, 0.7)'
p947
(dp948
(F1.6
F-8.9
F0.7
tp949
F1.0
ssS'(1.9, -7.8, 0.7), (1.9, -7.9, 0.7), (1.9, -8.0, 0.7)'
p950
(dp951
(F1.8
F-8.0
F0.7
tp952
F0.2
s(F1.9
F-8.1
F0.7
tp953
F0.8
ssS'(-3.6, -0.9, -0.8), (-3.6, -0.8, -0.8), (-3.6, -0.7, -0.8)'
p954
(dp955
(F-3.6
F-0.6
F-0.8
tp956
F0.5
s(F-3.5
F-0.7
F-0.8
tp957
F0.5
ssS'(-3.6, -9.9, -0.1), (-3.6, -9.9, -0.2), (-3.6, -9.9, -0.3)'
p958
(dp959
(F-3.6
F-9.9
F-0.4
tp960
F1.0
ssS'(1.7, -9.3, 0.1), (1.6, -9.3, 0.1), (1.6, -9.4, 0.1)'
p961
(dp962
(F1.5
F-9.4
F0.1
tp963
F1.0
ssS'(1.9, -8.3, 0.7), (1.9, -8.4, 0.7), (1.9, -8.5, 0.7)'
p964
(dp965
(F1.8
F-8.5
F0.7
tp966
F0.2
s(F1.9
F-8.6
F0.7
tp967
F0.8
ssS'(-3.5, -9.8, 0.0), (-3.6, -9.8, 0.0), (-3.7, -9.8, 0.0)'
p968
(dp969
(F-3.7
F-9.8
F-0.1
tp970
F0.4
s(F-3.8
F-9.8
F0.0
tp971
F0.6
ssS'(-3.0, -9.7, 0.0), (-3.1, -9.7, 0.0), (-3.2, -9.7, 0.0)'
p972
(dp973
(F-3.3
F-9.7
F0.0
tp974
F1.0
ssS'(2.0, -3.8, 0.7), (2.0, -3.9, 0.7), (2.0, -4.0, 0.7)'
p975
(dp976
(F2.0
F-4.1
F0.7
tp977
F1.0
ssS'(-4.0, -3.0, -0.7), (-4.0, -2.9, -0.7), (-4.0, -2.8, -0.7)'
p978
(dp979
(F-4.0
F-2.7
F-0.7
tp980
F0.4
s(F-3.9
F-2.8
F-0.7
tp981
F0.6
ssS'(-4.1, -5.5, -0.7), (-4.1, -5.4, -0.7), (-4.0, -5.4, -0.7)'
p982
(dp983
(F-4.0
F-5.3
F-0.7
tp984
F1.0
ssS'(-3.8, -0.9, -0.7), (-3.7, -0.9, -0.7), (-3.7, -0.8, -0.7)'
p985
(dp986
(F-3.7
F-0.7
F-0.7
tp987
F1.0
ssS'(-4.1, -3.9, -0.7), (-4.1, -3.8, -0.7), (-4.1, -3.7, -0.7)'
p988
(dp989
(F-4.0
F-3.7
F-0.7
tp990
F0.5
s(F-4.1
F-3.6
F-0.7
tp991
F0.5
ssS'(1.8, -1.5, 0.7), (1.8, -1.6, 0.7), (1.9, -1.7, 0.7)'
p992
(dp993
(F1.9
F-1.8
F0.7
tp994
F1.0
ssS'(-3.7, -9.8, 0.0), (-3.7, -9.8, -0.1), (-3.7, -9.8, -0.2)'
p995
(dp996
(F-3.7
F-9.8
F-0.3
tp997
F1.0
ssS'(1.9, -4.7, 0.7), (1.9, -4.8, 0.7), (1.9, -4.9, 0.7)'
p998
(dp999
(F1.9
F-5.0
F0.7
tp1000
F1.0
ssS'(1.7, -0.3, 0.7), (1.7, -0.4, 0.7), (1.7, -0.5, 0.7)'
p1001
(dp1002
(F1.8
F-0.5
F0.7
tp1003
F0.375
s(F1.7
F-0.6
F0.7
tp1004
F0.625
ssS'(2.0, -7.4, 0.7), (2.0, -7.5, 0.7), (2.0, -7.6, 0.7)'
p1005
(dp1006
(F2.0
F-7.7
F0.7
tp1007
F1.0
ssS'(-4.0, -6.4, -0.7), (-4.0, -6.3, -0.7), (-4.0, -6.2, -0.7)'
p1008
(dp1009
(F-4.0
F-6.1
F-0.7
tp1010
F1.0
ssS'(-3.6, -9.7, -0.7), (-3.6, -9.6, -0.7), (-3.6, -9.5, -0.7)'
p1011
(dp1012
(F-3.6
F-9.4
F-0.7
tp1013
F1.0
ssS'(-3.3, -9.9, 0.0), (-3.4, -9.9, 0.0), (-3.5, -9.9, 0.0)'
p1014
(dp1015
(F-3.6
F-9.9
F0.0
tp1016
F1.0
ssS'(1.9, -6.0, 0.7), (1.9, -6.1, 0.7), (1.9, -6.2, 0.7)'
p1017
(dp1018
(F1.9
F-6.3
F0.7
tp1019
F1.0
ssS'(-0.5, -9.7, 0.1), (-0.6, -9.7, 0.1), (-0.7, -9.7, 0.1)'
p1020
(dp1021
(F-0.7
F-9.7
F0.0
tp1022
F0.25
s(F-0.8
F-9.7
F0.1
tp1023
F0.75
ssS'(-4.1, -7.2, -0.7), (-4.1, -7.1, -0.7), (-4.1, -7.0, -0.7)'
p1024
(dp1025
(F-4.1
F-6.9
F-0.7
tp1026
F1.0
ssS'(-3.9, -6.2, -0.7), (-3.9, -6.1, -0.7), (-3.9, -6.0, -0.7)'
p1027
(dp1028
(F-3.9
F-5.9
F-0.7
tp1029
F0.875
s(F-4.0
F-6.0
F-0.7
tp1030
F0.125
ssS'(-3.8, -7.4, -0.7), (-3.8, -7.3, -0.7), (-3.8, -7.2, -0.7)'
p1031
(dp1032
(F-3.8
F-7.1
F-0.7
tp1033
F1.0
ssS'(-3.7, -0.8, -0.8), (-3.7, -0.7, -0.8), (-3.7, -0.6, -0.8)'
p1034
(dp1035
(F-3.7
F-0.5
F-0.8
tp1036
F1.0
ssS'(-4.0, -3.0, -0.7), (-3.9, -3.0, -0.7), (-3.9, -2.9, -0.7)'
p1037
(dp1038
(F-3.9
F-2.8
F-0.7
tp1039
F1.0
ssS'(-2.2, -9.8, 0.0), (-2.3, -9.8, 0.0), (-2.4, -9.9, 0.0)'
p1040
(dp1041
(F-2.5
F-9.9
F0.0
tp1042
F1.0
ssS'(1.7, -8.8, 0.7), (1.7, -8.9, 0.7), (1.7, -9.0, 0.7)'
p1043
(dp1044
(F1.7
F-9.1
F0.7
tp1045
F1.0
ssS'(-4.0, -5.9, -0.7), (-4.0, -5.8, -0.7), (-4.0, -5.7, -0.7)'
p1046
(dp1047
(F-4.0
F-5.6
F-0.7
tp1048
F1.0
ssS'(1.8, -7.6, 0.7), (1.8, -7.7, 0.7), (1.8, -7.8, 0.7)'
p1049
(dp1050
(F1.8
F-7.9
F0.7
tp1051
F1.0
ssS'(1.8, -5.8, 0.7), (1.8, -5.9, 0.7), (1.8, -6.0, 0.7)'
p1052
(dp1053
(F1.8
F-6.1
F0.7
tp1054
F1.0
ssS'(-0.4, -9.6, 0.1), (-0.5, -9.6, 0.1), (-0.5, -9.7, 0.1)'
p1055
(dp1056
(F-0.6
F-9.7
F0.1
tp1057
F1.0
ssS'(1.9, -5.7, 0.7), (1.9, -5.8, 0.7), (1.9, -5.9, 0.7)'
p1058
(dp1059
(F1.9
F-6.0
F0.7
tp1060
F1.0
ssS'(1.6, -9.1, 0.7), (1.5, -9.1, 0.7), (1.5, -9.2, 0.7)'
p1061
(dp1062
(F1.5
F-9.3
F0.7
tp1063
F1.0
ssS'(1.9, -4.5, 0.7), (1.9, -4.6, 0.7), (1.9, -4.7, 0.7)'
p1064
(dp1065
(F1.9
F-4.8
F0.7
tp1066
F1.0
ssS'(1.5, -9.3, 0.7), (1.5, -9.4, 0.7), (1.5, -9.4, 0.6)'
p1067
(dp1068
(F1.5
F-9.4
F0.5
tp1069
F1.0
ssS'(1.9, -6.0, 0.7), (1.9, -6.1, 0.7), (1.8, -6.1, 0.7)'
p1070
(dp1071
(F1.8
F-6.2
F0.7
tp1072
F1.0
ssS'(-3.9, -4.6, -0.7), (-3.9, -4.5, -0.7), (-3.9, -4.4, -0.7)'
p1073
(dp1074
(F-3.9
F-4.3
F-0.7
tp1075
F1.0
ssS'(-3.7, -0.6, -0.8), (-3.7, -0.5, -0.8), (0.1, 0.0, 1.0)'
p1076
(dp1077
(F0.2
F0.0
F1.0
tp1078
F1.0
ssS'(2.0, -4.0, 0.7), (2.0, -4.1, 0.7), (2.0, -4.2, 0.7)'
p1079
(dp1080
(F2.0
F-4.3
F0.7
tp1081
F1.0
ssS'(-3.7, -1.5, -0.7), (-3.7, -1.4, -0.7), (-3.7, -1.3, -0.7)'
p1082
(dp1083
(F-3.7
F-1.2
F-0.7
tp1084
F1.0
ssS'(1.8, -9.3, 0.7), (1.8, -9.3, 0.6), (1.8, -9.3, 0.5)'
p1085
(dp1086
(F1.8
F-9.3
F0.4
tp1087
F1.0
ssS'(-4.1, -3.6, -0.7), (-4.1, -3.5, -0.7), (-4.1, -3.4, -0.7)'
p1088
(dp1089
(F-4.1
F-3.3
F-0.7
tp1090
F1.0
ssS'(-4.1, -5.7, -0.7), (-4.1, -5.6, -0.7), (-4.1, -5.5, -0.7)'
p1091
(dp1092
(F-4.1
F-5.4
F-0.7
tp1093
F1.0
ssS'(2.0, -3.3, 0.7), (2.0, -3.4, 0.7), (2.0, -3.5, 0.7)'
p1094
(dp1095
(F2.0
F-3.6
F0.7
tp1096
F1.0
ssS'(-0.1, -9.6, 0.1), (-0.2, -9.6, 0.1), (-0.3, -9.6, 0.1)'
p1097
(dp1098
(F-0.4
F-9.6
F0.1
tp1099
F0.42857142857142855
s(F-0.3
F-9.6
F0.0
tp1100
F0.2857142857142857
s(F-0.3
F-9.7
F0.1
tp1101
F0.2857142857142857
ssS'(1.8, -7.2, 0.7), (1.7, -7.2, 0.7), (1.7, -7.3, 0.7)'
p1102
(dp1103
(F1.7
F-7.4
F0.7
tp1104
F1.0
ssS'(1.8, -0.7, 0.7), (1.8, -0.8, 0.7), (1.8, -0.9, 0.7)'
p1105
(dp1106
(F1.8
F-1.0
F0.7
tp1107
F1.0
ssS'(1.7, -9.3, 0.2), (1.7, -9.3, 0.1), (1.7, -9.4, 0.1)'
p1108
(dp1109
(F1.6
F-9.4
F0.1
tp1110
F1.0
ssS'(-4.0, -7.7, -0.7), (-4.0, -7.6, -0.7), (-4.0, -7.5, -0.7)'
p1111
(dp1112
(F-4.0
F-7.4
F-0.7
tp1113
F1.0
ssS'(-3.8, -9.7, -0.3), (-3.8, -9.7, -0.4), (-3.8, -9.7, -0.5)'
p1114
(dp1115
(F-3.8
F-9.7
F-0.6
tp1116
F1.0
ssS'(-1.4, -9.7, 0.0), (-1.5, -9.7, 0.0), (-1.5, -9.8, 0.0)'
p1117
(dp1118
(F-1.6
F-9.8
F0.0
tp1119
F1.0
ssS'(-2.6, -9.9, 0.0), (-2.7, -9.9, 0.0), (-2.8, -9.9, 0.0)'
p1120
(dp1121
(F-2.9
F-9.9
F0.0
tp1122
F1.0
ssS'(-3.7, -1.1, -0.8), (-3.7, -1.0, -0.8), (-3.7, -0.9, -0.8)'
p1123
(dp1124
(F-3.7
F-0.8
F-0.8
tp1125
F1.0
ssS'(1.7, -8.2, 0.7), (1.7, -8.3, 0.7), (1.6, -8.3, 0.7)'
p1126
(dp1127
(F1.6
F-8.4
F0.7
tp1128
F1.0
ssS'(2.0, -6.5, 0.7), (1.9, -6.5, 0.7), (1.9, -6.6, 0.7)'
p1129
(dp1130
(F1.9
F-6.7
F0.7
tp1131
F1.0
ssS'(1.8, -0.6, 0.7), (1.8, -0.7, 0.7), (1.8, -0.8, 0.7)'
p1132
(dp1133
(F1.8
F-0.9
F0.7
tp1134
F1.0
ssS'(-3.7, -9.8, -0.1), (-3.7, -9.8, -0.2), (-3.7, -9.8, -0.3)'
p1135
(dp1136
(F-3.7
F-9.8
F-0.4
tp1137
F1.0
ssS'(1.8, -7.0, 0.7), (1.8, -7.1, 0.7), (1.8, -7.2, 0.7)'
p1138
(dp1139
(F1.7
F-7.2
F0.7
tp1140
F0.5
s(F1.8
F-7.3
F0.7
tp1141
F0.5
ssS'(-4.1, -6.1, -0.7), (-4.1, -6.0, -0.7), (-4.1, -5.9, -0.7)'
p1142
(dp1143
(F-4.1
F-5.8
F-0.7
tp1144
F1.0
ssS'(-3.8, -3.5, -0.7), (-3.8, -3.4, -0.7), (-3.8, -3.3, -0.7)'
p1145
(dp1146
(F-3.8
F-3.2
F-0.7
tp1147
F1.0
ssS'(1.0, -9.4, 0.1), (0.9, -9.4, 0.1), (0.8, -9.4, 0.1)'
p1148
(dp1149
(F0.8
F-9.5
F0.1
tp1150
F1.0
ssS'(-3.9, -2.0, -0.7), (-3.8, -2.0, -0.7), (-3.8, -1.9, -0.7)'
p1151
(dp1152
(F-3.8
F-1.8
F-0.7
tp1153
F1.0
ssS'(-3.9, -6.3, -0.7), (-3.9, -6.2, -0.7), (-3.9, -6.1, -0.7)'
p1154
(dp1155
(F-3.9
F-6.0
F-0.7
tp1156
F0.8888888888888888
s(F-4.0
F-6.1
F-0.7
tp1157
F0.1111111111111111
ssS'(1.9, -9.0, 0.7), (1.9, -9.1, 0.7), (1.9, -9.2, 0.7)'
p1158
(dp1159
(F1.9
F-9.3
F0.7
tp1160
F1.0
ssS'(2.0, -2.9, 0.7), (2.0, -3.0, 0.7), (2.0, -3.1, 0.7)'
p1161
(dp1162
(F2.0
F-3.2
F0.7
tp1163
F1.0
ssS'(-4.1, -3.1, -0.7), (-4.1, -3.0, -0.7), (-4.0, -3.0, -0.7)'
p1164
(dp1165
(F-4.0
F-2.9
F-0.7
tp1166
F1.0
ssS'(-3.8, -0.9, -0.7), (-3.8, -0.8, -0.7), (-3.8, -0.7, -0.7)'
p1167
(dp1168
(F0.1
F0.0
F1.0
tp1169
F1.0
ssS'(-3.5, -0.7, -0.8), (-3.5, -0.6, -0.8), (0.1, 0.0, 1.0)'
p1170
(dp1171
(F0.2
F0.0
F1.0
tp1172
F1.0
ssS'(-3.9, -4.7, -0.7), (-3.9, -4.6, -0.7), (-3.9, -4.5, -0.7)'
p1173
(dp1174
(F-3.9
F-4.4
F-0.7
tp1175
F1.0
ssS'(-3.7, -9.7, -0.0), (-3.8, -9.7, -0.0), (-3.8, -9.7, -0.1)'
p1176
(dp1177
(F-3.8
F-9.7
F-0.2
tp1178
F1.0
ssS'(1.9, -8.3, 0.7), (1.9, -8.4, 0.7), (1.8, -8.4, 0.7)'
p1179
(dp1180
(F1.8
F-8.5
F0.7
tp1181
F1.0
ssS'(1.8, -8.3, 0.7), (1.7, -8.3, 0.7), (1.7, -8.4, 0.7)'
p1182
(dp1183
(F1.7
F-8.5
F0.7
tp1184
F1.0
ssS'(1.7, -9.4, 0.4), (1.7, -9.4, 0.3), (1.7, -9.4, 0.2)'
p1185
(dp1186
(F1.7
F-9.4
F0.1
tp1187
F1.0
ssS'(-4.0, -2.3, -0.7), (-4.0, -2.2, -0.7), (-4.0, -2.1, -0.7)'
p1188
(dp1189
(F-4.0
F-2.0
F-0.7
tp1190
F1.0
ssS'(1.7, -0.4, 0.8), (1.7, -0.5, 0.8), (1.7, -0.6, 0.8)'
p1191
(dp1192
(F1.7
F-0.6
F0.7
tp1193
F1.0
ssS'(1.2, -9.5, 0.1), (1.1, -9.5, 0.1), (1.0, -9.5, 0.1)'
p1194
(dp1195
(F0.9
F-9.5
F0.1
tp1196
F1.0
ssS'(-4.0, -7.4, -0.7), (-4.0, -7.3, -0.7), (-4.0, -7.2, -0.7)'
p1197
(dp1198
(F-4.0
F-7.1
F-0.7
tp1199
F1.0
ssS'(1.8, -7.4, 0.7), (1.8, -7.5, 0.7), (1.8, -7.6, 0.7)'
p1200
(dp1201
(F1.8
F-7.7
F0.7
tp1202
F0.5
s(F1.7
F-7.6
F0.7
tp1203
F0.5
ssS'(1.7, -8.3, 0.7), (1.7, -8.4, 0.7), (1.7, -8.5, 0.7)'
p1204
(dp1205
(F1.7
F-8.6
F0.7
tp1206
F1.0
ssS'(-4.0, -9.7, -0.7), (-4.0, -9.6, -0.7), (-4.0, -9.5, -0.7)'
p1207
(dp1208
(F-4.0
F-9.4
F-0.7
tp1209
F1.0
ssS'(-3.8, -8.4, -0.7), (-3.8, -8.3, -0.7), (-3.8, -8.2, -0.7)'
p1210
(dp1211
(F-3.8
F-8.1
F-0.7
tp1212
F1.0
ssS'(-3.7, -0.7, -0.8), (-3.7, -0.7, -0.7), (-3.7, -0.7, -0.8)'
p1213
(dp1214
(F0.1
F0.0
F1.0
tp1215
F0.5
s(F-3.7
F-0.7
F-0.7
tp1216
F0.5
ssS'(1.3, -0.2, 1.0), (1.4, -0.2, 1.0), (1.5, -0.2, 1.0)'
p1217
(dp1218
(F1.6
F-0.2
F1.0
tp1219
F1.0
ssS'(-3.9, -6.4, -0.7), (-3.9, -6.3, -0.7), (-3.9, -6.2, -0.7)'
p1220
(dp1221
(F-3.9
F-6.1
F-0.7
tp1222
F1.0
ssS'(-4.0, -9.4, -0.7), (-4.0, -9.3, -0.7), (-4.0, -9.2, -0.7)'
p1223
(dp1224
(F-4.0
F-9.1
F-0.7
tp1225
F1.0
ssS'(-2.1, -9.8, 0.0), (-2.2, -9.8, 0.0), (-2.3, -9.8, 0.0)'
p1226
(dp1227
(F-2.4
F-9.9
F0.0
tp1228
F0.125
s(F-2.4
F-9.8
F0.0
tp1229
F0.875
ssS'(1.9, -8.6, 0.7), (1.9, -8.7, 0.7), (1.8, -8.7, 0.7)'
p1230
(dp1231
(F1.8
F-8.8
F0.7
tp1232
F1.0
ssS'(-3.9, -8.0, -0.7), (-3.9, -7.9, -0.7), (-3.9, -7.8, -0.7)'
p1233
(dp1234
(F-3.9
F-7.7
F-0.7
tp1235
F1.0
ssS'(-3.9, -6.5, -0.7), (-3.9, -6.4, -0.7), (-3.9, -6.3, -0.7)'
p1236
(dp1237
(F-3.9
F-6.2
F-0.7
tp1238
F1.0
ssS'(0.6, -0.1, 1.0), (0.7, -0.1, 1.0), (0.8, -0.1, 1.0)'
p1239
(dp1240
(F0.9
F-0.1
F1.0
tp1241
F1.0
ssS'(-3.9, -4.2, -0.7), (-3.9, -4.1, -0.7), (-3.9, -4.0, -0.7)'
p1242
(dp1243
(F-3.9
F-3.9
F-0.7
tp1244
F1.0
ssS'(1.7, -9.4, 0.1), (1.6, -9.4, 0.1), (1.5, -9.4, 0.1)'
p1245
(dp1246
(F1.4
F-9.4
F0.1
tp1247
F1.0
ssS'(-1.7, -9.7, 0.0), (-1.8, -9.7, 0.0), (-1.9, -9.7, 0.0)'
p1248
(dp1249
(F-1.9
F-9.8
F0.0
tp1250
F0.1
s(F-2.0
F-9.7
F0.0
tp1251
F0.9
ssS'(-4.0, -6.2, -0.7), (-4.0, -6.1, -0.7), (-4.1, -6.1, -0.7)'
p1252
(dp1253
(F-4.1
F-6.0
F-0.7
tp1254
F1.0
ssS'(0.5, -9.5, 0.1), (0.4, -9.5, 0.1), (0.4, -9.6, 0.1)'
p1255
(dp1256
(F0.3
F-9.6
F0.1
tp1257
F1.0
ssS'(-3.9, -8.9, -0.7), (-3.9, -8.8, -0.7), (-3.9, -8.7, -0.7)'
p1258
(dp1259
(F-3.9
F-8.6
F-0.7
tp1260
F1.0
ssS'(-3.9, -8.7, -0.7), (-3.9, -8.6, -0.7), (-4.0, -8.6, -0.7)'
p1261
(dp1262
(F-4.0
F-8.5
F-0.7
tp1263
F1.0
ssS'(-4.0, -9.1, -0.7), (-4.0, -9.0, -0.7), (-4.0, -8.9, -0.7)'
p1264
(dp1265
(F-4.0
F-8.8
F-0.7
tp1266
F1.0
ssS'(2.0, -5.9, 0.7), (2.0, -6.0, 0.7), (2.0, -6.1, 0.7)'
p1267
(dp1268
(F2.0
F-6.2
F0.7
tp1269
F1.0
ssS'(-4.0, -8.9, -0.7), (-4.0, -8.8, -0.7), (-4.1, -8.8, -0.7)'
p1270
(dp1271
(F-4.1
F-8.7
F-0.7
tp1272
F1.0
ssS'(1.8, -0.2, 0.9), (1.8, -0.2, 0.8), (1.8, -0.2, 0.7)'
p1273
(dp1274
(F1.8
F-0.3
F0.7
tp1275
F1.0
ssS'(-0.3, -9.6, 0.1), (-0.3, -9.6, 0.0), (-0.4, -9.6, 0.0)'
p1276
(dp1277
(F-0.5
F-9.6
F0.0
tp1278
F1.0
ssS'(0.5, -0.0, 1.0), (0.6, -0.0, 1.0), (0.6, -0.1, 1.0)'
p1279
(dp1280
(F0.7
F-0.1
F1.0
tp1281
F1.0
ssS'(-3.2, -9.9, 0.0), (-3.3, -9.9, 0.0), (-3.4, -9.9, 0.0)'
p1282
(dp1283
(F-3.5
F-9.9
F0.0
tp1284
F1.0
ssS'(-2.8, -9.7, 0.0), (-2.9, -9.7, 0.0), (-3.0, -9.7, 0.0)'
p1285
(dp1286
(F-3.1
F-9.7
F0.0
tp1287
F0.8333333333333334
s(F-3.0
F-9.8
F0.0
tp1288
F0.16666666666666666
ssS'(1.6, -9.3, 0.1), (1.6, -9.4, 0.1), (1.5, -9.4, 0.1)'
p1289
(dp1290
(F1.4
F-9.4
F0.1
tp1291
F1.0
ssS'(-3.6, -0.7, -0.7), (-3.6, -0.6, -0.7), (-3.6, -0.6, -0.8)'
p1292
(dp1293
(F0.1
F0.0
F1.0
tp1294
F1.0
ssS'(-3.9, -1.9, -0.7), (-3.8, -1.9, -0.7), (-3.8, -1.8, -0.7)'
p1295
(dp1296
(F-3.8
F-1.7
F-0.7
tp1297
F1.0
ssS'(1.7, -7.6, 0.7), (1.7, -7.7, 0.7), (1.7, -7.8, 0.7)'
p1298
(dp1299
(F1.7
F-7.9
F0.7
tp1300
F1.0
ssS'(1.8, -7.2, 0.7), (1.8, -7.3, 0.7), (1.8, -7.4, 0.7)'
p1301
(dp1302
(F1.8
F-7.5
F0.7
tp1303
F1.0
ssS'(-4.1, -4.2, -0.7), (-4.1, -4.1, -0.7), (-4.1, -4.0, -0.7)'
p1304
(dp1305
(F-4.1
F-3.9
F-0.7
tp1306
F1.0
ssS'(-3.7, -9.5, -0.7), (-3.8, -9.5, -0.7), (-3.8, -9.4, -0.7)'
p1307
(dp1308
(F-3.8
F-9.3
F-0.7
tp1309
F1.0
ssS'(-4.0, -9.7, -0.3), (-4.0, -9.7, -0.4), (-4.0, -9.7, -0.5)'
p1310
(dp1311
(F-4.0
F-9.7
F-0.6
tp1312
F1.0
ssS'(-3.9, -6.7, -0.7), (-3.9, -6.6, -0.7), (-3.9, -6.5, -0.7)'
p1313
(dp1314
(F-3.9
F-6.4
F-0.7
tp1315
F1.0
ssS'(-3.6, -1.4, -0.8), (-3.6, -1.3, -0.8), (-3.6, -1.2, -0.8)'
p1316
(dp1317
(F-3.6
F-1.1
F-0.8
tp1318
F1.0
ssS'(1.7, -0.4, 0.7), (1.7, -0.5, 0.7), (1.8, -0.5, 0.7)'
p1319
(dp1320
(F1.8
F-0.6
F0.7
tp1321
F1.0
ssS'(1.8, -9.4, 0.1), (1.7, -9.4, 0.1), (1.6, -9.4, 0.1)'
p1322
(dp1323
(F1.5
F-9.4
F0.1
tp1324
F1.0
ssS'(-0.3, -9.7, 0.1), (-0.4, -9.7, 0.1), (-0.5, -9.7, 0.1)'
p1325
(dp1326
(F-0.6
F-9.7
F0.1
tp1327
F1.0
ssS'(2.0, -2.6, 0.7), (2.0, -2.7, 0.7), (2.0, -2.8, 0.7)'
p1328
(dp1329
(F2.0
F-2.9
F0.7
tp1330
F1.0
ssS'(-3.8, -6.6, -0.7), (-3.9, -6.6, -0.7), (-3.9, -6.5, -0.7)'
p1331
(dp1332
(F-3.9
F-6.4
F-0.7
tp1333
F1.0
ssS'(-3.8, -9.7, -0.7), (-3.8, -9.6, -0.7), (-3.8, -9.5, -0.7)'
p1334
(dp1335
(F-3.8
F-9.4
F-0.7
tp1336
F1.0
ssS'(0.4, -9.6, 0.1), (0.3, -9.6, 0.1), (0.2, -9.6, 0.1)'
p1337
(dp1338
(F0.1
F-9.6
F0.1
tp1339
F1.0
ssS'(-3.9, -8.8, -0.7), (-3.9, -8.7, -0.7), (-3.9, -8.6, -0.7)'
p1340
(dp1341
(F-4.0
F-8.6
F-0.7
tp1342
F0.25
s(F-3.9
F-8.5
F-0.7
tp1343
F0.75
ssS'(1.7, -9.3, 0.6), (1.7, -9.3, 0.5), (1.7, -9.3, 0.4)'
p1344
(dp1345
(F1.7
F-9.3
F0.3
tp1346
F1.0
ssS'(-4.0, -6.6, -0.7), (-4.0, -6.5, -0.7), (-4.0, -6.4, -0.7)'
p1347
(dp1348
(F-4.0
F-6.3
F-0.7
tp1349
F1.0
ssS'(-3.2, -9.8, 0.0), (-3.3, -9.8, 0.0), (-3.4, -9.8, 0.0)'
p1350
(dp1351
(F-3.5
F-9.8
F0.0
tp1352
F1.0
ssS'(0.7, -0.1, 1.0), (0.8, -0.1, 1.0), (0.9, -0.1, 1.0)'
p1353
(dp1354
(F1.0
F-0.1
F1.0
tp1355
F1.0
ssS'(1.9, -9.3, 0.3), (1.9, -9.3, 0.2), (1.9, -9.3, 0.1)'
p1356
(dp1357
(F1.8
F-9.3
F0.1
tp1358
F1.0
ssS'(1.8, -1.4, 0.7), (1.9, -1.4, 0.7), (1.9, -1.5, 0.7)'
p1359
(dp1360
(F1.9
F-1.6
F0.7
tp1361
F1.0
ssS'(-3.6, -0.8, -0.8), (-3.5, -0.8, -0.8), (-3.5, -0.7, -0.8)'
p1362
(dp1363
(F-3.5
F-0.6
F-0.8
tp1364
F1.0
ssS'(2.0, -4.4, 0.7), (2.0, -4.5, 0.7), (2.0, -4.6, 0.7)'
p1365
(dp1366
(F2.0
F-4.7
F0.7
tp1367
F1.0
ssS'(-3.7, -1.6, -0.7), (-3.6, -1.6, -0.7), (-3.6, -1.5, -0.7)'
p1368
(dp1369
(F-3.6
F-1.4
F-0.7
tp1370
F1.0
ssS'(-3.9, -1.5, -0.7), (-3.8, -1.5, -0.7), (-3.8, -1.4, -0.7)'
p1371
(dp1372
(F-3.8
F-1.3
F-0.7
tp1373
F1.0
ssS'(1.7, -0.2, 0.8), (1.7, -0.3, 0.8), (1.7, -0.3, 0.7)'
p1374
(dp1375
(F1.7
F-0.4
F0.7
tp1376
F1.0
ssS'(-4.0, -9.0, -0.7), (-4.0, -8.9, -0.7), (-4.0, -8.8, -0.7)'
p1377
(dp1378
(F-4.1
F-8.8
F-0.7
tp1379
F0.3333333333333333
s(F-4.0
F-8.7
F-0.7
tp1380
F0.6666666666666666
ssS'(-4.0, -8.3, -0.7), (-4.1, -8.3, -0.7), (-4.1, -8.2, -0.7)'
p1381
(dp1382
(F-4.1
F-8.1
F-0.7
tp1383
F1.0
ssS'(-4.0, -5.8, -0.7), (-4.0, -5.7, -0.7), (-4.0, -5.6, -0.7)'
p1384
(dp1385
(F-4.0
F-5.5
F-0.7
tp1386
F1.0
ssS'(-3.7, -9.7, -0.2), (-3.7, -9.7, -0.3), (-3.7, -9.7, -0.4)'
p1387
(dp1388
(F-3.7
F-9.7
F-0.5
tp1389
F1.0
ssS'(-3.7, -9.1, -0.7), (-3.7, -9.0, -0.7), (-3.7, -8.9, -0.7)'
p1390
(dp1391
(F-3.7
F-8.8
F-0.7
tp1392
F1.0
ssS'(-3.1, -9.8, 0.0), (-3.2, -9.8, 0.0), (-3.3, -9.8, 0.0)'
p1393
(dp1394
(F-3.4
F-9.8
F0.0
tp1395
F1.0
ssS'(-2.9, -9.9, 0.0), (-3.0, -9.9, 0.0), (-3.1, -9.9, 0.0)'
p1396
(dp1397
(F-3.2
F-9.9
F0.0
tp1398
F1.0
ssS'(1.8, -1.0, 0.7), (1.8, -1.1, 0.7), (1.8, -1.2, 0.7)'
p1399
(dp1400
(F1.8
F-1.3
F0.7
tp1401
F0.8666666666666667
s(F1.9
F-1.2
F0.7
tp1402
F0.13333333333333333
ssS'(-1.0, -9.7, 0.1), (-1.1, -9.7, 0.1), (-1.1, -9.7, 0.0)'
p1403
(dp1404
(F-1.2
F-9.7
F0.0
tp1405
F1.0
ssS'(-3.6, -9.8, -0.5), (-3.6, -9.8, -0.6), (-3.6, -9.8, -0.7)'
p1406
(dp1407
(F-3.6
F-9.7
F-0.7
tp1408
F1.0
ssS'(0.2, 0.0, 1.0), (0.3, -0.0, 1.0), (0.4, -0.0, 1.0)'
p1409
(dp1410
(F0.5
F-0.0
F1.0
tp1411
F1.0
ssS'(2.0, -6.4, 0.7), (2.0, -6.5, 0.7), (1.9, -6.5, 0.7)'
p1412
(dp1413
(F1.9
F-6.6
F0.7
tp1414
F1.0
ssS'(-2.3, -9.8, 0.0), (-2.4, -9.8, 0.0), (-2.5, -9.8, 0.0)'
p1415
(dp1416
(F-2.5
F-9.9
F0.0
tp1417
F0.14285714285714285
s(F-2.6
F-9.8
F0.0
tp1418
F0.8571428571428571
ssS'(-3.9, -1.9, -0.7), (-3.9, -1.8, -0.7), (-3.9, -1.7, -0.7)'
p1419
(dp1420
(F-3.9
F-1.6
F-0.7
tp1421
F0.75
s(F-3.8
F-1.7
F-0.7
tp1422
F0.25
ssS'(0.5, -9.5, 0.1), (0.4, -9.5, 0.1), (0.4, -9.5, 0.0)'
p1423
(dp1424
(F0.3
F-9.5
F0.0
tp1425
F1.0
ssS'(-3.9, -9.7, -0.7), (-3.9, -9.6, -0.7), (-3.9, -9.5, -0.7)'
p1426
(dp1427
(F-3.9
F-9.4
F-0.7
tp1428
F0.5
s(F-4.0
F-9.5
F-0.7
tp1429
F0.5
ssS'(-2.7, -9.8, 0.0), (-2.8, -9.8, 0.0), (-2.9, -9.8, 0.0)'
p1430
(dp1431
(F-3.0
F-9.8
F0.0
tp1432
F1.0
ssS'(1.9, -5.3, 0.7), (1.9, -5.4, 0.7), (1.9, -5.5, 0.7)'
p1433
(dp1434
(F1.9
F-5.6
F0.7
tp1435
F1.0
ssS'(2.0, -6.2, 0.7), (2.0, -6.3, 0.7), (2.0, -6.4, 0.7)'
p1436
(dp1437
(F1.9
F-6.4
F0.7
tp1438
F0.1111111111111111
s(F2.0
F-6.5
F0.7
tp1439
F0.8888888888888888
ssS'(-4.0, -5.7, -0.7), (-4.0, -5.6, -0.7), (-4.0, -5.5, -0.7)'
p1440
(dp1441
(F-4.0
F-5.4
F-0.7
tp1442
F1.0
ssS'(-1.6, -9.7, 0.0), (-1.7, -9.7, 0.0), (-1.8, -9.7, 0.0)'
p1443
(dp1444
(F-1.9
F-9.7
F0.0
tp1445
F0.9090909090909091
s(F-1.8
F-9.8
F0.0
tp1446
F0.09090909090909091
ssS'(-3.9, -9.8, -0.1), (-3.9, -9.8, -0.2), (-3.9, -9.8, -0.3)'
p1447
(dp1448
(F-3.9
F-9.8
F-0.4
tp1449
F1.0
ssS'(-4.0, -8.5, -0.7), (-4.0, -8.4, -0.7), (-4.0, -8.3, -0.7)'
p1450
(dp1451
(F-4.1
F-8.3
F-0.7
tp1452
F0.5
s(F-4.0
F-8.2
F-0.7
tp1453
F0.5
ssS'(1.9, -1.9, 0.7), (1.9, -2.0, 0.7), (1.9, -2.1, 0.7)'
p1454
(dp1455
(F1.9
F-2.2
F0.7
tp1456
F1.0
ssS'(-3.7, -1.0, -0.7), (-3.7, -0.9, -0.7), (-3.7, -0.8, -0.7)'
p1457
(dp1458
(F-3.7
F-0.7
F-0.7
tp1459
F1.0
ssS'(-4.0, -5.6, -0.7), (-4.0, -5.5, -0.7), (-4.0, -5.4, -0.7)'
p1460
(dp1461
(F-4.0
F-5.3
F-0.7
tp1462
F1.0
ssS'(-3.6, -0.8, -0.8), (-3.6, -0.7, -0.8), (-3.6, -0.6, -0.8)'
p1463
(dp1464
(F0.1
F0.0
F1.0
tp1465
F1.0
ssS'(-4.0, -3.1, -0.7), (-4.0, -3.0, -0.7), (-3.9, -3.0, -0.7)'
p1466
(dp1467
(F-3.9
F-2.9
F-0.7
tp1468
F1.0
ssS'(-1.9, -9.8, 0.0), (-2.0, -9.8, 0.0), (-2.1, -9.8, 0.0)'
p1469
(dp1470
(F-2.2
F-9.8
F0.0
tp1471
F1.0
ssS'(1.9, -8.7, 0.7), (1.8, -8.7, 0.7), (1.8, -8.8, 0.7)'
p1472
(dp1473
(F1.8
F-8.9
F0.7
tp1474
F1.0
ssS'(-4.1, -4.7, -0.7), (-4.1, -4.6, -0.7), (-4.1, -4.5, -0.7)'
p1475
(dp1476
(F-4.1
F-4.4
F-0.7
tp1477
F0.6666666666666666
s(F-4.0
F-4.5
F-0.7
tp1478
F0.3333333333333333
ssS'(-3.8, -1.3, -0.7), (-3.8, -1.2, -0.7), (-3.8, -1.2, -0.8)'
p1479
(dp1480
(F-3.8
F-1.1
F-0.8
tp1481
F1.0
ssS'(-3.9, -5.7, -0.7), (-3.9, -5.6, -0.7), (-3.9, -5.5, -0.7)'
p1482
(dp1483
(F-3.9
F-5.4
F-0.7
tp1484
F1.0
ssS'(-3.7, -9.7, -0.1), (-3.7, -9.7, -0.2), (-3.7, -9.7, -0.3)'
p1485
(dp1486
(F-3.7
F-9.7
F-0.4
tp1487
F1.0
ssS'(0.7, -9.5, 0.1), (0.6, -9.5, 0.1), (0.5, -9.5, 0.1)'
p1488
(dp1489
(F0.4
F-9.5
F0.1
tp1490
F0.8666666666666667
s(F0.5
F-9.6
F0.1
tp1491
F0.13333333333333333
ssS'(-3.9, -4.0, -0.7), (-3.9, -3.9, -0.7), (-3.9, -3.8, -0.7)'
p1492
(dp1493
(F-3.9
F-3.7
F-0.7
tp1494
F1.0
ssS'(1.9, -4.2, 0.7), (1.9, -4.3, 0.7), (1.9, -4.4, 0.7)'
p1495
(dp1496
(F1.9
F-4.5
F0.7
tp1497
F1.0
ssS'(1.8, -1.4, 0.7), (1.8, -1.5, 0.7), (1.8, -1.6, 0.7)'
p1498
(dp1499
(F1.9
F-1.6
F0.7
tp1500
F0.375
s(F1.9
F-1.7
F0.7
tp1501
F0.125
s(F1.8
F-1.7
F0.7
tp1502
F0.5
ssS'(1.0, -9.4, 0.1), (1.0, -9.5, 0.1), (0.9, -9.5, 0.1)'
p1503
(dp1504
(F0.8
F-9.5
F0.1
tp1505
F1.0
ssS'(1.8, -7.0, 0.7), (1.8, -7.1, 0.7), (1.7, -7.1, 0.7)'
p1506
(dp1507
(F1.7
F-7.2
F0.7
tp1508
F1.0
ssS'(1.8, -1.1, 0.7), (1.8, -1.2, 0.7), (1.9, -1.2, 0.7)'
p1509
(dp1510
(F1.9
F-1.3
F0.7
tp1511
F1.0
ssS'(2.0, -7.0, 0.7), (2.0, -7.1, 0.7), (1.9, -7.1, 0.7)'
p1512
(dp1513
(F1.9
F-7.2
F0.7
tp1514
F1.0
ssS'(1.9, -6.1, 0.7), (1.8, -6.1, 0.7), (1.8, -6.2, 0.7)'
p1515
(dp1516
(F1.8
F-6.3
F0.7
tp1517
F1.0
ssS'(1.8, -9.2, 0.7), (1.8, -9.3, 0.7), (1.8, -9.3, 0.6)'
p1518
(dp1519
(F1.8
F-9.3
F0.5
tp1520
F1.0
ssS'(1.6, -9.2, 0.7), (1.6, -9.3, 0.7), (1.6, -9.4, 0.7)'
p1521
(dp1522
(F1.6
F-9.4
F0.6
tp1523
F1.0
ssS'(0.4, -9.5, 0.1), (0.4, -9.5, 0.0), (0.3, -9.5, 0.0)'
p1524
(dp1525
(F0.2
F-9.5
F0.0
tp1526
F1.0
ssS'(-2.4, -9.7, 0.0), (-2.5, -9.7, 0.0), (-2.6, -9.7, 0.0)'
p1527
(dp1528
(F-2.7
F-9.7
F0.0
tp1529
F1.0
ssS'(-4.1, -8.7, -0.7), (-4.1, -8.6, -0.7), (-4.1, -8.5, -0.7)'
p1530
(dp1531
(F-4.1
F-8.4
F-0.7
tp1532
F1.0
ssS'(-2.5, -9.7, 0.0), (-2.6, -9.7, 0.0), (-2.7, -9.7, 0.0)'
p1533
(dp1534
(F-2.8
F-9.7
F0.0
tp1535
F1.0
ssS'(-3.8, -6.7, -0.7), (-3.9, -6.7, -0.7), (-3.9, -6.6, -0.7)'
p1536
(dp1537
(F-3.9
F-6.5
F-0.7
tp1538
F1.0
ssS'(-0.7, -9.6, 0.0), (-0.8, -9.6, 0.0), (-0.9, -9.6, 0.0)'
p1539
(dp1540
(F-0.9
F-9.7
F0.0
tp1541
F0.14285714285714285
s(F-1.0
F-9.6
F0.0
tp1542
F0.8571428571428571
ssS'(-3.8, -1.5, -0.7), (-3.7, -1.5, -0.7), (-3.7, -1.4, -0.7)'
p1543
(dp1544
(F-3.7
F-1.3
F-0.7
tp1545
F1.0
ssS'(-3.7, -9.8, 0.0), (-3.8, -9.8, 0.0), (-3.8, -9.8, -0.1)'
p1546
(dp1547
(F-3.8
F-9.8
F-0.2
tp1548
F1.0
ssS'(-3.7, -2.6, -0.7), (-3.7, -2.5, -0.7), (-3.7, -2.4, -0.7)'
p1549
(dp1550
(F-3.7
F-2.3
F-0.7
tp1551
F1.0
ssS'(1.7, -9.3, 0.6), (1.7, -9.4, 0.6), (1.7, -9.4, 0.5)'
p1552
(dp1553
(F1.7
F-9.4
F0.4
tp1554
F1.0
ssS'(2.0, -8.1, 0.7), (2.0, -8.2, 0.7), (1.9, -8.2, 0.7)'
p1555
(dp1556
(F1.9
F-8.3
F0.7
tp1557
F1.0
ssS'(-1.8, -9.7, 0.0), (-1.9, -9.7, 0.0), (-1.9, -9.8, 0.0)'
p1558
(dp1559
(F-2.0
F-9.8
F0.0
tp1560
F1.0
ssS'(-4.1, -6.4, -0.7), (-4.1, -6.3, -0.7), (-4.1, -6.2, -0.7)'
p1561
(dp1562
(F-4.1
F-6.1
F-0.7
tp1563
F1.0
ssS'(-2.7, -9.7, 0.0), (-2.8, -9.7, 0.0), (-2.9, -9.7, 0.0)'
p1564
(dp1565
(F-3.0
F-9.7
F0.0
tp1566
F1.0
ssS'(-3.8, -2.6, -0.7), (-3.7, -2.6, -0.7), (-3.7, -2.5, -0.7)'
p1567
(dp1568
(F-3.7
F-2.4
F-0.7
tp1569
F1.0
ssS'(-3.8, -6.7, -0.7), (-3.8, -6.6, -0.7), (-3.9, -6.6, -0.7)'
p1570
(dp1571
(F-3.9
F-6.5
F-0.7
tp1572
F1.0
ssS'(1.9, -3.8, 0.7), (1.9, -3.9, 0.7), (1.9, -4.0, 0.7)'
p1573
(dp1574
(F1.9
F-4.1
F0.7
tp1575
F1.0
ssS'(-4.1, -3.0, -0.7), (-4.0, -3.0, -0.7), (-4.0, -2.9, -0.7)'
p1576
(dp1577
(F-4.0
F-2.8
F-0.7
tp1578
F1.0
ssS'(1.8, -6.7, 0.7), (1.8, -6.8, 0.7), (1.8, -6.9, 0.7)'
p1579
(dp1580
(F1.8
F-7.0
F0.7
tp1581
F1.0
ssS'(1.9, -5.2, 0.7), (1.9, -5.3, 0.7), (1.9, -5.4, 0.7)'
p1582
(dp1583
(F1.8
F-5.4
F0.7
tp1584
F0.3333333333333333
s(F1.9
F-5.5
F0.7
tp1585
F0.6666666666666666
ssS'(1.7, -7.8, 0.7), (1.7, -7.9, 0.7), (1.7, -8.0, 0.7)'
p1586
(dp1587
(F1.7
F-8.1
F0.7
tp1588
F1.0
ssS'(-3.7, -1.1, -0.7), (-3.7, -1.0, -0.7), (-3.7, -0.9, -0.7)'
p1589
(dp1590
(F-3.7
F-0.8
F-0.7
tp1591
F1.0
ssS'(1.9, -5.8, 0.7), (1.9, -5.9, 0.7), (1.9, -6.0, 0.7)'
p1592
(dp1593
(F1.9
F-6.1
F0.7
tp1594
F1.0
ssS'(-3.9, -5.8, -0.7), (-3.9, -5.7, -0.7), (-3.9, -5.6, -0.7)'
p1595
(dp1596
(F-3.9
F-5.5
F-0.7
tp1597
F1.0
ssS'(-3.8, -6.9, -0.7), (-3.8, -6.8, -0.7), (-3.8, -6.7, -0.7)'
p1598
(dp1599
(F-3.9
F-6.7
F-0.7
tp1600
F0.5
s(F-3.8
F-6.6
F-0.7
tp1601
F0.5
ssS'(2.0, -4.7, 0.7), (2.0, -4.8, 0.7), (2.0, -4.9, 0.7)'
p1602
(dp1603
(F2.0
F-5.0
F0.7
tp1604
F1.0
ssS'(-3.9, -1.5, -0.7), (-3.9, -1.4, -0.7), (-3.9, -1.3, -0.7)'
p1605
(dp1606
(F-3.9
F-1.2
F-0.7
tp1607
F1.0
ssS'(-3.8, -9.3, -0.7), (-3.8, -9.2, -0.7), (-3.8, -9.1, -0.7)'
p1608
(dp1609
(F-3.9
F-9.1
F-0.7
tp1610
F0.2
s(F-3.8
F-9.0
F-0.7
tp1611
F0.8
ssS'(2.0, -4.6, 0.7), (2.0, -4.7, 0.7), (2.0, -4.8, 0.7)'
p1612
(dp1613
(F2.0
F-4.9
F0.7
tp1614
F1.0
ssS'(1.8, -7.1, 0.7), (1.8, -7.2, 0.7), (1.8, -7.3, 0.7)'
p1615
(dp1616
(F1.8
F-7.4
F0.7
tp1617
F1.0
ssS'(1.7, -8.6, 0.7), (1.6, -8.6, 0.7), (1.6, -8.7, 0.7)'
p1618
(dp1619
(F1.6
F-8.8
F0.7
tp1620
F1.0
ssS'(1.7, -8.5, 0.7), (1.7, -8.6, 0.7), (1.6, -8.6, 0.7)'
p1621
(dp1622
(F1.6
F-8.7
F0.7
tp1623
F1.0
ssS'(-2.5, -9.8, 0.0), (-2.6, -9.8, 0.0), (-2.7, -9.8, 0.0)'
p1624
(dp1625
(F-2.8
F-9.8
F0.0
tp1626
F1.0
ssS'(-3.4, -9.8, 0.0), (-3.5, -9.8, 0.0), (-3.5, -9.9, 0.0)'
p1627
(dp1628
(F-3.6
F-9.9
F0.0
tp1629
F1.0
ssS'(0.4, -9.5, 0.0), (0.3, -9.5, 0.0), (0.2, -9.5, 0.0)'
p1630
(dp1631
(F0.1
F-9.5
F0.0
tp1632
F1.0
ssS'(-4.0, -9.7, -0.1), (-4.0, -9.7, -0.2), (-4.0, -9.7, -0.3)'
p1633
(dp1634
(F-4.0
F-9.7
F-0.4
tp1635
F1.0
ssS'(1.8, -2.1, 0.7), (1.8, -2.2, 0.7), (1.8, -2.3, 0.7)'
p1636
(dp1637
(F1.8
F-2.4
F0.7
tp1638
F1.0
ssS'(2.0, -8.4, 0.7), (1.9, -8.4, 0.7), (1.9, -8.5, 0.7)'
p1639
(dp1640
(F1.9
F-8.6
F0.7
tp1641
F1.0
ssS'(-1.2, -9.7, 0.0), (-1.2, -9.8, 0.0), (-1.3, -9.8, 0.0)'
p1642
(dp1643
(F-1.4
F-9.8
F0.0
tp1644
F1.0
ssS'(1.8, -1.8, 0.7), (1.8, -1.9, 0.7), (1.8, -2.0, 0.7)'
p1645
(dp1646
(F1.8
F-2.1
F0.7
tp1647
F1.0
ssS'(1.8, -6.2, 0.7), (1.8, -6.3, 0.7), (1.8, -6.4, 0.7)'
p1648
(dp1649
(F1.8
F-6.5
F0.7
tp1650
F1.0
ssS'(-3.8, -7.9, -0.7), (-3.8, -7.8, -0.7), (-3.9, -7.8, -0.7)'
p1651
(dp1652
(F-3.9
F-7.7
F-0.7
tp1653
F1.0
ssS'(-4.0, -4.8, -0.7), (-4.0, -4.7, -0.7), (-4.0, -4.6, -0.7)'
p1654
(dp1655
(F-4.0
F-4.5
F-0.7
tp1656
F1.0
ssS'(-4.1, -7.0, -0.7), (-4.1, -6.9, -0.7), (-4.1, -6.8, -0.7)'
p1657
(dp1658
(F-4.1
F-6.7
F-0.7
tp1659
F1.0
ssS'(1.9, -3.2, 0.7), (2.0, -3.2, 0.7), (2.0, -3.3, 0.7)'
p1660
(dp1661
(F2.0
F-3.4
F0.7
tp1662
F1.0
ssS'(1.9, -2.6, 0.7), (1.9, -2.7, 0.7), (1.9, -2.8, 0.7)'
p1663
(dp1664
(F2.0
F-2.8
F0.7
tp1665
F0.2222222222222222
s(F1.9
F-2.9
F0.7
tp1666
F0.7777777777777778
ssS'(-0.7, -9.6, 0.0), (-0.7, -9.7, 0.0), (-0.8, -9.7, 0.0)'
p1667
(dp1668
(F-0.9
F-9.7
F0.0
tp1669
F1.0
ssS'(-2.6, -9.7, 0.0), (-2.7, -9.7, 0.0), (-2.8, -9.7, 0.0)'
p1670
(dp1671
(F-2.9
F-9.7
F0.0
tp1672
F1.0
ssS'(-3.8, -2.3, -0.7), (-3.7, -2.3, -0.7), (-3.7, -2.2, -0.7)'
p1673
(dp1674
(F-3.7
F-2.1
F-0.7
tp1675
F1.0
ssS'(-3.9, -9.8, -0.5), (-3.9, -9.8, -0.6), (-3.9, -9.8, -0.7)'
p1676
(dp1677
(F-3.9
F-9.7
F-0.7
tp1678
F1.0
ssS'(-3.9, -5.3, -0.7), (-3.9, -5.2, -0.7), (-3.9, -5.1, -0.7)'
p1679
(dp1680
(F-3.9
F-5.0
F-0.7
tp1681
F1.0
ssS'(-3.6, -9.9, -0.4), (-3.6, -9.9, -0.5), (-3.6, -9.9, -0.6)'
p1682
(dp1683
(F-3.6
F-9.9
F-0.7
tp1684
F1.0
ssS'(2.0, -6.8, 0.7), (2.0, -6.9, 0.7), (2.0, -7.0, 0.7)'
p1685
(dp1686
(F2.0
F-7.1
F0.7
tp1687
F1.0
ssS'(-4.0, -6.2, -0.7), (-4.0, -6.1, -0.7), (-4.0, -6.0, -0.7)'
p1688
(dp1689
(F-4.0
F-5.9
F-0.7
tp1690
F1.0
ssS'(-3.7, -9.8, -0.5), (-3.7, -9.8, -0.6), (-3.7, -9.8, -0.7)'
p1691
(dp1692
(F-3.7
F-9.7
F-0.7
tp1693
F1.0
ssS'(1.6, -0.2, 1.0), (1.7, -0.2, 1.0), (1.8, -0.2, 1.0)'
p1694
(dp1695
(F1.8
F-0.2
F0.9
tp1696
F1.0
ssS'(1.8, -9.3, 0.5), (1.8, -9.3, 0.4), (1.8, -9.3, 0.3)'
p1697
(dp1698
(F1.8
F-9.3
F0.2
tp1699
F1.0
ssS'(-4.0, -5.4, -0.7), (-4.0, -5.3, -0.7), (-4.0, -5.2, -0.7)'
p1700
(dp1701
(F-4.0
F-5.1
F-0.7
tp1702
F1.0
ssS'(-3.9, -3.2, -0.7), (-3.9, -3.1, -0.7), (-3.9, -3.0, -0.7)'
p1703
(dp1704
(F-3.9
F-2.9
F-0.7
tp1705
F1.0
ssS'(1.9, -2.5, 0.7), (1.9, -2.6, 0.7), (1.9, -2.7, 0.7)'
p1706
(dp1707
(F1.9
F-2.8
F0.7
tp1708
F0.8
s(F2.0
F-2.7
F0.7
tp1709
F0.2
ssS'(-3.9, -8.4, -0.7), (-3.9, -8.3, -0.7), (-3.9, -8.2, -0.7)'
p1710
(dp1711
(F-3.9
F-8.1
F-0.7
tp1712
F1.0
ssS'(-0.7, -9.7, 0.0), (-0.8, -9.7, 0.0), (-0.9, -9.7, 0.0)'
p1713
(dp1714
(F-1.0
F-9.7
F0.0
tp1715
F1.0
ssS'(-3.8, -1.1, -0.8), (-3.8, -1.0, -0.8), (-3.8, -0.9, -0.8)'
p1716
(dp1717
(F-3.8
F-0.8
F-0.8
tp1718
F1.0
ssS'(0.1, -9.5, 0.0), (0.0, -9.5, 0.0), (-0.1, -9.5, 0.0)'
p1719
(dp1720
(F-0.1
F-9.6
F0.0
tp1721
F1.0
ssS'(-4.1, -4.5, -0.7), (-4.0, -4.5, -0.7), (-4.0, -4.4, -0.7)'
p1722
(dp1723
(F-4.0
F-4.3
F-0.7
tp1724
F1.0
ssS'(1.7, -0.5, 0.7), (1.7, -0.6, 0.7), (1.7, -0.7, 0.7)'
p1725
(dp1726
(F1.7
F-0.8
F0.7
tp1727
F0.6666666666666666
s(F1.8
F-0.7
F0.7
tp1728
F0.3333333333333333
ssS'(1.7, -0.6, 0.7), (1.7, -0.7, 0.7), (1.8, -0.7, 0.7)'
p1729
(dp1730
(F1.8
F-0.8
F0.7
tp1731
F1.0
ssS'(1.9, -4.6, 0.7), (1.9, -4.7, 0.7), (1.9, -4.8, 0.7)'
p1732
(dp1733
(F1.9
F-4.9
F0.7
tp1734
F1.0
ssS'(2.0, -3.2, 0.7), (2.0, -3.3, 0.7), (2.0, -3.4, 0.7)'
p1735
(dp1736
(F2.0
F-3.5
F0.7
tp1737
F1.0
ssS'(1.7, -0.7, 0.7), (1.7, -0.8, 0.7), (1.8, -0.8, 0.7)'
p1738
(dp1739
(F1.8
F-0.9
F0.7
tp1740
F1.0
ssS'(-3.8, -9.1, -0.7), (-3.8, -9.0, -0.7), (-3.8, -8.9, -0.7)'
p1741
(dp1742
(F-3.8
F-8.8
F-0.7
tp1743
F1.0
ssS'(1.7, -0.2, 0.9), (1.7, -0.2, 0.8), (1.7, -0.2, 0.7)'
p1744
(dp1745
(F1.7
F-0.3
F0.7
tp1746
F1.0
ssS'(-4.0, -8.3, -0.7), (-4.0, -8.2, -0.7), (-4.0, -8.1, -0.7)'
p1747
(dp1748
(F-4.0
F-8.0
F-0.7
tp1749
F1.0
ssS'(1.9, -7.2, 0.7), (1.9, -7.3, 0.7), (1.9, -7.4, 0.7)'
p1750
(dp1751
(F1.9
F-7.5
F0.7
tp1752
F1.0
ssS'(-3.7, -8.3, -0.7), (-3.8, -8.3, -0.7), (-3.8, -8.2, -0.7)'
p1753
(dp1754
(F-3.8
F-8.1
F-0.7
tp1755
F1.0
ssS'(-3.6, -1.0, -0.8), (-3.6, -0.9, -0.8), (-3.6, -0.8, -0.8)'
p1756
(dp1757
(F-3.5
F-0.8
F-0.8
tp1758
F1.0
ssS'(-0.7, -9.7, 0.1), (-0.8, -9.7, 0.1), (-0.8, -9.7, 0.0)'
p1759
(dp1760
(F-0.9
F-9.7
F0.0
tp1761
F1.0
ssS'(1.8, -2.1, 0.7), (1.8, -2.2, 0.7), (1.9, -2.2, 0.7)'
p1762
(dp1763
(F1.9
F-2.3
F0.7
tp1764
F1.0
ssS'(-3.8, -0.8, -0.7), (-3.8, -0.7, -0.7), (0.1, 0.0, 1.0)'
p1765
(dp1766
(F0.2
F0.0
F1.0
tp1767
F1.0
ssS'(-3.9, -5.2, -0.7), (-3.9, -5.1, -0.7), (-3.9, -5.0, -0.7)'
p1768
(dp1769
(F-3.9
F-4.9
F-0.7
tp1770
F1.0
ssS'(-3.6, -9.8, 0.0), (-3.7, -9.8, 0.0), (-3.8, -9.8, 0.0)'
p1771
(dp1772
(F-3.9
F-9.8
F0.0
tp1773
F0.3333333333333333
s(F-3.8
F-9.8
F-0.1
tp1774
F0.6666666666666666
ssS'(-3.8, -9.8, -0.7), (-3.8, -9.7, -0.7), (-3.9, -9.7, -0.7)'
p1775
(dp1776
(F-3.9
F-9.6
F-0.7
tp1777
F1.0
ssS'(-3.8, -2.7, -0.7), (-3.8, -2.6, -0.7), (-3.7, -2.6, -0.7)'
p1778
(dp1779
(F-3.7
F-2.5
F-0.7
tp1780
F1.0
ssS'(-4.1, -8.3, -0.7), (-4.1, -8.2, -0.7), (-4.1, -8.1, -0.7)'
p1781
(dp1782
(F-4.1
F-8.0
F-0.7
tp1783
F1.0
ssS'(-2.9, -9.7, 0.0), (-3.0, -9.7, 0.0), (-3.1, -9.7, 0.0)'
p1784
(dp1785
(F-3.2
F-9.7
F0.0
tp1786
F1.0
ssS'(-3.6, -0.9, -0.8), (-3.6, -0.8, -0.8), (-3.5, -0.8, -0.8)'
p1787
(dp1788
(F-3.5
F-0.7
F-0.8
tp1789
F1.0
ssS'(1.7, -9.4, 0.5), (1.7, -9.4, 0.4), (1.7, -9.4, 0.3)'
p1790
(dp1791
(F1.7
F-9.4
F0.2
tp1792
F1.0
ssS'(0.2, -9.5, 0.0), (0.1, -9.5, 0.0), (0.0, -9.5, 0.0)'
p1793
(dp1794
(F-0.1
F-9.5
F0.0
tp1795
F1.0
ssS'(2.0, -5.7, 0.7), (2.0, -5.8, 0.7), (2.0, -5.9, 0.7)'
p1796
(dp1797
(F2.0
F-6.0
F0.7
tp1798
F1.0
ssS'(1.9, -8.1, 0.7), (1.9, -8.2, 0.7), (1.8, -8.2, 0.7)'
p1799
(dp1800
(F1.8
F-8.3
F0.7
tp1801
F1.0
ssS'(-3.8, -7.5, -0.7), (-3.8, -7.4, -0.7), (-3.8, -7.3, -0.7)'
p1802
(dp1803
(F-3.8
F-7.2
F-0.7
tp1804
F1.0
ssS'(0.9, -0.1, 1.0), (1.0, -0.1, 1.0), (1.1, -0.1, 1.0)'
p1805
(dp1806
(F1.2
F-0.1
F1.0
tp1807
F1.0
ssS'(-3.8, -1.0, -0.7), (-3.8, -0.9, -0.7), (-3.8, -0.8, -0.7)'
p1808
(dp1809
(F-3.8
F-0.7
F-0.7
tp1810
F0.6666666666666666
s(F-3.7
F-0.8
F-0.7
tp1811
F0.3333333333333333
ssS'(1.9, -6.7, 0.7), (1.9, -6.8, 0.7), (1.9, -6.9, 0.7)'
p1812
(dp1813
(F1.9
F-7.0
F0.7
tp1814
F1.0
ssS'(-3.8, -1.0, -0.8), (-3.8, -0.9, -0.8), (-3.8, -0.8, -0.8)'
p1815
(dp1816
(F-3.8
F-0.7
F-0.8
tp1817
F1.0
ssS'(0.3, -9.5, 0.1), (0.2, -9.5, 0.1), (0.1, -9.5, 0.1)'
p1818
(dp1819
(F0.1
F-9.5
F0.0
tp1820
F0.6666666666666666
s(F0.1
F-9.6
F0.1
tp1821
F0.3333333333333333
ssS'(-3.6, -0.8, -0.7), (-3.6, -0.7, -0.7), (-3.6, -0.6, -0.7)'
p1822
(dp1823
(F-3.6
F-0.6
F-0.8
tp1824
F1.0
ssS'(1.5, -0.1, 1.0), (1.6, -0.1, 1.0), (1.6, -0.2, 1.0)'
p1825
(dp1826
(F1.7
F-0.2
F1.0
tp1827
F1.0
ssS'(-3.1, -9.9, 0.0), (-3.2, -9.9, 0.0), (-3.3, -9.9, 0.0)'
p1828
(dp1829
(F-3.4
F-9.9
F0.0
tp1830
F1.0
ssS'(-1.7, -9.8, 0.0), (-1.8, -9.8, 0.0), (-1.9, -9.8, 0.0)'
p1831
(dp1832
(F-2.0
F-9.8
F0.0
tp1833
F1.0
ssS'(-3.7, -9.5, -0.7), (-3.7, -9.4, -0.7), (-3.7, -9.3, -0.7)'
p1834
(dp1835
(F-3.7
F-9.2
F-0.7
tp1836
F1.0
ssS'(-1.5, -9.8, 0.0), (-1.6, -9.8, 0.0), (-1.7, -9.8, 0.0)'
p1837
(dp1838
(F-1.8
F-9.8
F0.0
tp1839
F1.0
ssS'(-3.9, -9.7, -0.0), (-4.0, -9.7, -0.0), (-4.0, -9.7, -0.1)'
p1840
(dp1841
(F-4.0
F-9.7
F-0.2
tp1842
F1.0
ssS'(1.7, -0.3, 0.8), (1.7, -0.4, 0.8), (1.7, -0.5, 0.8)'
p1843
(dp1844
(F1.7
F-0.6
F0.8
tp1845
F1.0
ssS'(1.8, -7.8, 0.7), (1.8, -7.9, 0.7), (1.8, -8.0, 0.7)'
p1846
(dp1847
(F1.8
F-8.1
F0.7
tp1848
F1.0
ssS'(1.9, -2.8, 0.7), (1.9, -2.9, 0.7), (1.9, -3.0, 0.7)'
p1849
(dp1850
(F1.9
F-3.1
F0.7
tp1851
F1.0
ssS'(-3.7, -9.8, -0.2), (-3.7, -9.8, -0.3), (-3.7, -9.8, -0.4)'
p1852
(dp1853
(F-3.7
F-9.8
F-0.5
tp1854
F1.0
ssS'(-4.0, -8.6, -0.7), (-4.0, -8.5, -0.7), (-4.0, -8.4, -0.7)'
p1855
(dp1856
(F-4.0
F-8.3
F-0.7
tp1857
F0.6666666666666666
s(F-4.1
F-8.4
F-0.7
tp1858
F0.3333333333333333
ssS'(1.7, -0.6, 0.7), (1.7, -0.7, 0.7), (1.7, -0.8, 0.7)'
p1859
(dp1860
(F1.7
F-0.9
F0.7
tp1861
F0.5
s(F1.8
F-0.8
F0.7
tp1862
F0.5
ssS'(1.8, -7.5, 0.7), (1.8, -7.6, 0.7), (1.8, -7.7, 0.7)'
p1863
(dp1864
(F1.8
F-7.8
F0.7
tp1865
F1.0
ssS'(-3.7, -0.7, -0.8), (0.1, 0.0, 1.0), (0.2, 0.0, 1.0)'
p1866
(dp1867
(F0.3
F-0.0
F1.0
tp1868
F1.0
ssS'(1.5, -9.4, 0.1), (1.4, -9.4, 0.1), (1.3, -9.4, 0.1)'
p1869
(dp1870
(F1.2
F-9.4
F0.1
tp1871
F1.0
ssS'(2.0, -6.0, 0.7), (2.0, -6.1, 0.7), (2.0, -6.2, 0.7)'
p1872
(dp1873
(F2.0
F-6.3
F0.7
tp1874
F1.0
ssS'(-4.0, -3.6, -0.7), (-3.9, -3.6, -0.7), (-3.9, -3.5, -0.7)'
p1875
(dp1876
(F-3.9
F-3.4
F-0.7
tp1877
F1.0
ssS'(-0.5, -9.6, 0.0), (-0.6, -9.6, 0.0), (-0.6, -9.7, 0.0)'
p1878
(dp1879
(F-0.7
F-9.7
F0.0
tp1880
F1.0
ssS'(-0.7, -9.7, 0.1), (-0.7, -9.7, 0.0), (-0.8, -9.7, 0.0)'
p1881
(dp1882
(F-0.9
F-9.7
F0.0
tp1883
F1.0
ssS'(-1.8, -9.8, 0.0), (-1.9, -9.8, 0.0), (-2.0, -9.8, 0.0)'
p1884
(dp1885
(F-2.1
F-9.8
F0.0
tp1886
F1.0
ssS'(1.9, -5.4, 0.7), (1.9, -5.5, 0.7), (1.9, -5.6, 0.7)'
p1887
(dp1888
(F1.9
F-5.7
F0.7
tp1889
F1.0
ssS'(-3.0, -9.9, 0.0), (-3.1, -9.9, 0.0), (-3.2, -9.9, 0.0)'
p1890
(dp1891
(F-3.3
F-9.9
F0.0
tp1892
F1.0
ssS'(1.7, -7.7, 0.7), (1.7, -7.8, 0.7), (1.7, -7.9, 0.7)'
p1893
(dp1894
(F1.7
F-8.0
F0.7
tp1895
F1.0
ssS'(-4.1, -6.2, -0.7), (-4.1, -6.1, -0.7), (-4.1, -6.0, -0.7)'
p1896
(dp1897
(F-4.1
F-5.9
F-0.7
tp1898
F1.0
ssS'(1.8, -9.4, 0.7), (1.8, -9.4, 0.6), (1.8, -9.4, 0.5)'
p1899
(dp1900
(F1.8
F-9.4
F0.4
tp1901
F1.0
ssS'(1.9, -1.7, 0.7), (1.9, -1.8, 0.7), (1.9, -1.9, 0.7)'
p1902
(dp1903
(F1.9
F-2.0
F0.7
tp1904
F1.0
ssS'(2.0, -8.0, 0.7), (2.0, -8.1, 0.7), (2.0, -8.2, 0.7)'
p1905
(dp1906
(F1.9
F-8.2
F0.7
tp1907
F0.6666666666666666
s(F2.0
F-8.3
F0.7
tp1908
F0.3333333333333333
ssS'(1.8, -2.5, 0.7), (1.8, -2.6, 0.7), (1.8, -2.7, 0.7)'
p1909
(dp1910
(F1.8
F-2.8
F0.7
tp1911
F1.0
ssS'(-3.9, -3.4, -0.7), (-3.8, -3.4, -0.7), (-3.8, -3.3, -0.7)'
p1912
(dp1913
(F-3.8
F-3.2
F-0.7
tp1914
F1.0
ssS'(-2.2, -9.7, 0.0), (-2.3, -9.7, 0.0), (-2.4, -9.7, 0.0)'
p1915
(dp1916
(F-2.5
F-9.7
F0.0
tp1917
F1.0
ssS'(-4.0, -7.3, -0.7), (-4.0, -7.2, -0.7), (-4.0, -7.1, -0.7)'
p1918
(dp1919
(F-4.0
F-7.0
F-0.7
tp1920
F1.0
ssS'(2.0, -3.6, 0.7), (2.0, -3.7, 0.7), (2.0, -3.8, 0.7)'
p1921
(dp1922
(F2.0
F-3.9
F0.7
tp1923
F1.0
ssS'(1.7, -9.3, 0.5), (1.7, -9.3, 0.4), (1.7, -9.3, 0.3)'
p1924
(dp1925
(F1.7
F-9.3
F0.2
tp1926
F1.0
ssS'(1.7, -0.2, 0.8), (1.7, -0.2, 0.7), (1.7, -0.3, 0.7)'
p1927
(dp1928
(F1.8
F-0.3
F0.7
tp1929
F0.1
s(F1.7
F-0.4
F0.7
tp1930
F0.9
ssS'(2.0, -6.6, 0.7), (2.0, -6.7, 0.7), (2.0, -6.8, 0.7)'
p1931
(dp1932
(F2.0
F-6.9
F0.7
tp1933
F1.0
ssS'(-3.6, -9.9, 0.0), (-3.6, -9.9, -0.1), (-3.6, -9.9, -0.2)'
p1934
(dp1935
(F-3.6
F-9.9
F-0.3
tp1936
F1.0
ssS'(-3.9, -8.7, -0.7), (-3.9, -8.6, -0.7), (-3.9, -8.5, -0.7)'
p1937
(dp1938
(F-3.9
F-8.4
F-0.7
tp1939
F1.0
ssS'(-3.9, -7.9, -0.7), (-3.9, -7.8, -0.7), (-3.9, -7.7, -0.7)'
p1940
(dp1941
(F-3.9
F-7.6
F-0.7
tp1942
F1.0
ssS'(-3.9, -4.9, -0.7), (-3.9, -4.8, -0.7), (-3.9, -4.7, -0.7)'
p1943
(dp1944
(F-3.9
F-4.6
F-0.7
tp1945
F1.0
ssS'(0.9, -9.4, 0.1), (0.9, -9.5, 0.1), (0.8, -9.5, 0.1)'
p1946
(dp1947
(F0.7
F-9.5
F0.1
tp1948
F1.0
ssS'(1.8, -8.5, 0.7), (1.8, -8.6, 0.7), (1.8, -8.7, 0.7)'
p1949
(dp1950
(F1.8
F-8.8
F0.7
tp1951
F0.6666666666666666
s(F1.7
F-8.7
F0.7
tp1952
F0.3333333333333333
ssS'(-3.6, -1.5, -0.7), (-3.6, -1.4, -0.7), (-3.6, -1.4, -0.8)'
p1953
(dp1954
(F-3.6
F-1.3
F-0.8
tp1955
F1.0
ssS'(-4.1, -3.4, -0.7), (-4.1, -3.3, -0.7), (-4.1, -3.2, -0.7)'
p1956
(dp1957
(F-4.1
F-3.1
F-0.7
tp1958
F1.0
ssS'(-4.0, -9.6, -0.7), (-4.0, -9.5, -0.7), (-4.0, -9.4, -0.7)'
p1959
(dp1960
(F-4.0
F-9.3
F-0.7
tp1961
F1.0
ssS'(-3.8, -2.2, -0.7), (-3.8, -2.1, -0.7), (-3.8, -2.0, -0.7)'
p1962
(dp1963
(F-3.7
F-2.0
F-0.7
tp1964
F0.5
s(F-3.8
F-1.9
F-0.7
tp1965
F0.5
ssS'(1.8, -0.5, 0.7), (1.8, -0.6, 0.7), (1.8, -0.7, 0.7)'
p1966
(dp1967
(F1.8
F-0.8
F0.7
tp1968
F1.0
ssS'(-3.7, -9.7, -0.7), (-3.8, -9.7, -0.7), (-3.8, -9.6, -0.7)'
p1969
(dp1970
(F-3.8
F-9.5
F-0.7
tp1971
F1.0
ssS'(1.7, -0.7, 0.7), (1.8, -0.7, 0.7), (1.8, -0.8, 0.7)'
p1972
(dp1973
(F1.8
F-0.9
F0.7
tp1974
F1.0
ssS'(-3.7, -0.9, -0.7), (-3.7, -0.8, -0.7), (-3.7, -0.7, -0.7)'
p1975
(dp1976
(F-3.7
F-0.7
F-0.8
tp1977
F1.0
ssS'(1.7, -8.3, 0.7), (1.6, -8.3, 0.7), (1.6, -8.4, 0.7)'
p1978
(dp1979
(F1.6
F-8.5
F0.7
tp1980
F1.0
ssS'(1.8, -9.3, 0.3), (1.8, -9.3, 0.2), (1.8, -9.3, 0.1)'
p1981
(dp1982
(F1.8
F-9.4
F0.1
tp1983
F0.6666666666666666
s(F1.7
F-9.3
F0.1
tp1984
F0.3333333333333333
ssS'(-3.6, -1.6, -0.7), (-3.6, -1.5, -0.7), (-3.6, -1.4, -0.7)'
p1985
(dp1986
(F-3.6
F-1.3
F-0.7
tp1987
F0.5
s(F-3.6
F-1.4
F-0.8
tp1988
F0.5
ssS'(-3.6, -9.7, 0.0), (-3.7, -9.7, 0.0), (-3.7, -9.7, -0.1)'
p1989
(dp1990
(F-3.7
F-9.7
F-0.2
tp1991
F1.0
ssS'(-2.8, -9.8, 0.0), (-2.9, -9.8, 0.0), (-3.0, -9.8, 0.0)'
p1992
(dp1993
(F-3.1
F-9.8
F0.0
tp1994
F1.0
ssS'(-3.4, -9.7, 0.0), (-3.5, -9.7, 0.0), (-3.6, -9.7, 0.0)'
p1995
(dp1996
(F-3.7
F-9.7
F0.0
tp1997
F1.0
ssS'(1.9, -7.6, 0.7), (1.8, -7.6, 0.7), (1.8, -7.7, 0.7)'
p1998
(dp1999
(F1.8
F-7.8
F0.7
tp2000
F1.0
ssS'(-3.6, -9.9, -0.2), (-3.6, -9.9, -0.3), (-3.6, -9.9, -0.4)'
p2001
(dp2002
(F-3.6
F-9.9
F-0.5
tp2003
F1.0
ssS'(0.1, -9.6, 0.1), (0.0, -9.6, 0.1), (-0.1, -9.6, 0.1)'
p2004
(dp2005
(F-0.2
F-9.6
F0.1
tp2006
F1.0
ssS'(-3.7, -9.9, -0.3), (-3.7, -9.9, -0.4), (-3.7, -9.9, -0.5)'
p2007
(dp2008
(F-3.7
F-9.9
F-0.6
tp2009
F1.0
ssS'(-3.7, -0.7, -0.7), (-3.7, -0.7, -0.8), (0.1, 0.0, 1.0)'
p2010
(dp2011
(F0.2
F0.0
F1.0
tp2012
F1.0
ssS'(-4.0, -8.1, -0.7), (-4.0, -8.0, -0.7), (-4.0, -7.9, -0.7)'
p2013
(dp2014
(F-4.0
F-7.8
F-0.7
tp2015
F1.0
ssS'(-3.9, -1.1, -0.7), (-3.9, -1.0, -0.7), (-3.9, -0.9, -0.7)'
p2016
(dp2017
(F-3.9
F-0.8
F-0.7
tp2018
F1.0
ssS'(-3.8, -9.1, -0.7), (-3.9, -9.1, -0.7), (-3.9, -9.0, -0.7)'
p2019
(dp2020
(F-3.9
F-8.9
F-0.7
tp2021
F1.0
ssS'(2.0, -7.2, 0.7), (2.0, -7.3, 0.7), (2.0, -7.4, 0.7)'
p2022
(dp2023
(F1.9
F-7.4
F0.7
tp2024
F0.2
s(F2.0
F-7.5
F0.7
tp2025
F0.8
ssS'(0.3, -9.6, 0.1), (0.2, -9.6, 0.1), (0.1, -9.6, 0.1)'
p2026
(dp2027
(F0.0
F-9.6
F0.1
tp2028
F1.0
ssS'(1.9, -8.4, 0.7), (1.8, -8.4, 0.7), (1.8, -8.5, 0.7)'
p2029
(dp2030
(F1.8
F-8.6
F0.7
tp2031
F1.0
ssS'(-4.0, -3.9, -0.7), (-4.0, -3.8, -0.7), (-4.0, -3.7, -0.7)'
p2032
(dp2033
(F-4.0
F-3.6
F-0.7
tp2034
F1.0
ssS'(2.0, -6.9, 0.7), (1.9, -6.9, 0.7), (1.9, -7.0, 0.7)'
p2035
(dp2036
(F1.9
F-7.1
F0.7
tp2037
F1.0
ssS'(-4.0, -2.8, -0.7), (-4.0, -2.7, -0.7), (-4.0, -2.6, -0.7)'
p2038
(dp2039
(F-4.0
F-2.5
F-0.7
tp2040
F1.0
ssS'(-3.8, -9.4, -0.7), (-3.8, -9.3, -0.7), (-3.8, -9.2, -0.7)'
p2041
(dp2042
(F-3.8
F-9.1
F-0.7
tp2043
F0.8333333333333334
s(F-3.9
F-9.2
F-0.7
tp2044
F0.16666666666666666
ssS'(-1.6, -9.7, 0.0), (-1.6, -9.8, 0.0), (-1.7, -9.8, 0.0)'
p2045
(dp2046
(F-1.8
F-9.8
F0.0
tp2047
F1.0
ssS'(1.4, -0.2, 1.0), (1.5, -0.2, 1.0), (1.6, -0.2, 1.0)'
p2048
(dp2049
(F1.7
F-0.2
F1.0
tp2050
F1.0
ssS'(-3.8, -1.2, -0.8), (-3.7, -1.2, -0.8), (-3.7, -1.1, -0.8)'
p2051
(dp2052
(F-3.7
F-1.0
F-0.8
tp2053
F1.0
ssS'(-3.9, -7.2, -0.7), (-3.9, -7.1, -0.7), (-3.9, -7.0, -0.7)'
p2054
(dp2055
(F-3.9
F-6.9
F-0.7
tp2056
F1.0
ssS'(-3.8, -2.0, -0.7), (-3.7, -2.0, -0.7), (-3.7, -1.9, -0.7)'
p2057
(dp2058
(F-3.7
F-1.8
F-0.7
tp2059
F1.0
ssS'(2.0, -4.1, 0.7), (2.0, -4.2, 0.7), (2.0, -4.3, 0.7)'
p2060
(dp2061
(F2.0
F-4.4
F0.7
tp2062
F1.0
ssS'(-3.8, -8.5, -0.7), (-3.8, -8.4, -0.7), (-3.9, -8.4, -0.7)'
p2063
(dp2064
(F-3.9
F-8.3
F-0.7
tp2065
F1.0
ssS'(1.8, -8.9, 0.7), (1.8, -9.0, 0.7), (1.8, -9.1, 0.7)'
p2066
(dp2067
(F1.8
F-9.2
F0.7
tp2068
F1.0
ssS'(1.8, -7.3, 0.7), (1.8, -7.4, 0.7), (1.8, -7.5, 0.7)'
p2069
(dp2070
(F1.8
F-7.6
F0.7
tp2071
F1.0
ssS'(0.3, -9.5, 0.1), (0.2, -9.5, 0.1), (0.2, -9.6, 0.1)'
p2072
(dp2073
(F0.1
F-9.6
F0.1
tp2074
F1.0
ssS'(-4.0, -8.2, -0.7), (-4.0, -8.1, -0.7), (-4.0, -8.0, -0.7)'
p2075
(dp2076
(F-4.0
F-7.9
F-0.7
tp2077
F1.0
ssS'(-0.7, -9.7, 0.1), (-0.8, -9.7, 0.1), (-0.9, -9.7, 0.1)'
p2078
(dp2079
(F-1.0
F-9.7
F0.1
tp2080
F1.0
ssS'(1.8, -9.4, 0.2), (1.8, -9.4, 0.1), (1.7, -9.4, 0.1)'
p2081
(dp2082
(F1.6
F-9.4
F0.1
tp2083
F1.0
ssS'(-3.8, -7.0, -0.7), (-3.8, -6.9, -0.7), (-3.8, -6.8, -0.7)'
p2084
(dp2085
(F-3.8
F-6.7
F-0.7
tp2086
F1.0
ssS'(1.7, -0.4, 0.8), (1.7, -0.4, 0.7), (1.7, -0.5, 0.7)'
p2087
(dp2088
(F1.8
F-0.5
F0.7
tp2089
F0.5
s(F1.7
F-0.6
F0.7
tp2090
F0.5
ssS'(-4.1, -5.4, -0.7), (-4.0, -5.4, -0.7), (-4.0, -5.3, -0.7)'
p2091
(dp2092
(F-4.0
F-5.2
F-0.7
tp2093
F1.0
ssS'(-3.7, -1.5, -0.7), (-3.6, -1.5, -0.7), (-3.6, -1.4, -0.7)'
p2094
(dp2095
(F-3.6
F-1.3
F-0.7
tp2096
F1.0
ssS'(1.9, -3.1, 0.7), (1.9, -3.2, 0.7), (2.0, -3.2, 0.7)'
p2097
(dp2098
(F2.0
F-3.3
F0.7
tp2099
F1.0
ssS'(-4.1, -7.5, -0.7), (-4.1, -7.4, -0.7), (-4.1, -7.3, -0.7)'
p2100
(dp2101
(F-4.1
F-7.2
F-0.7
tp2102
F1.0
ssS'(-3.7, -1.6, -0.7), (-3.7, -1.5, -0.7), (-3.6, -1.5, -0.7)'
p2103
(dp2104
(F-3.6
F-1.4
F-0.7
tp2105
F1.0
ssS'(-3.6, -9.7, 0.0), (-3.7, -9.7, 0.0), (-3.8, -9.7, -0.0)'
p2106
(dp2107
(F-3.9
F-9.7
F-0.0
tp2108
F1.0
ssS'(-3.9, -6.9, -0.7), (-3.9, -6.8, -0.7), (-4.0, -6.8, -0.7)'
p2109
(dp2110
(F-4.0
F-6.7
F-0.7
tp2111
F1.0
ssS'(-3.9, -0.9, -0.7), (-3.9, -0.8, -0.7), (-3.8, -0.8, -0.7)'
p2112
(dp2113
(F-3.8
F-0.7
F-0.7
tp2114
F1.0
ssS'(-3.8, -1.4, -0.7), (-3.8, -1.3, -0.7), (-3.8, -1.2, -0.7)'
p2115
(dp2116
(F-3.8
F-1.2
F-0.8
tp2117
F0.3333333333333333
s(F-3.8
F-1.1
F-0.7
tp2118
F0.6666666666666666
ssS'(-4.0, -4.7, -0.7), (-4.0, -4.6, -0.7), (-4.0, -4.5, -0.7)'
p2119
(dp2120
(F-4.0
F-4.4
F-0.7
tp2121
F1.0
ssS'(-3.8, -9.2, -0.7), (-3.8, -9.1, -0.7), (-3.8, -9.0, -0.7)'
p2122
(dp2123
(F-3.8
F-8.9
F-0.7
tp2124
F1.0
ssS'(-3.8, -0.9, -0.8), (-3.8, -0.8, -0.8), (-3.8, -0.7, -0.8)'
p2125
(dp2126
(F-3.7
F-0.7
F-0.8
tp2127
F1.0
ssS'(1.7, -0.2, 1.0), (1.7, -0.2, 0.9), (1.7, -0.2, 0.8)'
p2128
(dp2129
(F1.7
F-0.3
F0.8
tp2130
F0.2857142857142857
s(F1.7
F-0.2
F0.7
tp2131
F0.7142857142857143
ssS'(-4.1, -8.1, -0.7), (-4.1, -8.0, -0.7), (-4.1, -7.9, -0.7)'
p2132
(dp2133
(F-4.1
F-7.8
F-0.7
tp2134
F1.0
ssS'(-2.2, -9.8, 0.0), (-2.3, -9.8, 0.0), (-2.4, -9.8, 0.0)'
p2135
(dp2136
(F-2.5
F-9.8
F0.0
tp2137
F1.0
ssS'(1.8, -1.4, 0.7), (1.8, -1.5, 0.7), (1.9, -1.5, 0.7)'
p2138
(dp2139
(F1.9
F-1.6
F0.7
tp2140
F1.0
ssS'(-2.4, -9.8, 0.0), (-2.5, -9.8, 0.0), (-2.5, -9.9, 0.0)'
p2141
(dp2142
(F-2.6
F-9.9
F0.0
tp2143
F1.0
ssS'(1.6, -0.2, 1.0), (1.7, -0.2, 1.0), (1.7, -0.2, 0.9)'
p2144
(dp2145
(F1.7
F-0.2
F0.8
tp2146
F1.0
ssS'(0.8, -9.5, 0.1), (0.7, -9.5, 0.1), (0.6, -9.5, 0.1)'
p2147
(dp2148
(F0.5
F-9.5
F0.1
tp2149
F1.0
ssS'(1.9, -3.7, 0.7), (1.9, -3.8, 0.7), (2.0, -3.8, 0.7)'
p2150
(dp2151
(F2.0
F-3.9
F0.7
tp2152
F1.0
ssS'(1.9, -9.3, 0.2), (1.9, -9.3, 0.1), (1.8, -9.3, 0.1)'
p2153
(dp2154
(F1.8
F-9.4
F0.1
tp2155
F0.6666666666666666
s(F1.7
F-9.3
F0.1
tp2156
F0.3333333333333333
ssS'(1.8, -7.9, 0.7), (1.8, -8.0, 0.7), (1.8, -8.1, 0.7)'
p2157
(dp2158
(F1.8
F-8.2
F0.7
tp2159
F1.0
ssS'(-3.6, -1.3, -0.8), (-3.6, -1.2, -0.8), (-3.6, -1.1, -0.8)'
p2160
(dp2161
(F-3.6
F-1.0
F-0.8
tp2162
F1.0
ssS'(2.0, -8.0, 0.7), (2.0, -8.1, 0.7), (1.9, -8.1, 0.7)'
p2163
(dp2164
(F1.9
F-8.2
F0.7
tp2165
F1.0
ssS'(1.9, -8.4, 0.7), (1.9, -8.5, 0.7), (1.9, -8.6, 0.7)'
p2166
(dp2167
(F1.9
F-8.7
F0.7
tp2168
F1.0
ssS'(-0.2, -9.6, 0.1), (-0.2, -9.6, 0.0), (-0.3, -9.6, 0.0)'
p2169
(dp2170
(F-0.4
F-9.6
F0.0
tp2171
F1.0
ssS'(1.7, -7.9, 0.7), (1.7, -8.0, 0.7), (1.7, -8.1, 0.7)'
p2172
(dp2173
(F1.7
F-8.2
F0.7
tp2174
F1.0
ssS'(-3.0, -9.8, 0.0), (-3.1, -9.8, 0.0), (-3.1, -9.9, 0.0)'
p2175
(dp2176
(F-3.2
F-9.9
F0.0
tp2177
F1.0
ssS'(-3.9, -2.1, -0.7), (-3.9, -2.0, -0.7), (-3.8, -2.0, -0.7)'
p2178
(dp2179
(F-3.8
F-1.9
F-0.7
tp2180
F1.0
ssS'(-3.7, -1.7, -0.7), (-3.7, -1.6, -0.7), (-3.7, -1.5, -0.7)'
p2181
(dp2182
(F-3.6
F-1.5
F-0.7
tp2183
F0.2
s(F-3.7
F-1.4
F-0.7
tp2184
F0.8
ssS'(1.9, -5.3, 0.7), (1.9, -5.4, 0.7), (1.8, -5.4, 0.7)'
p2185
(dp2186
(F1.8
F-5.5
F0.7
tp2187
F1.0
ssS'(1.6, -8.3, 0.7), (1.6, -8.4, 0.7), (1.6, -8.5, 0.7)'
p2188
(dp2189
(F1.6
F-8.6
F0.7
tp2190
F1.0
ssS'(-4.1, -5.5, -0.7), (-4.1, -5.4, -0.7), (-4.1, -5.3, -0.7)'
p2191
(dp2192
(F-4.1
F-5.2
F-0.7
tp2193
F1.0
ssS'(-3.6, -9.5, -0.7), (-3.6, -9.4, -0.7), (-3.7, -9.4, -0.7)'
p2194
(dp2195
(F-3.7
F-9.3
F-0.7
tp2196
F1.0
ssS'(-3.9, -3.3, -0.7), (-3.9, -3.2, -0.7), (-3.8, -3.2, -0.7)'
p2197
(dp2198
(F-3.8
F-3.1
F-0.7
tp2199
F1.0
ssS'(-3.9, -9.1, -0.7), (-3.9, -9.0, -0.7), (-3.9, -8.9, -0.7)'
p2200
(dp2201
(F-3.9
F-8.8
F-0.7
tp2202
F1.0
ssS'(1.9, -8.6, 0.7), (1.9, -8.7, 0.7), (1.9, -8.8, 0.7)'
p2203
(dp2204
(F1.9
F-8.9
F0.7
tp2205
F1.0
ssS'(-3.7, -8.6, -0.7), (-3.7, -8.5, -0.7), (-3.8, -8.5, -0.7)'
p2206
(dp2207
(F-3.8
F-8.4
F-0.7
tp2208
F1.0
ssS'(1.8, -8.2, 0.7), (1.8, -8.3, 0.7), (1.8, -8.4, 0.7)'
p2209
(dp2210
(F1.8
F-8.5
F0.7
tp2211
F1.0
ssS'(-4.0, -9.5, -0.7), (-4.0, -9.4, -0.7), (-4.0, -9.3, -0.7)'
p2212
(dp2213
(F-4.0
F-9.2
F-0.7
tp2214
F1.0
ssS'(-1.4, -9.8, 0.0), (-1.5, -9.8, 0.0), (-1.6, -9.8, 0.0)'
p2215
(dp2216
(F-1.7
F-9.8
F0.0
tp2217
F1.0
ssS'(-3.9, -2.0, -0.7), (-3.9, -1.9, -0.7), (-3.9, -1.8, -0.7)'
p2218
(dp2219
(F-3.9
F-1.7
F-0.7
tp2220
F1.0
ssS'(-3.8, -2.8, -0.7), (-3.8, -2.7, -0.7), (-3.8, -2.6, -0.7)'
p2221
(dp2222
(F-3.7
F-2.6
F-0.7
tp2223
F0.14285714285714285
s(F-3.8
F-2.5
F-0.7
tp2224
F0.8571428571428571
ssS'(-3.8, -7.2, -0.7), (-3.8, -7.1, -0.7), (-3.8, -7.0, -0.7)'
p2225
(dp2226
(F-3.8
F-6.9
F-0.7
tp2227
F1.0
ssS'(1.6, -9.1, 0.7), (1.6, -9.2, 0.7), (1.6, -9.3, 0.7)'
p2228
(dp2229
(F1.6
F-9.4
F0.7
tp2230
F1.0
ssS'(-3.8, -9.8, -0.1), (-3.8, -9.8, -0.2), (-3.8, -9.8, -0.3)'
p2231
(dp2232
(F-3.8
F-9.8
F-0.4
tp2233
F1.0
ssS'(0.4, -9.5, 0.1), (0.3, -9.5, 0.1), (0.3, -9.5, 0.0)'
p2234
(dp2235
(F0.2
F-9.5
F0.0
tp2236
F1.0
ssS'(-3.8, -7.9, -0.7), (-3.9, -7.9, -0.7), (-3.9, -7.8, -0.7)'
p2237
(dp2238
(F-3.9
F-7.7
F-0.7
tp2239
F1.0
ssS'(1.6, -9.4, 0.7), (1.6, -9.4, 0.6), (1.6, -9.4, 0.5)'
p2240
(dp2241
(F1.6
F-9.4
F0.4
tp2242
F1.0
ssS'(-3.6, -9.6, -0.7), (-3.7, -9.6, -0.7), (-3.7, -9.5, -0.7)'
p2243
(dp2244
(F-3.7
F-9.4
F-0.7
tp2245
F1.0
ssS'(-4.0, -6.9, -0.7), (-4.0, -6.8, -0.7), (-4.0, -6.7, -0.7)'
p2246
(dp2247
(F-4.0
F-6.6
F-0.7
tp2248
F1.0
ssS'(-0.4, -9.6, 0.0), (-0.5, -9.6, 0.0), (-0.6, -9.6, 0.0)'
p2249
(dp2250
(F-0.6
F-9.7
F0.0
tp2251
F0.1
s(F-0.7
F-9.6
F0.0
tp2252
F0.9
ssS'(1.7, -9.4, 0.3), (1.7, -9.4, 0.2), (1.7, -9.4, 0.1)'
p2253
(dp2254
(F1.6
F-9.4
F0.1
tp2255
F1.0
ssS'(1.8, -5.6, 0.7), (1.8, -5.7, 0.7), (1.8, -5.8, 0.7)'
p2256
(dp2257
(F1.8
F-5.9
F0.7
tp2258
F1.0
ssS'(-3.8, -7.1, -0.7), (-3.8, -7.0, -0.7), (-3.8, -6.9, -0.7)'
p2259
(dp2260
(F-3.8
F-6.8
F-0.7
tp2261
F1.0
ssS'(-3.9, -9.0, -0.7), (-3.9, -8.9, -0.7), (-3.9, -8.8, -0.7)'
p2262
(dp2263
(F-3.9
F-8.7
F-0.7
tp2264
F1.0
ssS'(-3.6, -9.7, 0.0), (-3.7, -9.7, -0.0), (-3.8, -9.7, -0.0)'
p2265
(dp2266
(F-3.9
F-9.7
F-0.0
tp2267
F0.5
s(F-3.8
F-9.7
F-0.1
tp2268
F0.5
ssS'(-4.0, -3.7, -0.7), (-4.0, -3.6, -0.7), (-3.9, -3.6, -0.7)'
p2269
(dp2270
(F-3.9
F-3.5
F-0.7
tp2271
F1.0
ssS'(-3.7, -8.8, -0.7), (-3.8, -8.8, -0.7), (-3.8, -8.7, -0.7)'
p2272
(dp2273
(F-3.8
F-8.6
F-0.7
tp2274
F1.0
ssS'(-4.0, -8.8, -0.7), (-4.0, -8.7, -0.7), (-4.0, -8.6, -0.7)'
p2275
(dp2276
(F-4.0
F-8.5
F-0.7
tp2277
F1.0
ssS'(1.8, -6.3, 0.7), (1.8, -6.4, 0.7), (1.8, -6.5, 0.7)'
p2278
(dp2279
(F1.8
F-6.6
F0.7
tp2280
F1.0
ssS'(-3.8, -8.0, -0.7), (-3.8, -7.9, -0.7), (-3.9, -7.9, -0.7)'
p2281
(dp2282
(F-3.9
F-7.8
F-0.7
tp2283
F1.0
ssS'(-3.8, -8.7, -0.7), (-3.8, -8.6, -0.7), (-3.8, -8.5, -0.7)'
p2284
(dp2285
(F-3.8
F-8.4
F-0.7
tp2286
F1.0
ssS'(-3.8, -7.8, -0.7), (-3.8, -7.7, -0.7), (-3.8, -7.6, -0.7)'
p2287
(dp2288
(F-3.8
F-7.5
F-0.7
tp2289
F1.0
ssS'(1.8, -9.3, 0.1), (1.7, -9.3, 0.1), (1.7, -9.4, 0.1)'
p2290
(dp2291
(F1.6
F-9.4
F0.1
tp2292
F1.0
ssS'(-3.7, -9.2, -0.7), (-3.8, -9.2, -0.7), (-3.8, -9.1, -0.7)'
p2293
(dp2294
(F-3.8
F-9.0
F-0.7
tp2295
F1.0
ssS'(1.4, -0.1, 1.0), (1.4, -0.2, 1.0), (1.5, -0.2, 1.0)'
p2296
(dp2297
(F1.6
F-0.2
F1.0
tp2298
F1.0
ssS'(1.7, -0.2, 1.0), (1.8, -0.2, 1.0), (1.8, -0.2, 0.9)'
p2299
(dp2300
(F1.8
F-0.2
F0.8
tp2301
F1.0
ssS'(-3.8, -1.9, -0.7), (-3.8, -1.8, -0.7), (-3.8, -1.7, -0.7)'
p2302
(dp2303
(F-3.8
F-1.6
F-0.7
tp2304
F0.75
s(F-3.7
F-1.7
F-0.7
tp2305
F0.25
ssS'(1.7, -0.7, 0.7), (1.7, -0.8, 0.7), (1.7, -0.9, 0.7)'
p2306
(dp2307
(F1.8
F-0.9
F0.7
tp2308
F1.0
ssS'(1.9, -3.3, 0.7), (1.9, -3.4, 0.7), (1.9, -3.5, 0.7)'
p2309
(dp2310
(F1.9
F-3.6
F0.7
tp2311
F1.0
ssS'(1.9, -8.5, 0.7), (1.8, -8.5, 0.7), (1.8, -8.6, 0.7)'
p2312
(dp2313
(F1.8
F-8.7
F0.7
tp2314
F1.0
ssS'(2.0, -5.4, 0.7), (2.0, -5.5, 0.7), (2.0, -5.6, 0.7)'
p2315
(dp2316
(F1.9
F-5.6
F0.7
tp2317
F0.1
s(F2.0
F-5.7
F0.7
tp2318
F0.9
ssS'(-3.8, -8.7, -0.7), (-3.8, -8.6, -0.7), (-3.9, -8.5, -0.7)'
p2319
(dp2320
(F-3.9
F-8.4
F-0.7
tp2321
F1.0
ssS'(-4.1, -7.7, -0.7), (-4.1, -7.6, -0.7), (-4.1, -7.5, -0.7)'
p2322
(dp2323
(F-4.1
F-7.4
F-0.7
tp2324
F1.0
ssS'(-3.9, -9.3, -0.7), (-3.9, -9.2, -0.7), (-3.9, -9.1, -0.7)'
p2325
(dp2326
(F-3.9
F-9.0
F-0.7
tp2327
F1.0
ssS'(2.0, -2.5, 0.7), (2.0, -2.6, 0.7), (2.0, -2.7, 0.7)'
p2328
(dp2329
(F2.0
F-2.8
F0.7
tp2330
F1.0
ssS'(1.8, -6.0, 0.7), (1.8, -6.1, 0.7), (1.8, -6.2, 0.7)'
p2331
(dp2332
(F1.8
F-6.3
F0.7
tp2333
F1.0
ssS'(-3.9, -7.5, -0.7), (-3.9, -7.4, -0.7), (-3.9, -7.3, -0.7)'
p2334
(dp2335
(F-3.9
F-7.2
F-0.7
tp2336
F1.0
ssS'(-4.0, -7.2, -0.7), (-4.0, -7.1, -0.7), (-4.0, -7.0, -0.7)'
p2337
(dp2338
(F-4.0
F-6.9
F-0.7
tp2339
F1.0
ssS'(1.6, -8.7, 0.7), (1.6, -8.8, 0.7), (1.6, -8.9, 0.7)'
p2340
(dp2341
(F1.6
F-9.0
F0.7
tp2342
F1.0
ssS'(1.6, -9.0, 0.7), (1.6, -9.1, 0.7), (1.5, -9.1, 0.7)'
p2343
(dp2344
(F1.5
F-9.2
F0.7
tp2345
F1.0
ssS'(1.7, -9.2, 0.7), (1.6, -9.2, 0.7), (1.6, -9.3, 0.7)'
p2346
(dp2347
(F1.6
F-9.4
F0.7
tp2348
F1.0
ssS'(-3.9, -7.3, -0.7), (-3.9, -7.2, -0.7), (-3.9, -7.1, -0.7)'
p2349
(dp2350
(F-3.9
F-7.0
F-0.7
tp2351
F1.0
ssS'(-3.8, -7.7, -0.7), (-3.8, -7.6, -0.7), (-3.8, -7.5, -0.7)'
p2352
(dp2353
(F-3.8
F-7.4
F-0.7
tp2354
F1.0
ssS'(1.9, -3.9, 0.7), (1.9, -4.0, 0.7), (1.9, -4.1, 0.7)'
p2355
(dp2356
(F1.9
F-4.2
F0.7
tp2357
F1.0
ssS'(-3.8, -1.4, -0.7), (-3.8, -1.4, -0.8), (-3.8, -1.3, -0.8)'
p2358
(dp2359
(F-3.8
F-1.2
F-0.8
tp2360
F1.0
ssS'(-3.4, -9.8, 0.0), (-3.5, -9.8, 0.0), (-3.6, -9.8, 0.0)'
p2361
(dp2362
(F-3.6
F-9.8
F-0.1
tp2363
F0.16666666666666666
s(F-3.7
F-9.8
F0.0
tp2364
F0.8333333333333334
ssS'(2.0, -5.5, 0.7), (2.0, -5.6, 0.7), (2.0, -5.7, 0.7)'
p2365
(dp2366
(F2.0
F-5.8
F0.7
tp2367
F1.0
ssS'(1.8, -1.6, 0.7), (1.9, -1.6, 0.7), (1.9, -1.7, 0.7)'
p2368
(dp2369
(F1.9
F-1.8
F0.7
tp2370
F1.0
ssS'(2.0, -5.3, 0.7), (2.0, -5.4, 0.7), (1.9, -5.4, 0.7)'
p2371
(dp2372
(F1.9
F-5.5
F0.7
tp2373
F1.0
ssS'(-3.7, -0.7, -0.8), (-3.7, -0.6, -0.8), (-3.7, -0.5, -0.8)'
p2374
(dp2375
(F0.1
F0.0
F1.0
tp2376
F1.0
ssS'(0.8, -0.1, 1.0), (0.9, -0.1, 1.0), (1.0, -0.1, 1.0)'
p2377
(dp2378
(F1.1
F-0.1
F1.0
tp2379
F1.0
ssS'(-3.9, -4.5, -0.7), (-3.9, -4.4, -0.7), (-3.9, -4.3, -0.7)'
p2380
(dp2381
(F-3.9
F-4.2
F-0.7
tp2382
F1.0
ssS'(1.9, -1.2, 0.7), (1.9, -1.3, 0.7), (1.9, -1.4, 0.7)'
p2383
(dp2384
(F1.9
F-1.5
F0.7
tp2385
F1.0
ssS'(-3.8, -9.7, -0.2), (-3.8, -9.7, -0.3), (-3.8, -9.7, -0.4)'
p2386
(dp2387
(F-3.8
F-9.7
F-0.5
tp2388
F1.0
ssS'(1.9, -3.2, 0.7), (1.9, -3.3, 0.7), (2.0, -3.3, 0.7)'
p2389
(dp2390
(F2.0
F-3.4
F0.7
tp2391
F1.0
ssS'(-3.6, -9.9, -0.3), (-3.6, -9.9, -0.4), (-3.6, -9.9, -0.5)'
p2392
(dp2393
(F-3.6
F-9.9
F-0.6
tp2394
F1.0
ssS'(1.9, -5.5, 0.7), (1.9, -5.6, 0.7), (1.9, -5.7, 0.7)'
p2395
(dp2396
(F1.9
F-5.8
F0.7
tp2397
F1.0
ssS'(-3.8, -1.7, -0.7), (-3.7, -1.7, -0.7), (-3.7, -1.6, -0.7)'
p2398
(dp2399
(F-3.7
F-1.5
F-0.7
tp2400
F1.0
ssS'(1.9, -2.7, 0.7), (2.0, -2.7, 0.7), (2.0, -2.8, 0.7)'
p2401
(dp2402
(F2.0
F-2.9
F0.7
tp2403
F1.0
ssS'(1.9, -1.8, 0.7), (1.9, -1.9, 0.7), (1.9, -2.0, 0.7)'
p2404
(dp2405
(F1.9
F-2.1
F0.7
tp2406
F1.0
ssS'(-3.7, -8.4, -0.7), (-3.7, -8.3, -0.7), (-3.8, -8.3, -0.7)'
p2407
(dp2408
(F-3.8
F-8.2
F-0.7
tp2409
F1.0
ssS'(-3.6, -9.9, 0.0), (-3.7, -9.9, 0.0), (-3.7, -9.9, -0.1)'
p2410
(dp2411
(F-3.7
F-9.9
F-0.2
tp2412
F1.0
ssS'(-3.6, -1.0, -0.7), (-3.6, -0.9, -0.7), (-3.6, -0.9, -0.8)'
p2413
(dp2414
(F-3.6
F-0.8
F-0.8
tp2415
F1.0
ssS'(-3.9, -6.8, -0.7), (-3.9, -6.7, -0.7), (-3.9, -6.6, -0.7)'
p2416
(dp2417
(F-3.9
F-6.5
F-0.7
tp2418
F1.0
ssS'(1.7, -8.5, 0.7), (1.7, -8.6, 0.7), (1.7, -8.7, 0.7)'
p2419
(dp2420
(F1.7
F-8.8
F0.7
tp2421
F1.0
ssS'(1.8, -1.7, 0.7), (1.9, -1.7, 0.7), (1.9, -1.8, 0.7)'
p2422
(dp2423
(F1.9
F-1.9
F0.7
tp2424
F1.0
ssS'(1.8, -1.2, 0.7), (1.9, -1.2, 0.7), (1.9, -1.3, 0.7)'
p2425
(dp2426
(F1.9
F-1.4
F0.7
tp2427
F1.0
ssS'(1.8, -1.5, 0.7), (1.9, -1.5, 0.7), (1.9, -1.6, 0.7)'
p2428
(dp2429
(F1.9
F-1.7
F0.7
tp2430
F1.0
ssS'(-0.1, -9.5, 0.0), (-0.1, -9.6, 0.0), (-0.2, -9.6, 0.0)'
p2431
(dp2432
(F-0.3
F-9.6
F0.0
tp2433
F1.0
ssS'(1.8, -8.4, 0.7), (1.8, -8.5, 0.7), (1.8, -8.6, 0.7)'
p2434
(dp2435
(F1.8
F-8.7
F0.7
tp2436
F1.0
ssS'(0.4, -9.5, 0.1), (0.3, -9.5, 0.1), (0.2, -9.5, 0.1)'
p2437
(dp2438
(F0.1
F-9.5
F0.1
tp2439
F0.75
s(F0.2
F-9.6
F0.1
tp2440
F0.25
ssS'(-3.8, -7.9, -0.7), (-3.8, -7.8, -0.7), (-3.8, -7.7, -0.7)'
p2441
(dp2442
(F-3.9
F-7.7
F-0.7
tp2443
F0.5
s(F-3.8
F-7.6
F-0.7
tp2444
F0.5
ssS'(1.7, -9.2, 0.7), (1.7, -9.3, 0.7), (1.7, -9.4, 0.7)'
p2445
(dp2446
(F1.7
F-9.4
F0.6
tp2447
F1.0
ssS'(1.7, -8.7, 0.7), (1.7, -8.8, 0.7), (1.7, -8.9, 0.7)'
p2448
(dp2449
(F1.7
F-9.0
F0.7
tp2450
F1.0
ssS'(1.9, -3.1, 0.7), (1.9, -3.2, 0.7), (1.9, -3.3, 0.7)'
p2451
(dp2452
(F2.0
F-3.3
F0.7
tp2453
F0.14285714285714285
s(F1.9
F-3.4
F0.7
tp2454
F0.8571428571428571
ssS'(-3.9, -1.0, -0.7), (-3.9, -0.9, -0.7), (-3.9, -0.8, -0.7)'
p2455
(dp2456
(F-3.8
F-0.8
F-0.7
tp2457
F1.0
ssS'(1.6, -9.4, 0.4), (1.6, -9.4, 0.3), (1.6, -9.4, 0.2)'
p2458
(dp2459
(F1.6
F-9.4
F0.1
tp2460
F1.0
ssS'(-0.9, -9.7, 0.0), (-1.0, -9.7, 0.0), (-1.1, -9.7, 0.0)'
p2461
(dp2462
(F-1.2
F-9.7
F0.0
tp2463
F1.0
ssS'(-3.7, -9.8, -0.7), (-3.7, -9.7, -0.7), (-3.8, -9.7, -0.7)'
p2464
(dp2465
(F-3.8
F-9.6
F-0.7
tp2466
F1.0
ssS'(-1.3, -9.6, 0.0), (-1.4, -9.6, 0.0), (-1.5, -9.6, 0.0)'
p2467
(dp2468
(F-1.6
F-9.6
F0.0
tp2469
F0.3333333333333333
s(F-1.5
F-9.7
F0.0
tp2470
F0.6666666666666666
ssS'(-3.7, -2.2, -0.7), (-3.7, -2.1, -0.7), (-3.7, -2.0, -0.7)'
p2471
(dp2472
(F-3.7
F-1.9
F-0.7
tp2473
F1.0
ssS'(-3.8, -1.8, -0.7), (-3.8, -1.7, -0.7), (-3.7, -1.7, -0.7)'
p2474
(dp2475
(F-3.7
F-1.6
F-0.7
tp2476
F1.0
ssS'(1.7, -9.3, 0.3), (1.7, -9.3, 0.2), (1.7, -9.3, 0.1)'
p2477
(dp2478
(F1.6
F-9.3
F0.1
tp2479
F0.3333333333333333
s(F1.7
F-9.4
F0.1
tp2480
F0.6666666666666666
ssS'(-4.0, -8.4, -0.7), (-4.1, -8.4, -0.7), (-4.1, -8.3, -0.7)'
p2481
(dp2482
(F-4.1
F-8.2
F-0.7
tp2483
F1.0
ssS'(-4.1, -6.9, -0.7), (-4.1, -6.8, -0.7), (-4.1, -6.7, -0.7)'
p2484
(dp2485
(F-4.1
F-6.6
F-0.7
tp2486
F1.0
ssS'(-3.8, -2.6, -0.7), (-3.8, -2.5, -0.7), (-3.8, -2.4, -0.7)'
p2487
(dp2488
(F-3.8
F-2.3
F-0.7
tp2489
F1.0
ssS'(1.7, -8.2, 0.7), (1.6, -8.2, 0.7), (1.6, -8.3, 0.7)'
p2490
(dp2491
(F1.6
F-8.4
F0.7
tp2492
F1.0
ssS'(2.0, -8.1, 0.7), (1.9, -8.1, 0.7), (1.9, -8.2, 0.7)'
p2493
(dp2494
(F1.9
F-8.3
F0.7
tp2495
F1.0
ssS'(2.0, -8.1, 0.7), (2.0, -8.2, 0.7), (2.0, -8.3, 0.7)'
p2496
(dp2497
(F2.0
F-8.4
F0.7
tp2498
F1.0
ssS'(1.9, -9.3, 0.5), (1.9, -9.3, 0.4), (1.9, -9.3, 0.3)'
p2499
(dp2500
(F1.9
F-9.3
F0.2
tp2501
F1.0
ssS'(1.8, -1.6, 0.7), (1.9, -1.7, 0.7), (1.9, -1.8, 0.7)'
p2502
(dp2503
(F1.9
F-1.9
F0.7
tp2504
F1.0
ssS'(-3.7, -9.8, -0.4), (-3.7, -9.8, -0.5), (-3.7, -9.8, -0.6)'
p2505
(dp2506
(F-3.7
F-9.8
F-0.7
tp2507
F1.0
ssS'(1.1, -0.1, 1.0), (1.2, -0.1, 1.0), (1.3, -0.1, 1.0)'
p2508
(dp2509
(F1.4
F-0.1
F1.0
tp2510
F0.8666666666666667
s(F1.3
F-0.2
F1.0
tp2511
F0.13333333333333333
ssS'(-1.9, -9.7, 0.0), (-1.9, -9.8, 0.0), (-2.0, -9.8, 0.0)'
p2512
(dp2513
(F-2.1
F-9.8
F0.0
tp2514
F1.0
ssS'(-3.8, -9.7, -0.4), (-3.8, -9.7, -0.5), (-3.8, -9.7, -0.6)'
p2515
(dp2516
(F-3.8
F-9.7
F-0.7
tp2517
F1.0
ssS'(-0.8, -9.7, 0.0), (-0.9, -9.7, 0.0), (-1.0, -9.7, 0.0)'
p2518
(dp2519
(F-1.1
F-9.7
F0.0
tp2520
F1.0
ssS'(-3.7, -9.6, -0.7), (-3.7, -9.5, -0.7), (-3.7, -9.4, -0.7)'
p2521
(dp2522
(F-3.8
F-9.4
F-0.7
tp2523
F0.2
s(F-3.7
F-9.3
F-0.7
tp2524
F0.8
ssS'(1.6, -9.0, 0.7), (1.6, -9.1, 0.7), (1.6, -9.2, 0.7)'
p2525
(dp2526
(F1.6
F-9.3
F0.7
tp2527
F1.0
ssS'(-3.7, -9.9, -0.1), (-3.7, -9.9, -0.2), (-3.7, -9.9, -0.3)'
p2528
(dp2529
(F-3.7
F-9.9
F-0.4
tp2530
F1.0
ssS'(1.9, -9.3, 0.4), (1.9, -9.3, 0.3), (1.9, -9.3, 0.2)'
p2531
(dp2532
(F1.9
F-9.3
F0.1
tp2533
F1.0
ssS'(2.0, -6.9, 0.7), (2.0, -7.0, 0.7), (2.0, -7.1, 0.7)'
p2534
(dp2535
(F1.9
F-7.1
F0.7
tp2536
F0.16666666666666666
s(F2.0
F-7.2
F0.7
tp2537
F0.8333333333333334
ssS'(-3.7, -2.0, -0.7), (-3.7, -1.9, -0.7), (-3.7, -1.8, -0.7)'
p2538
(dp2539
(F-3.7
F-1.7
F-0.7
tp2540
F1.0
ssS'(-3.9, -4.1, -0.7), (-3.9, -4.0, -0.7), (-3.9, -3.9, -0.7)'
p2541
(dp2542
(F-3.9
F-3.8
F-0.7
tp2543
F1.0
ssS'(-3.8, -2.1, -0.7), (-3.8, -2.0, -0.7), (-3.8, -1.9, -0.7)'
p2544
(dp2545
(F-3.8
F-1.8
F-0.7
tp2546
F1.0
ssS'(1.9, -2.0, 0.7), (1.9, -2.1, 0.7), (1.9, -2.2, 0.7)'
p2547
(dp2548
(F1.9
F-2.3
F0.7
tp2549
F1.0
ssS'(1.9, -8.5, 0.7), (1.9, -8.6, 0.7), (1.9, -8.7, 0.7)'
p2550
(dp2551
(F1.9
F-8.8
F0.7
tp2552
F0.8
s(F1.8
F-8.7
F0.7
tp2553
F0.2
ssS'(-0.8, -9.7, 0.1), (-0.8, -9.7, 0.0), (-0.9, -9.7, 0.0)'
p2554
(dp2555
(F-1.0
F-9.7
F0.0
tp2556
F1.0
ssS'(-3.7, -2.5, -0.7), (-3.7, -2.4, -0.7), (-3.7, -2.3, -0.7)'
p2557
(dp2558
(F-3.7
F-2.2
F-0.7
tp2559
F1.0
ssS'(-3.7, -9.3, -0.7), (-3.7, -9.2, -0.7), (-3.7, -9.1, -0.7)'
p2560
(dp2561
(F-3.7
F-9.0
F-0.7
tp2562
F1.0
ssS'(-2.0, -9.7, 0.0), (-2.1, -9.7, 0.0), (-2.2, -9.7, 0.0)'
p2563
(dp2564
(F-2.3
F-9.7
F0.0
tp2565
F1.0
ssS'(-4.1, -4.9, -0.7), (-4.1, -4.8, -0.7), (-4.1, -4.7, -0.7)'
p2566
(dp2567
(F-4.1
F-4.6
F-0.7
tp2568
F1.0
ssS'(-3.8, -3.4, -0.7), (-3.8, -3.3, -0.7), (-3.8, -3.2, -0.7)'
p2569
(dp2570
(F-3.8
F-3.1
F-0.7
tp2571
F1.0
ssS'(-3.7, -8.6, -0.7), (-3.7, -8.5, -0.7), (-3.7, -8.4, -0.7)'
p2572
(dp2573
(F-3.7
F-8.3
F-0.7
tp2574
F1.0
ssS'(-3.9, -4.4, -0.7), (-3.9, -4.3, -0.7), (-3.9, -4.2, -0.7)'
p2575
(dp2576
(F-3.9
F-4.1
F-0.7
tp2577
F1.0
ssS'(1.9, -4.9, 0.7), (1.9, -5.0, 0.7), (1.9, -5.1, 0.7)'
p2578
(dp2579
(F1.9
F-5.2
F0.7
tp2580
F1.0
ssS'(1.8, -0.3, 0.7), (1.8, -0.4, 0.7), (1.8, -0.5, 0.7)'
p2581
(dp2582
(F1.8
F-0.6
F0.7
tp2583
F1.0
ssS'(-4.0, -8.9, -0.7), (-4.0, -8.8, -0.7), (-4.0, -8.7, -0.7)'
p2584
(dp2585
(F-4.0
F-8.6
F-0.7
tp2586
F1.0
ssS'(0.6, -0.0, 1.0), (0.6, -0.1, 1.0), (0.7, -0.1, 1.0)'
p2587
(dp2588
(F0.8
F-0.1
F1.0
tp2589
F1.0
ssS'(1.1, -9.4, 0.1), (1.0, -9.4, 0.1), (0.9, -9.4, 0.1)'
p2590
(dp2591
(F0.8
F-9.4
F0.1
tp2592
F0.2
s(F0.9
F-9.5
F0.1
tp2593
F0.8
ssS'(-0.8, -9.7, 0.1), (-0.9, -9.7, 0.1), (-1.0, -9.7, 0.1)'
p2594
(dp2595
(F-1.1
F-9.7
F0.1
tp2596
F0.5
s(F-1.0
F-9.7
F0.0
tp2597
F0.5
ssS'(1.8, -6.9, 0.7), (1.8, -7.0, 0.7), (1.8, -7.1, 0.7)'
p2598
(dp2599
(F1.8
F-7.2
F0.7
tp2600
F0.6666666666666666
s(F1.7
F-7.1
F0.7
tp2601
F0.3333333333333333
ssS'(-3.9, -5.4, -0.7), (-3.9, -5.3, -0.7), (-3.9, -5.2, -0.7)'
p2602
(dp2603
(F-3.9
F-5.1
F-0.7
tp2604
F1.0
ssS'(1.9, -5.3, 0.7), (1.8, -5.3, 0.7), (1.8, -5.4, 0.7)'
p2605
(dp2606
(F1.8
F-5.5
F0.7
tp2607
F1.0
ssS'(1.6, -8.5, 0.7), (1.6, -8.6, 0.7), (1.6, -8.7, 0.7)'
p2608
(dp2609
(F1.6
F-8.8
F0.7
tp2610
F1.0
ssS'(-3.6, -0.7, -0.8), (-3.5, -0.7, -0.8), (-3.5, -0.6, -0.8)'
p2611
(dp2612
(F0.1
F0.0
F1.0
tp2613
F1.0
ssS'(1.9, -7.7, 0.7), (1.9, -7.8, 0.7), (1.9, -7.9, 0.7)'
p2614
(dp2615
(F1.9
F-8.0
F0.7
tp2616
F1.0
ssS'(-3.9, -2.7, -0.7), (-3.8, -2.7, -0.7), (-3.8, -2.6, -0.7)'
p2617
(dp2618
(F-3.8
F-2.5
F-0.7
tp2619
F1.0
ssS'(1.8, -0.8, 0.7), (1.8, -0.9, 0.7), (1.8, -1.0, 0.7)'
p2620
(dp2621
(F1.8
F-1.1
F0.7
tp2622
F1.0
ssS'(1.9, -6.3, 0.7), (1.9, -6.4, 0.7), (1.9, -6.5, 0.7)'
p2623
(dp2624
(F1.9
F-6.6
F0.7
tp2625
F1.0
ssS'(1.9, -7.6, 0.7), (1.9, -7.7, 0.7), (1.9, -7.8, 0.7)'
p2626
(dp2627
(F1.9
F-7.9
F0.7
tp2628
F1.0
ssS'(2.0, -5.0, 0.7), (2.0, -5.1, 0.7), (2.0, -5.2, 0.7)'
p2629
(dp2630
(F2.0
F-5.3
F0.7
tp2631
F1.0
ssS'(-3.9, -1.3, -0.7), (-3.9, -1.2, -0.7), (-3.8, -1.2, -0.7)'
p2632
(dp2633
(F-3.8
F-1.1
F-0.7
tp2634
F1.0
ssS'(1.9, -9.2, 0.7), (1.9, -9.3, 0.7), (1.8, -9.3, 0.7)'
p2635
(dp2636
(F1.8
F-9.3
F0.6
tp2637
F1.0
ssS'(-3.8, -2.9, -0.7), (-3.8, -2.8, -0.7), (-3.8, -2.7, -0.7)'
p2638
(dp2639
(F-3.8
F-2.6
F-0.7
tp2640
F1.0
ssS'(-3.8, -2.3, -0.7), (-3.8, -2.2, -0.7), (-3.8, -2.1, -0.7)'
p2641
(dp2642
(F-3.8
F-2.0
F-0.7
tp2643
F1.0
ssS'(1.7, -8.2, 0.7), (1.7, -8.3, 0.7), (1.7, -8.4, 0.7)'
p2644
(dp2645
(F1.7
F-8.5
F0.7
tp2646
F1.0
ssS'(-3.7, -1.2, -0.7), (-3.6, -1.2, -0.7), (-3.6, -1.1, -0.7)'
p2647
(dp2648
(F-3.6
F-1.0
F-0.7
tp2649
F1.0
ssS'(-3.7, -2.1, -0.7), (-3.7, -2.0, -0.7), (-3.7, -1.9, -0.7)'
p2650
(dp2651
(F-3.7
F-1.8
F-0.7
tp2652
F1.0
ssS'(1.1, -9.4, 0.1), (1.0, -9.4, 0.1), (1.0, -9.5, 0.1)'
p2653
(dp2654
(F0.9
F-9.5
F0.1
tp2655
F1.0
ssS'(-4.0, -5.5, -0.7), (-4.0, -5.4, -0.7), (-4.0, -5.3, -0.7)'
p2656
(dp2657
(F-4.0
F-5.2
F-0.7
tp2658
F1.0
ssS'(0.0, -9.6, 0.1), (-0.1, -9.6, 0.1), (-0.2, -9.6, 0.1)'
p2659
(dp2660
(F-0.3
F-9.6
F0.1
tp2661
F0.7777777777777778
s(F-0.2
F-9.6
F0.0
tp2662
F0.2222222222222222
ssS'(-3.9, -3.5, -0.7), (-3.9, -3.4, -0.7), (-3.8, -3.4, -0.7)'
p2663
(dp2664
(F-3.8
F-3.3
F-0.7
tp2665
F1.0
ssS'(-3.8, -9.7, -0.1), (-3.8, -9.7, -0.2), (-3.8, -9.7, -0.3)'
p2666
(dp2667
(F-3.8
F-9.7
F-0.4
tp2668
F1.0
ssS'(-3.8, -2.5, -0.7), (-3.8, -2.4, -0.7), (-3.8, -2.3, -0.7)'
p2669
(dp2670
(F-3.8
F-2.2
F-0.7
tp2671
F0.8
s(F-3.7
F-2.3
F-0.7
tp2672
F0.2
ssS'(-2.3, -9.8, 0.0), (-2.4, -9.9, 0.0), (-2.5, -9.9, 0.0)'
p2673
(dp2674
(F-2.6
F-9.9
F0.0
tp2675
F1.0
ssS'(-4.0, -4.1, -0.7), (-4.0, -4.0, -0.7), (-4.0, -3.9, -0.7)'
p2676
(dp2677
(F-4.0
F-3.8
F-0.7
tp2678
F1.0
ssS'(2.0, -6.1, 0.7), (2.0, -6.2, 0.7), (2.0, -6.3, 0.7)'
p2679
(dp2680
(F2.0
F-6.4
F0.7
tp2681
F1.0
ssS'(-0.1, -9.6, 0.1), (-0.2, -9.6, 0.1), (-0.2, -9.6, 0.0)'
p2682
(dp2683
(F-0.3
F-9.6
F0.0
tp2684
F1.0
ssS'(-3.8, -9.8, 0.0), (-3.9, -9.8, 0.0), (-3.9, -9.8, -0.1)'
p2685
(dp2686
(F-3.9
F-9.8
F-0.2
tp2687
F1.0
ssS'(1.1, -9.5, 0.1), (1.0, -9.5, 0.1), (0.9, -9.5, 0.1)'
p2688
(dp2689
(F0.8
F-9.5
F0.1
tp2690
F1.0
ssS'(1.7, -9.0, 0.7), (1.7, -9.1, 0.7), (1.7, -9.2, 0.7)'
p2691
(dp2692
(F1.6
F-9.2
F0.7
tp2693
F0.25
s(F1.7
F-9.3
F0.7
tp2694
F0.75
ssS'(1.9, -7.9, 0.7), (1.9, -8.0, 0.7), (1.8, -8.0, 0.7)'
p2695
(dp2696
(F1.8
F-8.1
F0.7
tp2697
F1.0
ssS'(-3.8, -4.0, -0.7), (-3.8, -3.9, -0.7), (-3.8, -3.8, -0.7)'
p2698
(dp2699
(F-3.8
F-3.7
F-0.7
tp2700
F1.0
ssS'(-3.7, -9.8, -0.6), (-3.7, -9.8, -0.7), (-3.7, -9.7, -0.7)'
p2701
(dp2702
(F-3.8
F-9.7
F-0.7
tp2703
F0.5
s(F-3.7
F-9.6
F-0.7
tp2704
F0.5
ssS'(-3.7, -0.7, -0.7), (-3.7, -0.7, -0.8), (-3.7, -0.7, -0.7)'
p2705
(dp2706
(F-3.7
F-0.7
F-0.8
tp2707
F1.0
ssS'(1.8, -8.7, 0.7), (1.7, -8.7, 0.7), (1.7, -8.8, 0.7)'
p2708
(dp2709
(F1.7
F-8.9
F0.7
tp2710
F1.0
ssS'(1.5, -9.4, 0.2), (1.5, -9.4, 0.1), (1.4, -9.4, 0.1)'
p2711
(dp2712
(F1.3
F-9.4
F0.1
tp2713
F1.0
ssS'(1.8, -8.9, 0.7), (1.8, -9.0, 0.7), (1.7, -9.0, 0.7)'
p2714
(dp2715
(F1.7
F-9.1
F0.7
tp2716
F1.0
ssS'(-3.8, -2.0, -0.7), (-3.8, -1.9, -0.7), (-3.8, -1.8, -0.7)'
p2717
(dp2718
(F-3.8
F-1.7
F-0.7
tp2719
F1.0
ssS'(-3.6, -0.7, -0.8), (-3.6, -0.6, -0.8), (0.1, 0.0, 1.0)'
p2720
(dp2721
(F0.2
F0.0
F1.0
tp2722
F1.0
ssS'(-3.7, -9.8, -0.7), (-3.7, -9.7, -0.7), (-3.7, -9.6, -0.7)'
p2723
(dp2724
(F-3.7
F-9.5
F-0.7
tp2725
F1.0
ssS'(0.2, -9.5, 0.1), (0.1, -9.5, 0.1), (0.1, -9.6, 0.1)'
p2726
(dp2727
(F0.0
F-9.6
F0.1
tp2728
F1.0
ssS'(-3.7, -9.4, -0.7), (-3.8, -9.4, -0.7), (-3.8, -9.3, -0.7)'
p2729
(dp2730
(F-3.8
F-9.2
F-0.7
tp2731
F1.0
ssS'(1.8, -1.2, 0.7), (1.8, -1.3, 0.7), (1.8, -1.4, 0.7)'
p2732
(dp2733
(F1.9
F-1.4
F0.7
tp2734
F0.23076923076923078
s(F1.8
F-1.5
F0.7
tp2735
F0.7692307692307693
ssS'(-0.6, -9.6, 0.0), (-0.7, -9.6, 0.0), (-0.7, -9.7, 0.0)'
p2736
(dp2737
(F-0.8
F-9.7
F0.0
tp2738
F1.0
ssS'(-3.9, -2.5, -0.7), (-3.9, -2.4, -0.7), (-3.9, -2.3, -0.7)'
p2739
(dp2740
(F-3.9
F-2.2
F-0.7
tp2741
F1.0
ssS'(-3.7, -1.0, -0.8), (-3.7, -0.9, -0.8), (-3.7, -0.8, -0.8)'
p2742
(dp2743
(F-3.7
F-0.7
F-0.8
tp2744
F1.0
ssS'(1.7, -7.5, 0.7), (1.7, -7.6, 0.7), (1.7, -7.7, 0.7)'
p2745
(dp2746
(F1.7
F-7.8
F0.7
tp2747
F1.0
ssS'(-4.1, -3.5, -0.7), (-4.1, -3.4, -0.7), (-4.1, -3.3, -0.7)'
p2748
(dp2749
(F-4.1
F-3.2
F-0.7
tp2750
F1.0
ssS'(-3.4, -9.9, 0.0), (-3.5, -9.9, 0.0), (-3.6, -9.9, 0.0)'
p2751
(dp2752
(F-3.6
F-9.9
F-0.1
tp2753
F1.0
ssS'(-1.2, -9.6, 0.0), (-1.2, -9.7, 0.0), (-1.3, -9.7, 0.0)'
p2754
(dp2755
(F-1.4
F-9.7
F0.0
tp2756
F1.0
ssS'(-3.8, -8.4, -0.7), (-3.9, -8.4, -0.7), (-3.9, -8.3, -0.7)'
p2757
(dp2758
(F-3.9
F-8.2
F-0.7
tp2759
F1.0
ssS'(-2.1, -9.7, 0.0), (-2.1, -9.8, 0.0), (-2.2, -9.8, 0.0)'
p2760
(dp2761
(F-2.3
F-9.8
F0.0
tp2762
F1.0
ssS'(-3.9, -8.5, -0.7), (-3.9, -8.4, -0.7), (-3.9, -8.3, -0.7)'
p2763
(dp2764
(F-3.9
F-8.2
F-0.7
tp2765
F1.0
ssS'(-4.1, -5.6, -0.7), (-4.1, -5.5, -0.7), (-4.1, -5.4, -0.7)'
p2766
(dp2767
(F-4.0
F-5.4
F-0.7
tp2768
F0.25
s(F-4.1
F-5.3
F-0.7
tp2769
F0.75
ssS'(-3.9, -5.0, -0.7), (-3.9, -4.9, -0.7), (-3.9, -4.8, -0.7)'
p2770
(dp2771
(F-3.9
F-4.7
F-0.7
tp2772
F1.0
ssS'(-3.7, -8.7, -0.7), (-3.7, -8.6, -0.7), (-3.7, -8.5, -0.7)'
p2773
(dp2774
(F-3.7
F-8.4
F-0.7
tp2775
F0.5
s(F-3.8
F-8.5
F-0.7
tp2776
F0.5
ssS'(1.7, -0.2, 0.9), (1.7, -0.2, 0.8), (1.7, -0.3, 0.8)'
p2777
(dp2778
(F1.7
F-0.3
F0.7
tp2779
F0.25
s(F1.7
F-0.4
F0.8
tp2780
F0.75
ssS'(-3.8, -9.0, -0.7), (-3.8, -8.9, -0.7), (-3.8, -8.8, -0.7)'
p2781
(dp2782
(F-3.9
F-8.8
F-0.7
tp2783
F0.2
s(F-3.8
F-8.7
F-0.7
tp2784
F0.8
ssS'(-4.1, -3.7, -0.7), (-4.1, -3.6, -0.7), (-4.1, -3.5, -0.7)'
p2785
(dp2786
(F-4.1
F-3.4
F-0.7
tp2787
F1.0
ssS'(2.0, -3.0, 0.7), (2.0, -3.1, 0.7), (2.0, -3.2, 0.7)'
p2788
(dp2789
(F2.0
F-3.3
F0.7
tp2790
F1.0
ssS'(-1.6, -9.6, 0.0), (-1.6, -9.7, 0.0), (-1.7, -9.7, 0.0)'
p2791
(dp2792
(F-1.8
F-9.7
F0.0
tp2793
F1.0
ssS'(-3.3, -9.8, 0.0), (-3.4, -9.8, 0.0), (-3.5, -9.8, 0.0)'
p2794
(dp2795
(F-3.5
F-9.9
F0.0
tp2796
F0.14285714285714285
s(F-3.6
F-9.8
F0.0
tp2797
F0.8571428571428571
ssS'(0.6, -9.5, 0.1), (0.5, -9.5, 0.1), (0.5, -9.6, 0.1)'
p2798
(dp2799
(F0.4
F-9.6
F0.1
tp2800
F1.0
ssS'(-3.9, -1.2, -0.7), (-3.8, -1.2, -0.7), (-3.8, -1.1, -0.7)'
p2801
(dp2802
(F-3.8
F-1.0
F-0.7
tp2803
F1.0
ssS'(-3.5, -9.8, 0.0), (-3.5, -9.9, 0.0), (-3.6, -9.9, 0.0)'
p2804
(dp2805
(F-3.7
F-9.9
F0.0
tp2806
F1.0
ssS'(-1.0, -9.7, 0.1), (-1.0, -9.7, 0.0), (-1.1, -9.7, 0.0)'
p2807
(dp2808
(F-1.2
F-9.7
F0.0
tp2809
F1.0
ssS'(-4.0, -8.8, -0.7), (-4.1, -8.8, -0.7), (-4.1, -8.7, -0.7)'
p2810
(dp2811
(F-4.1
F-8.6
F-0.7
tp2812
F1.0
ssS'(-3.7, -8.9, -0.7), (-3.7, -8.8, -0.7), (-3.8, -8.8, -0.7)'
p2813
(dp2814
(F-3.8
F-8.7
F-0.7
tp2815
F1.0
ssS'(-3.8, -1.3, -0.8), (-3.8, -1.2, -0.8), (-3.7, -1.2, -0.8)'
p2816
(dp2817
(F-3.7
F-1.1
F-0.8
tp2818
F1.0
ssS'(1.9, -6.1, 0.7), (1.9, -6.2, 0.7), (1.9, -6.3, 0.7)'
p2819
(dp2820
(F1.9
F-6.4
F0.7
tp2821
F1.0
ssS'(0.5, -9.6, 0.1), (0.4, -9.6, 0.1), (0.3, -9.6, 0.1)'
p2822
(dp2823
(F0.2
F-9.6
F0.1
tp2824
F1.0
ssS'(-4.0, -4.3, -0.7), (-4.0, -4.2, -0.7), (-4.0, -4.1, -0.7)'
p2825
(dp2826
(F-4.0
F-4.0
F-0.7
tp2827
F1.0
ssS'(-3.9, -3.9, -0.7), (-3.9, -3.8, -0.7), (-3.9, -3.7, -0.7)'
p2828
(dp2829
(F-3.8
F-3.7
F-0.7
tp2830
F0.3333333333333333
s(F-3.9
F-3.6
F-0.7
tp2831
F0.6666666666666666
ssS'(1.5, -9.4, 0.4), (1.5, -9.4, 0.3), (1.5, -9.4, 0.2)'
p2832
(dp2833
(F1.5
F-9.4
F0.1
tp2834
F1.0
ssS'(-1.4, -9.6, 0.0), (-1.4, -9.7, 0.0), (-1.5, -9.7, 0.0)'
p2835
(dp2836
(F-1.6
F-9.7
F0.0
tp2837
F1.0
ssS'(1.8, -9.1, 0.7), (1.8, -9.2, 0.7), (1.8, -9.3, 0.7)'
p2838
(dp2839
(F1.8
F-9.4
F0.7
tp2840
F0.3333333333333333
s(F1.8
F-9.3
F0.6
tp2841
F0.6666666666666666
ssS'(-4.0, -2.1, -0.7), (-4.0, -2.0, -0.7), (-4.0, -1.9, -0.7)'
p2842
(dp2843
(F-4.0
F-1.8
F-0.7
tp2844
F1.0
ssS'(1.9, -6.8, 0.7), (1.9, -6.9, 0.7), (1.9, -7.0, 0.7)'
p2845
(dp2846
(F1.9
F-7.1
F0.7
tp2847
F1.0
ssS'(-3.8, -9.7, -0.0), (-3.9, -9.7, -0.0), (-4.0, -9.7, -0.0)'
p2848
(dp2849
(F-4.0
F-9.7
F-0.1
tp2850
F1.0
ssS'(-0.6, -9.6, 0.0), (-0.6, -9.7, 0.0), (-0.7, -9.7, 0.0)'
p2851
(dp2852
(F-0.8
F-9.7
F0.0
tp2853
F1.0
ssS'(1.8, -0.2, 1.0), (1.8, -0.2, 0.9), (1.8, -0.2, 0.8)'
p2854
(dp2855
(F1.8
F-0.2
F0.7
tp2856
F1.0
ssS'(1.9, -9.3, 0.1), (1.8, -9.3, 0.1), (1.8, -9.4, 0.1)'
p2857
(dp2858
(F1.7
F-9.4
F0.1
tp2859
F1.0
ssS'(1.8, -1.3, 0.7), (1.8, -1.4, 0.7), (1.9, -1.4, 0.7)'
p2860
(dp2861
(F1.9
F-1.5
F0.7
tp2862
F1.0
ssS'(-3.8, -8.6, -0.7), (-3.9, -8.5, -0.7), (-3.9, -8.4, -0.7)'
p2863
(dp2864
(F-3.9
F-8.3
F-0.7
tp2865
F1.0
ssS'(-3.6, -1.4, -0.7), (-3.6, -1.3, -0.7), (-3.6, -1.2, -0.7)'
p2866
(dp2867
(F-3.6
F-1.1
F-0.7
tp2868
F1.0
ssS'(-4.0, -1.9, -0.7), (-4.0, -1.8, -0.7), (-3.9, -1.8, -0.7)'
p2869
(dp2870
(F-3.9
F-1.7
F-0.7
tp2871
F1.0
ssS'(-3.8, -2.1, -0.7), (-3.8, -2.0, -0.7), (-3.7, -2.0, -0.7)'
p2872
(dp2873
(F-3.7
F-1.9
F-0.7
tp2874
F1.0
ssS'(-3.9, -5.6, -0.7), (-3.9, -5.5, -0.7), (-3.9, -5.4, -0.7)'
p2875
(dp2876
(F-3.9
F-5.3
F-0.7
tp2877
F1.0
ssS'(-4.1, -5.0, -0.7), (-4.1, -4.9, -0.7), (-4.1, -4.8, -0.7)'
p2878
(dp2879
(F-4.1
F-4.7
F-0.7
tp2880
F1.0
ssS'(-4.0, -1.8, -0.7), (-3.9, -1.8, -0.7), (-3.9, -1.7, -0.7)'
p2881
(dp2882
(F-3.9
F-1.6
F-0.7
tp2883
F1.0
ssS'(1.7, -0.4, 0.7), (1.7, -0.5, 0.7), (1.7, -0.6, 0.7)'
p2884
(dp2885
(F1.8
F-0.6
F0.7
tp2886
F0.5
s(F1.7
F-0.7
F0.7
tp2887
F0.5
ssS'(-1.7, -9.7, 0.0), (-1.8, -9.7, 0.0), (-1.8, -9.8, 0.0)'
p2888
(dp2889
(F-1.9
F-9.8
F0.0
tp2890
F1.0
ssS'(-3.8, -0.8, -0.7), (-3.8, -0.7, -0.7), (-3.8, -0.6, -0.7)'
p2891
(dp2892
(F-3.8
F-0.6
F-0.8
tp2893
F1.0
ssS'(-0.5, -9.6, 0.1), (-0.6, -9.6, 0.1), (-0.6, -9.7, 0.1)'
p2894
(dp2895
(F-0.7
F-9.7
F0.1
tp2896
F1.0
ssS'(1.9, -7.9, 0.7), (1.9, -8.0, 0.7), (1.9, -8.1, 0.7)'
p2897
(dp2898
(F1.9
F-8.2
F0.7
tp2899
F1.0
ssS'(1.7, -8.4, 0.7), (1.7, -8.5, 0.7), (1.7, -8.6, 0.7)'
p2900
(dp2901
(F1.6
F-8.6
F0.7
tp2902
F0.5
s(F1.7
F-8.7
F0.7
tp2903
F0.5
ssS'(-3.8, -2.4, -0.7), (-3.8, -2.3, -0.7), (-3.8, -2.2, -0.7)'
p2904
(dp2905
(F-3.8
F-2.1
F-0.7
tp2906
F1.0
ssS'(1.9, -3.5, 0.7), (1.9, -3.6, 0.7), (1.9, -3.7, 0.7)'
p2907
(dp2908
(F1.9
F-3.8
F0.7
tp2909
F1.0
ssS'(-1.4, -9.6, 0.0), (-1.5, -9.6, 0.0), (-1.5, -9.7, 0.0)'
p2910
(dp2911
(F-1.6
F-9.7
F0.0
tp2912
F1.0
ssS'(-3.9, -4.8, -0.7), (-3.9, -4.7, -0.7), (-3.9, -4.6, -0.7)'
p2913
(dp2914
(F-3.9
F-4.5
F-0.7
tp2915
F1.0
ssS'(-4.0, -6.8, -0.7), (-4.0, -6.7, -0.7), (-4.0, -6.6, -0.7)'
p2916
(dp2917
(F-4.0
F-6.5
F-0.7
tp2918
F1.0
ssS'(1.9, -5.6, 0.7), (1.9, -5.7, 0.7), (1.9, -5.8, 0.7)'
p2919
(dp2920
(F1.9
F-5.9
F0.7
tp2921
F1.0
ssS'(-3.9, -8.1, -0.7), (-3.9, -8.0, -0.7), (-3.9, -7.9, -0.7)'
p2922
(dp2923
(F-3.9
F-7.8
F-0.7
tp2924
F1.0
ssS'(-0.6, -9.7, 0.1), (-0.7, -9.7, 0.1), (-0.7, -9.7, 0.0)'
p2925
(dp2926
(F-0.8
F-9.7
F0.0
tp2927
F1.0
ssS'(-3.8, -6.8, -0.7), (-3.8, -6.7, -0.7), (-3.9, -6.7, -0.7)'
p2928
(dp2929
(F-3.9
F-6.6
F-0.7
tp2930
F1.0
ssS'(1.9, -8.0, 0.7), (1.9, -8.1, 0.7), (1.9, -8.2, 0.7)'
p2931
(dp2932
(F1.9
F-8.3
F0.7
tp2933
F0.75
s(F1.8
F-8.2
F0.7
tp2934
F0.25
ssS'(-1.2, -9.7, 0.0), (-1.3, -9.7, 0.0), (-1.4, -9.7, 0.0)'
p2935
(dp2936
(F-1.5
F-9.7
F0.0
tp2937
F1.0
ssS'(0.9, -9.5, 0.1), (0.8, -9.5, 0.1), (0.7, -9.5, 0.1)'
p2938
(dp2939
(F0.6
F-9.5
F0.1
tp2940
F1.0
ssS'(-3.8, -7.3, -0.7), (-3.8, -7.2, -0.7), (-3.8, -7.1, -0.7)'
p2941
(dp2942
(F-3.8
F-7.0
F-0.7
tp2943
F1.0
ssS'(-3.9, -6.4, -0.7), (-4.0, -6.4, -0.7), (-4.0, -6.3, -0.7)'
p2944
(dp2945
(F-4.0
F-6.2
F-0.7
tp2946
F1.0
ssS'(-4.0, -4.9, -0.7), (-3.9, -4.9, -0.7), (-3.9, -4.8, -0.7)'
p2947
(dp2948
(F-3.9
F-4.7
F-0.7
tp2949
F1.0
ssS'(-4.0, -9.7, -0.6), (-4.0, -9.7, -0.7), (-4.0, -9.6, -0.7)'
p2950
(dp2951
(F-4.0
F-9.5
F-0.7
tp2952
F1.0
ssS'(1.8, -9.3, 0.6), (1.8, -9.3, 0.5), (1.8, -9.3, 0.4)'
p2953
(dp2954
(F1.8
F-9.3
F0.3
tp2955
F1.0
ssS'(0.4, -9.5, 0.1), (0.4, -9.6, 0.1), (0.3, -9.6, 0.1)'
p2956
(dp2957
(F0.2
F-9.6
F0.1
tp2958
F1.0
ssS'(-3.9, -6.0, -0.7), (-3.9, -5.9, -0.7), (-3.9, -5.8, -0.7)'
p2959
(dp2960
(F-3.9
F-5.7
F-0.7
tp2961
F1.0
ssS'(-4.0, -7.5, -0.7), (-4.0, -7.4, -0.7), (-4.0, -7.3, -0.7)'
p2962
(dp2963
(F-4.0
F-7.2
F-0.7
tp2964
F1.0
ssS'(1.5, -0.2, 1.0), (1.6, -0.2, 1.0), (1.7, -0.2, 1.0)'
p2965
(dp2966
(F1.7
F-0.2
F0.9
tp2967
F0.9090909090909091
s(F1.8
F-0.2
F1.0
tp2968
F0.09090909090909091
ssS'(-4.0, -9.7, -0.2), (-4.0, -9.7, -0.3), (-4.0, -9.7, -0.4)'
p2969
(dp2970
(F-4.0
F-9.7
F-0.5
tp2971
F1.0
ssS'(-4.1, -4.4, -0.7), (-4.1, -4.3, -0.7), (-4.1, -4.2, -0.7)'
p2972
(dp2973
(F-4.1
F-4.1
F-0.7
tp2974
F1.0
ssS'(-4.1, -8.8, -0.7), (-4.1, -8.7, -0.7), (-4.1, -8.6, -0.7)'
p2975
(dp2976
(F-4.1
F-8.5
F-0.7
tp2977
F1.0
ssS'(-3.9, -3.8, -0.7), (-3.9, -3.7, -0.7), (-3.9, -3.6, -0.7)'
p2978
(dp2979
(F-3.9
F-3.5
F-0.7
tp2980
F1.0
ssS'(-3.8, -8.0, -0.7), (-3.8, -7.9, -0.7), (-3.8, -7.8, -0.7)'
p2981
(dp2982
(F-3.9
F-7.8
F-0.7
tp2983
F0.2
s(F-3.8
F-7.7
F-0.7
tp2984
F0.8
ssS'(-4.0, -3.7, -0.7), (-4.0, -3.6, -0.7), (-4.0, -3.5, -0.7)'
p2985
(dp2986
(F-4.0
F-3.4
F-0.7
tp2987
F1.0
ssS'(1.8, -7.1, 0.7), (1.7, -7.1, 0.7), (1.7, -7.2, 0.7)'
p2988
(dp2989
(F1.7
F-7.3
F0.7
tp2990
F1.0
ssS'(1.7, -9.1, 0.7), (1.7, -9.2, 0.7), (1.6, -9.2, 0.7)'
p2991
(dp2992
(F1.6
F-9.3
F0.7
tp2993
F1.0
ssS'(2.0, -7.5, 0.7), (2.0, -7.6, 0.7), (2.0, -7.7, 0.7)'
p2994
(dp2995
(F2.0
F-7.8
F0.7
tp2996
F1.0
ssS'(-3.8, -8.9, -0.7), (-3.8, -8.8, -0.7), (-3.9, -8.8, -0.7)'
p2997
(dp2998
(F-3.9
F-8.7
F-0.7
tp2999
F1.0
ssS'(1.9, -1.3, 0.7), (1.9, -1.4, 0.7), (1.9, -1.5, 0.7)'
p3000
(dp3001
(F1.9
F-1.6
F0.7
tp3002
F1.0
ssS'(-3.8, -1.6, -0.7), (-3.8, -1.5, -0.7), (-3.7, -1.5, -0.7)'
p3003
(dp3004
(F-3.7
F-1.4
F-0.7
tp3005
F1.0
ssS'(1.9, -7.0, 0.7), (1.9, -7.1, 0.7), (1.9, -7.2, 0.7)'
p3006
(dp3007
(F1.9
F-7.3
F0.7
tp3008
F1.0
ssS'(-3.7, -1.2, -0.7), (-3.7, -1.1, -0.7), (-3.6, -1.1, -0.7)'
p3009
(dp3010
(F-3.6
F-1.0
F-0.7
tp3011
F1.0
ssS'(-3.8, -2.5, -0.7), (-3.7, -2.5, -0.7), (-3.7, -2.4, -0.7)'
p3012
(dp3013
(F-3.7
F-2.3
F-0.7
tp3014
F1.0
ssS'(-3.9, -3.4, -0.7), (-3.9, -3.3, -0.7), (-3.9, -3.2, -0.7)'
p3015
(dp3016
(F-3.8
F-3.2
F-0.7
tp3017
F0.3333333333333333
s(F-3.9
F-3.1
F-0.7
tp3018
F0.6666666666666666
ssS'(-4.1, -3.8, -0.7), (-4.1, -3.7, -0.7), (-4.0, -3.7, -0.7)'
p3019
(dp3020
(F-4.0
F-3.6
F-0.7
tp3021
F1.0
ssS'(-3.8, -8.8, -0.7), (-3.9, -8.8, -0.7), (-3.9, -8.7, -0.7)'
p3022
(dp3023
(F-3.9
F-8.6
F-0.7
tp3024
F1.0
ssS'(1.9, -6.2, 0.7), (1.9, -6.3, 0.7), (1.9, -6.4, 0.7)'
p3025
(dp3026
(F1.9
F-6.5
F0.7
tp3027
F1.0
ssS'(1.7, -0.2, 0.8), (1.7, -0.3, 0.8), (1.7, -0.4, 0.8)'
p3028
(dp3029
(F1.7
F-0.5
F0.8
tp3030
F0.3333333333333333
s(F1.7
F-0.4
F0.7
tp3031
F0.6666666666666666
ssS'(-0.4, -9.7, 0.1), (-0.5, -9.7, 0.1), (-0.6, -9.7, 0.1)'
p3032
(dp3033
(F-0.7
F-9.7
F0.1
tp3034
F1.0
ssS'(1.8, -1.5, 0.7), (1.8, -1.6, 0.7), (1.8, -1.7, 0.7)'
p3035
(dp3036
(F1.8
F-1.8
F0.7
tp3037
F0.75
s(F1.9
F-1.7
F0.7
tp3038
F0.25
ssS'(-3.7, -9.7, -0.5), (-3.7, -9.7, -0.6), (-3.7, -9.7, -0.7)'
p3039
(dp3040
(F-3.7
F-9.6
F-0.7
tp3041
F1.0
ssS'(-4.0, -6.7, -0.7), (-4.0, -6.6, -0.7), (-4.0, -6.5, -0.7)'
p3042
(dp3043
(F-4.0
F-6.4
F-0.7
tp3044
F1.0
ssS'(1.0, -0.1, 1.0), (1.1, -0.1, 1.0), (1.2, -0.1, 1.0)'
p3045
(dp3046
(F1.3
F-0.1
F1.0
tp3047
F1.0
ssS'(-3.8, -3.9, -0.7), (-3.8, -3.8, -0.7), (-3.8, -3.7, -0.7)'
p3048
(dp3049
(F-3.8
F-3.6
F-0.7
tp3050
F1.0
ssS'(-4.1, -7.9, -0.7), (-4.1, -7.8, -0.7), (-4.1, -7.7, -0.7)'
p3051
(dp3052
(F-4.1
F-7.6
F-0.7
tp3053
F1.0
ssS'(2.0, -7.4, 0.7), (1.9, -7.4, 0.7), (1.9, -7.5, 0.7)'
p3054
(dp3055
(F1.9
F-7.6
F0.7
tp3056
F1.0
ssS'(-3.9, -9.5, -0.7), (-3.9, -9.4, -0.7), (-3.9, -9.3, -0.7)'
p3057
(dp3058
(F-3.9
F-9.2
F-0.7
tp3059
F1.0
ssS'(1.3, -0.1, 1.0), (1.3, -0.2, 1.0), (1.4, -0.2, 1.0)'
p3060
(dp3061
(F1.5
F-0.2
F1.0
tp3062
F1.0
ssS'(1.8, -9.3, 0.2), (1.8, -9.3, 0.1), (1.8, -9.4, 0.1)'
p3063
(dp3064
(F1.7
F-9.4
F0.1
tp3065
F1.0
ssS'(1.8, -9.0, 0.7), (1.7, -9.0, 0.7), (1.7, -9.1, 0.7)'
p3066
(dp3067
(F1.7
F-9.2
F0.7
tp3068
F1.0
ssS'(-3.8, -6.8, -0.7), (-3.8, -6.7, -0.7), (-3.8, -6.6, -0.7)'
p3069
(dp3070
(F-3.9
F-6.6
F-0.7
tp3071
F1.0
ssS'(-3.7, -9.7, -0.4), (-3.7, -9.7, -0.5), (-3.7, -9.7, -0.6)'
p3072
(dp3073
(F-3.7
F-9.7
F-0.7
tp3074
F1.0
ssS'(-3.8, -0.7, -0.7), (0.1, 0.0, 1.0), (0.2, 0.0, 1.0)'
p3075
(dp3076
(F0.3
F-0.0
F1.0
tp3077
F1.0
ssS'(1.7, -0.9, 0.7), (1.8, -0.9, 0.7), (1.8, -1.0, 0.7)'
p3078
(dp3079
(F1.8
F-1.1
F0.7
tp3080
F1.0
ssS'(-3.9, -2.8, -0.7), (-3.9, -2.7, -0.7), (-3.9, -2.6, -0.7)'
p3081
(dp3082
(F-3.9
F-2.5
F-0.7
tp3083
F1.0
ssS'(-4.0, -9.2, -0.7), (-4.0, -9.1, -0.7), (-4.0, -9.0, -0.7)'
p3084
(dp3085
(F-4.0
F-8.9
F-0.7
tp3086
F1.0
ssS'(-1.0, -9.6, 0.0), (-1.1, -9.6, 0.0), (-1.2, -9.6, 0.0)'
p3087
(dp3088
(F-1.3
F-9.6
F0.0
tp3089
F0.8
s(F-1.2
F-9.7
F0.0
tp3090
F0.2
ssS'(1.8, -8.8, 0.7), (1.8, -8.9, 0.7), (1.8, -9.0, 0.7)'
p3091
(dp3092
(F1.8
F-9.1
F0.7
tp3093
F0.8
s(F1.7
F-9.0
F0.7
tp3094
F0.2
ssS'(0.1, -9.6, 0.1), (0.0, -9.6, 0.1), (0.0, -9.6, 0.0)'
p3095
(dp3096
(F-0.1
F-9.6
F0.0
tp3097
F1.0
ssS'(-4.0, -5.0, -0.7), (-4.0, -4.9, -0.7), (-3.9, -4.9, -0.7)'
p3098
(dp3099
(F-3.9
F-4.8
F-0.7
tp3100
F1.0
ssS'(-4.0, -4.4, -0.7), (-4.0, -4.3, -0.7), (-4.0, -4.2, -0.7)'
p3101
(dp3102
(F-4.0
F-4.1
F-0.7
tp3103
F1.0
ssS'(1.9, -9.3, 0.6), (1.9, -9.3, 0.5), (1.9, -9.3, 0.4)'
p3104
(dp3105
(F1.9
F-9.3
F0.3
tp3106
F1.0
ssS'(1.9, -5.9, 0.7), (1.9, -6.0, 0.7), (1.9, -6.1, 0.7)'
p3107
(dp3108
(F1.8
F-6.1
F0.7
tp3109
F0.25
s(F1.9
F-6.2
F0.7
tp3110
F0.75
ssS'(-4.1, -7.4, -0.7), (-4.1, -7.3, -0.7), (-4.1, -7.2, -0.7)'
p3111
(dp3112
(F-4.1
F-7.1
F-0.7
tp3113
F1.0
ssS'(1.5, -9.4, 0.7), (1.5, -9.4, 0.6), (1.5, -9.4, 0.5)'
p3114
(dp3115
(F1.5
F-9.4
F0.4
tp3116
F1.0
ssS'(1.5, -0.1, 1.0), (1.5, -0.2, 1.0), (1.6, -0.2, 1.0)'
p3117
(dp3118
(F1.7
F-0.2
F1.0
tp3119
F1.0
ssS'(1.3, -9.4, 0.1), (1.2, -9.4, 0.1), (1.1, -9.4, 0.1)'
p3120
(dp3121
(F1.1
F-9.5
F0.1
tp3122
F0.3333333333333333
s(F1.0
F-9.4
F0.1
tp3123
F0.6666666666666666
ssS'(1.4, -0.1, 1.0), (1.5, -0.1, 1.0), (1.6, -0.1, 1.0)'
p3124
(dp3125
(F1.6
F-0.2
F1.0
tp3126
F1.0
ssS'(1.9, -6.4, 0.7), (1.9, -6.5, 0.7), (1.9, -6.6, 0.7)'
p3127
(dp3128
(F1.9
F-6.7
F0.7
tp3129
F1.0
ssS'(-3.9, -7.1, -0.7), (-3.9, -7.0, -0.7), (-3.9, -6.9, -0.7)'
p3130
(dp3131
(F-3.9
F-6.8
F-0.7
tp3132
F1.0
ssS'(1.4, -9.4, 0.1), (1.3, -9.4, 0.1), (1.2, -9.4, 0.1)'
p3133
(dp3134
(F1.1
F-9.4
F0.1
tp3135
F0.8
s(F1.2
F-9.5
F0.1
tp3136
F0.2
ssS'(-3.9, -1.4, -0.7), (-3.9, -1.3, -0.7), (-3.9, -1.2, -0.7)'
p3137
(dp3138
(F-3.9
F-1.1
F-0.7
tp3139
F0.3333333333333333
s(F-3.8
F-1.2
F-0.7
tp3140
F0.6666666666666666
ssS'(1.8, -2.7, 0.7), (1.8, -2.8, 0.7), (1.9, -2.8, 0.7)'
p3141
(dp3142
(F1.9
F-2.9
F0.7
tp3143
F1.0
ssS'(-3.7, -1.1, -0.7), (-3.6, -1.1, -0.7), (-3.6, -1.0, -0.7)'
p3144
(dp3145
(F-3.6
F-0.9
F-0.7
tp3146
F1.0
ssS'(1.7, -8.9, 0.7), (1.7, -9.0, 0.7), (1.7, -9.1, 0.7)'
p3147
(dp3148
(F1.7
F-9.2
F0.7
tp3149
F1.0
ssS'(-3.9, -9.8, -0.2), (-3.9, -9.8, -0.3), (-3.9, -9.8, -0.4)'
p3150
(dp3151
(F-3.9
F-9.8
F-0.5
tp3152
F1.0
ssS'(-0.9, -9.6, 0.0), (-0.9, -9.7, 0.0), (-1.0, -9.7, 0.0)'
p3153
(dp3154
(F-1.1
F-9.7
F0.0
tp3155
F1.0
ssS'(1.9, -2.6, 0.7), (2.0, -2.6, 0.7), (2.0, -2.7, 0.7)'
p3156
(dp3157
(F2.0
F-2.8
F0.7
tp3158
F1.0
ssS'(1.7, -9.3, 0.7), (1.7, -9.4, 0.7), (1.7, -9.4, 0.6)'
p3159
(dp3160
(F1.7
F-9.3
F0.6
tp3161
F1.0
ssS'(1.8, -1.7, 0.7), (1.8, -1.8, 0.7), (1.8, -1.9, 0.7)'
p3162
(dp3163
(F1.8
F-2.0
F0.7
tp3164
F1.0
ssS'(-3.7, -9.7, -0.3), (-3.7, -9.7, -0.4), (-3.7, -9.7, -0.5)'
p3165
(dp3166
(F-3.7
F-9.7
F-0.6
tp3167
F1.0
ssS'(-3.8, -9.8, -0.6), (-3.8, -9.8, -0.7), (-3.8, -9.7, -0.7)'
p3168
(dp3169
(F-3.8
F-9.6
F-0.7
tp3170
F0.5
s(F-3.9
F-9.7
F-0.7
tp3171
F0.5
ssS'(1.6, -9.4, 0.2), (1.6, -9.4, 0.1), (1.5, -9.4, 0.1)'
p3172
(dp3173
(F1.4
F-9.4
F0.1
tp3174
F1.0
ssS'(-2.0, -9.8, 0.0), (-2.1, -9.8, 0.0), (-2.2, -9.8, 0.0)'
p3175
(dp3176
(F-2.3
F-9.8
F0.0
tp3177
F1.0
ssS'(-0.3, -9.6, 0.1), (-0.4, -9.6, 0.1), (-0.5, -9.6, 0.1)'
p3178
(dp3179
(F-0.6
F-9.6
F0.1
tp3180
F0.3333333333333333
s(F-0.5
F-9.7
F0.1
tp3181
F0.6666666666666666
ssS'(2.0, -7.3, 0.7), (2.0, -7.4, 0.7), (1.9, -7.4, 0.7)'
p3182
(dp3183
(F1.9
F-7.5
F0.7
tp3184
F1.0
ssS'(1.9, -8.8, 0.7), (1.9, -8.9, 0.7), (1.9, -9.0, 0.7)'
p3185
(dp3186
(F1.9
F-9.1
F0.7
tp3187
F1.0
ssS'(1.9, -7.3, 0.7), (1.9, -7.4, 0.7), (1.9, -7.5, 0.7)'
p3188
(dp3189
(F1.9
F-7.6
F0.7
tp3190
F1.0
ssS'(-4.0, -8.0, -0.7), (-4.0, -7.9, -0.7), (-4.0, -7.8, -0.7)'
p3191
(dp3192
(F-4.0
F-7.7
F-0.7
tp3193
F1.0
ssS'(-3.8, -8.8, -0.7), (-3.8, -8.7, -0.7), (-3.8, -8.6, -0.7)'
p3194
(dp3195
(F-3.9
F-8.5
F-0.7
tp3196
F0.16666666666666666
s(F-3.8
F-8.5
F-0.7
tp3197
F0.8333333333333334
ssS'(-2.5, -9.7, 0.0), (-2.5, -9.8, 0.0), (-2.6, -9.8, 0.0)'
p3198
(dp3199
(F-2.7
F-9.8
F0.0
tp3200
F1.0
ssS'(-3.6, -1.2, -0.7), (-3.6, -1.1, -0.7), (-3.6, -1.0, -0.7)'
p3201
(dp3202
(F-3.6
F-0.9
F-0.7
tp3203
F1.0
ssS'(1.2, -0.1, 1.0), (1.3, -0.1, 1.0), (1.3, -0.2, 1.0)'
p3204
(dp3205
(F1.4
F-0.2
F1.0
tp3206
F1.0
ssS'(-3.7, -9.7, -0.6), (-3.7, -9.7, -0.7), (-3.7, -9.6, -0.7)'
p3207
(dp3208
(F-3.7
F-9.5
F-0.7
tp3209
F1.0
ssS'(-3.6, -9.8, -0.4), (-3.6, -9.8, -0.5), (-3.6, -9.8, -0.6)'
p3210
(dp3211
(F-3.6
F-9.8
F-0.7
tp3212
F1.0
ssS'(1.7, -0.2, 0.7), (1.7, -0.3, 0.7), (1.7, -0.4, 0.7)'
p3213
(dp3214
(F1.7
F-0.5
F0.7
tp3215
F0.7777777777777778
s(F1.8
F-0.4
F0.7
tp3216
F0.2222222222222222
ssS'(-3.9, -9.4, -0.7), (-3.9, -9.3, -0.7), (-3.9, -9.2, -0.7)'
p3217
(dp3218
(F-3.9
F-9.1
F-0.7
tp3219
F1.0
ssS'(-3.7, -9.9, -0.6), (-3.7, -9.9, -0.7), (-3.7, -9.8, -0.7)'
p3220
(dp3221
(F-3.7
F-9.7
F-0.7
tp3222
F1.0
ssS'(1.9, -8.0, 0.7), (1.8, -8.0, 0.7), (1.8, -8.1, 0.7)'
p3223
(dp3224
(F1.8
F-8.2
F0.7
tp3225
F1.0
ssS'(0.5, -9.5, 0.1), (0.4, -9.5, 0.1), (0.3, -9.5, 0.1)'
p3226
(dp3227
(F0.3
F-9.6
F0.1
tp3228
F0.3333333333333333
s(F0.2
F-9.5
F0.1
tp3229
F0.4444444444444444
s(F0.3
F-9.5
F0.0
tp3230
F0.2222222222222222
ssS'(2.0, -6.4, 0.7), (1.9, -6.4, 0.7), (1.9, -6.5, 0.7)'
p3231
(dp3232
(F1.9
F-6.6
F0.7
tp3233
F1.0
ssS'(-1.0, -9.7, 0.0), (-1.1, -9.7, 0.0), (-1.2, -9.7, 0.0)'
p3234
(dp3235
(F-1.3
F-9.7
F0.0
tp3236
F0.8888888888888888
s(F-1.2
F-9.8
F0.0
tp3237
F0.1111111111111111
ssS'(-4.0, -6.1, -0.7), (-4.1, -6.1, -0.7), (-4.1, -6.0, -0.7)'
p3238
(dp3239
(F-4.1
F-5.9
F-0.7
tp3240
F1.0
ssS'(1.9, -7.4, 0.7), (1.9, -7.5, 0.7), (1.9, -7.6, 0.7)'
p3241
(dp3242
(F1.8
F-7.6
F0.7
tp3243
F0.2857142857142857
s(F1.9
F-7.7
F0.7
tp3244
F0.7142857142857143
ssS'(-4.1, -3.2, -0.7), (-4.1, -3.1, -0.7), (-4.1, -3.0, -0.7)'
p3245
(dp3246
(F-4.0
F-3.0
F-0.7
tp3247
F1.0
ssS'(-4.0, -2.7, -0.7), (-4.0, -2.6, -0.7), (-4.0, -2.5, -0.7)'
p3248
(dp3249
(F-4.0
F-2.4
F-0.7
tp3250
F1.0
ssS'(1.9, -4.4, 0.7), (1.9, -4.5, 0.7), (1.9, -4.6, 0.7)'
p3251
(dp3252
(F1.9
F-4.7
F0.7
tp3253
F1.0
ssS'(1.6, -9.3, 0.7), (1.6, -9.4, 0.7), (1.6, -9.4, 0.6)'
p3254
(dp3255
(F1.6
F-9.4
F0.5
tp3256
F1.0
ssS'(1.9, -1.5, 0.7), (1.9, -1.6, 0.7), (1.9, -1.7, 0.7)'
p3257
(dp3258
(F1.9
F-1.8
F0.7
tp3259
F1.0
ssS'(0.0, -9.6, 0.1), (0.0, -9.6, 0.0), (-0.1, -9.6, 0.0)'
p3260
(dp3261
(F-0.2
F-9.6
F0.0
tp3262
F1.0
ssS'(1.9, -2.6, 0.7), (1.9, -2.7, 0.7), (2.0, -2.7, 0.7)'
p3263
(dp3264
(F2.0
F-2.8
F0.7
tp3265
F1.0
ssS'(-3.8, -8.6, -0.7), (-3.8, -8.5, -0.7), (-3.8, -8.4, -0.7)'
p3266
(dp3267
(F-3.8
F-8.3
F-0.7
tp3268
F0.8
s(F-3.9
F-8.4
F-0.7
tp3269
F0.2
ssS'(-3.6, -1.4, -0.7), (-3.6, -1.4, -0.8), (-3.6, -1.3, -0.8)'
p3270
(dp3271
(F-3.6
F-1.2
F-0.8
tp3272
F1.0
ssS'(-4.0, -9.7, -0.4), (-4.0, -9.7, -0.5), (-4.0, -9.7, -0.6)'
p3273
(dp3274
(F-4.0
F-9.7
F-0.7
tp3275
F1.0
ssS'(1.8, -8.1, 0.7), (1.8, -8.2, 0.7), (1.8, -8.3, 0.7)'
p3276
(dp3277
(F1.8
F-8.4
F0.7
tp3278
F0.75
s(F1.7
F-8.3
F0.7
tp3279
F0.25
ssS'(0.3, -9.5, 0.0), (0.2, -9.5, 0.0), (0.1, -9.5, 0.0)'
p3280
(dp3281
(F0.0
F-9.5
F0.0
tp3282
F1.0
ssS'(-3.9, -3.7, -0.7), (-3.8, -3.7, -0.7), (-3.8, -3.6, -0.7)'
p3283
(dp3284
(F-3.8
F-3.5
F-0.7
tp3285
F1.0
ssS'(0.1, -9.5, 0.1), (0.1, -9.5, 0.0), (0.0, -9.5, 0.0)'
p3286
(dp3287
(F-0.1
F-9.5
F0.0
tp3288
F0.5
s(F0.0
F-9.6
F0.0
tp3289
F0.5
ssS'(-1.4, -9.7, 0.0), (-1.5, -9.7, 0.0), (-1.6, -9.7, 0.0)'
p3290
(dp3291
(F-1.7
F-9.7
F0.0
tp3292
F0.8888888888888888
s(F-1.6
F-9.8
F0.0
tp3293
F0.1111111111111111
ssS'(-3.8, -3.0, -0.7), (-3.8, -2.9, -0.7), (-3.8, -2.8, -0.7)'
p3294
(dp3295
(F-3.8
F-2.7
F-0.7
tp3296
F1.0
ssS'(-3.9, -8.3, -0.7), (-3.9, -8.2, -0.7), (-3.9, -8.1, -0.7)'
p3297
(dp3298
(F-3.9
F-8.0
F-0.7
tp3299
F1.0
ssS'(2.0, -5.5, 0.7), (2.0, -5.6, 0.7), (1.9, -5.6, 0.7)'
p3300
(dp3301
(F1.9
F-5.7
F0.7
tp3302
F1.0
ssS'(-3.7, -1.3, -0.7), (-3.7, -1.2, -0.7), (-3.7, -1.1, -0.7)'
p3303
(dp3304
(F-3.7
F-1.0
F-0.7
tp3305
F0.5
s(F-3.6
F-1.1
F-0.7
tp3306
F0.5
ssS'(-0.2, -9.6, 0.1), (-0.3, -9.6, 0.1), (-0.3, -9.7, 0.1)'
p3307
(dp3308
(F-0.4
F-9.7
F0.1
tp3309
F1.0
ssS'(-2.6, -9.8, 0.0), (-2.7, -9.8, 0.0), (-2.8, -9.8, 0.0)'
p3310
(dp3311
(F-2.9
F-9.8
F0.0
tp3312
F1.0
ssS'(1.9, -4.0, 0.7), (1.9, -4.1, 0.7), (1.9, -4.2, 0.7)'
p3313
(dp3314
(F1.9
F-4.3
F0.7
tp3315
F1.0
ssS'(-3.7, -9.4, -0.7), (-3.7, -9.3, -0.7), (-3.7, -9.2, -0.7)'
p3316
(dp3317
(F-3.7
F-9.1
F-0.7
tp3318
F0.8
s(F-3.8
F-9.2
F-0.7
tp3319
F0.2
ssS'(-3.5, -0.5, -0.8), (0.1, 0.0, 1.0), (0.2, 0.0, 1.0)'
p3320
(dp3321
(F0.3
F-0.0
F1.0
tp3322
F1.0
ssS'(-1.5, -9.7, 0.0), (-1.5, -9.8, 0.0), (-1.6, -9.8, 0.0)'
p3323
(dp3324
(F-1.7
F-9.8
F0.0
tp3325
F1.0
ssS'(-3.2, -9.7, 0.0), (-3.3, -9.7, 0.0), (-3.4, -9.7, 0.0)'
p3326
(dp3327
(F-3.5
F-9.7
F0.0
tp3328
F1.0
ssS'(1.8, -9.0, 0.7), (1.8, -9.1, 0.7), (1.8, -9.2, 0.7)'
p3329
(dp3330
(F1.7
F-9.2
F0.7
tp3331
F0.25
s(F1.8
F-9.3
F0.7
tp3332
F0.75
ssS'(1.9, -2.1, 0.7), (1.9, -2.2, 0.7), (1.9, -2.3, 0.7)'
p3333
(dp3334
(F1.9
F-2.4
F0.7
tp3335
F1.0
ssS'(1.6, -0.1, 1.0), (1.6, -0.2, 1.0), (1.7, -0.2, 1.0)'
p3336
(dp3337
(F1.7
F-0.2
F0.9
tp3338
F1.0
ssS'(1.9, -3.4, 0.7), (1.9, -3.5, 0.7), (1.9, -3.6, 0.7)'
p3339
(dp3340
(F1.9
F-3.7
F0.7
tp3341
F1.0
ssS'(1.8, -9.4, 0.5), (1.8, -9.4, 0.4), (1.8, -9.4, 0.3)'
p3342
(dp3343
(F1.8
F-9.4
F0.2
tp3344
F1.0
ssS'(0.1, -9.5, 0.1), (0.1, -9.6, 0.1), (0.0, -9.6, 0.1)'
p3345
(dp3346
(F0.0
F-9.6
F0.0
tp3347
F1.0
ssS'(1.9, -7.1, 0.7), (1.8, -7.1, 0.7), (1.8, -7.2, 0.7)'
p3348
(dp3349
(F1.8
F-7.3
F0.7
tp3350
F1.0
ssS'(-3.8, -3.7, -0.7), (-3.8, -3.6, -0.7), (-3.8, -3.5, -0.7)'
p3351
(dp3352
(F-3.8
F-3.4
F-0.7
tp3353
F1.0
ssS'(-3.7, -9.9, -0.4), (-3.7, -9.9, -0.5), (-3.7, -9.9, -0.6)'
p3354
(dp3355
(F-3.7
F-9.9
F-0.7
tp3356
F1.0
ssS'(-3.8, -1.3, -0.7), (-3.8, -1.2, -0.7), (-3.8, -1.1, -0.7)'
p3357
(dp3358
(F-3.8
F-1.0
F-0.7
tp3359
F1.0
ssS'(-3.9, -3.5, -0.7), (-3.9, -3.4, -0.7), (-3.9, -3.3, -0.7)'
p3360
(dp3361
(F-3.9
F-3.2
F-0.7
tp3362
F0.75
s(F-3.8
F-3.3
F-0.7
tp3363
F0.25
ssS'(-4.0, -6.1, -0.7), (-4.0, -6.0, -0.7), (-4.0, -5.9, -0.7)'
p3364
(dp3365
(F-4.0
F-5.8
F-0.7
tp3366
F1.0
ssS'(1.8, -8.0, 0.7), (1.8, -8.1, 0.7), (1.8, -8.2, 0.7)'
p3367
(dp3368
(F1.8
F-8.3
F0.7
tp3369
F1.0
ssS'(1.8, -2.2, 0.7), (1.9, -2.2, 0.7), (1.9, -2.3, 0.7)'
p3370
(dp3371
(F1.9
F-2.4
F0.7
tp3372
F1.0
ssS'(1.7, -0.8, 0.7), (1.8, -0.8, 0.7), (1.8, -0.9, 0.7)'
p3373
(dp3374
(F1.8
F-1.0
F0.7
tp3375
F1.0
ssS'(2.0, -3.9, 0.7), (2.0, -4.0, 0.7), (2.0, -4.1, 0.7)'
p3376
(dp3377
(F2.0
F-4.2
F0.7
tp3378
F1.0
ssS'(-4.1, -8.0, -0.7), (-4.1, -7.9, -0.7), (-4.1, -7.8, -0.7)'
p3379
(dp3380
(F-4.1
F-7.7
F-0.7
tp3381
F1.0
ssS'(-3.9, -1.7, -0.7), (-3.8, -1.7, -0.7), (-3.8, -1.6, -0.7)'
p3382
(dp3383
(F-3.8
F-1.5
F-0.7
tp3384
F1.0
ssS'(-0.4, -9.6, 0.1), (-0.5, -9.6, 0.1), (-0.6, -9.6, 0.1)'
p3385
(dp3386
(F-0.6
F-9.7
F0.1
tp3387
F1.0
ssS'(1.9, -8.4, 0.7), (1.9, -8.5, 0.7), (1.8, -8.5, 0.7)'
p3388
(dp3389
(F1.8
F-8.6
F0.7
tp3390
F1.0
ssS'(1.9, -8.2, 0.7), (1.8, -8.2, 0.7), (1.8, -8.3, 0.7)'
p3391
(dp3392
(F1.8
F-8.4
F0.7
tp3393
F1.0
ssS'(-3.7, -9.9, 0.0), (-3.7, -9.9, -0.1), (-3.7, -9.9, -0.2)'
p3394
(dp3395
(F-3.7
F-9.9
F-0.3
tp3396
F1.0
ssS'(-3.6, -1.1, -0.7), (-3.6, -1.0, -0.7), (-3.6, -0.9, -0.7)'
p3397
(dp3398
(F-3.6
F-0.9
F-0.8
tp3399
F0.5
s(F-3.6
F-0.8
F-0.7
tp3400
F0.5
ssS'(-4.0, -2.2, -0.7), (-4.0, -2.1, -0.7), (-4.0, -2.0, -0.7)'
p3401
(dp3402
(F-4.0
F-1.9
F-0.7
tp3403
F1.0
ssS'(-3.9, -7.8, -0.7), (-3.9, -7.7, -0.7), (-3.9, -7.6, -0.7)'
p3404
(dp3405
(F-3.9
F-7.5
F-0.7
tp3406
F1.0
ssS'(1.7, -9.4, 0.6), (1.7, -9.3, 0.6), (1.7, -9.4, 0.6)'
p3407
(dp3408
(F1.7
F-9.4
F0.5
tp3409
F1.0
ssS'(1.9, -6.5, 0.7), (1.9, -6.6, 0.7), (1.9, -6.7, 0.7)'
p3410
(dp3411
(F1.9
F-6.8
F0.7
tp3412
F1.0
ssS'(1.8, -1.9, 0.7), (1.8, -2.0, 0.7), (1.8, -2.1, 0.7)'
p3413
(dp3414
(F1.8
F-2.2
F0.7
tp3415
F1.0
ssS'(0.5, -0.0, 1.0), (0.6, -0.0, 1.0), (0.7, -0.0, 1.0)'
p3416
(dp3417
(F0.7
F-0.1
F1.0
tp3418
F1.0
ssS'(-2.5, -9.9, 0.0), (-2.6, -9.9, 0.0), (-2.7, -9.9, 0.0)'
p3419
(dp3420
(F-2.8
F-9.9
F0.0
tp3421
F1.0
ssS'(-3.8, -0.6, -0.8), (0.1, 0.0, 1.0), (0.2, 0.0, 1.0)'
p3422
(dp3423
(F0.3
F-0.0
F1.0
tp3424
F1.0
ssS'(1.7, -8.6, 0.7), (1.7, -8.7, 0.7), (1.7, -8.8, 0.7)'
p3425
(dp3426
(F1.7
F-8.9
F0.7
tp3427
F1.0
ssS'(-4.1, -6.0, -0.7), (-4.1, -5.9, -0.7), (-4.1, -5.8, -0.7)'
p3428
(dp3429
(F-4.1
F-5.7
F-0.7
tp3430
F1.0
ssS'(-3.5, -0.7, -0.8), (-3.5, -0.6, -0.8), (-3.5, -0.5, -0.8)'
p3431
(dp3432
(F0.1
F0.0
F1.0
tp3433
F1.0
ssS'(-3.8, -9.8, -0.5), (-3.8, -9.8, -0.6), (-3.8, -9.8, -0.7)'
p3434
(dp3435
(F-3.8
F-9.7
F-0.7
tp3436
F1.0
ssS'(1.7, -9.4, 0.7), (1.7, -9.4, 0.6), (1.7, -9.3, 0.6)'
p3437
(dp3438
(F1.7
F-9.4
F0.6
tp3439
F1.0
ssS'(-3.7, -0.5, -0.8), (0.1, 0.0, 1.0), (0.2, 0.0, 1.0)'
p3440
(dp3441
(F0.3
F-0.0
F1.0
tp3442
F1.0
ssS'(-3.7, -1.8, -0.7), (-3.7, -1.7, -0.7), (-3.7, -1.6, -0.7)'
p3443
(dp3444
(F-3.7
F-1.5
F-0.7
tp3445
F0.6666666666666666
s(F-3.6
F-1.6
F-0.7
tp3446
F0.3333333333333333
ssS'(-1.5, -9.7, 0.0), (-1.6, -9.7, 0.0), (-1.6, -9.8, 0.0)'
p3447
(dp3448
(F-1.7
F-9.8
F0.0
tp3449
F1.0
ssS'(-3.9, -6.2, -0.7), (-3.9, -6.1, -0.7), (-4.0, -6.1, -0.7)'
p3450
(dp3451
(F-4.0
F-6.0
F-0.7
tp3452
F1.0
ssS'(-3.9, -6.1, -0.7), (-4.0, -6.1, -0.7), (-4.0, -6.0, -0.7)'
p3453
(dp3454
(F-4.0
F-5.9
F-0.7
tp3455
F1.0
ssS'(-0.6, -9.6, 0.0), (-0.7, -9.6, 0.0), (-0.8, -9.6, 0.0)'
p3456
(dp3457
(F-0.9
F-9.6
F0.0
tp3458
F1.0
ssS'(1.8, -7.7, 0.7), (1.8, -7.8, 0.7), (1.8, -7.9, 0.7)'
p3459
(dp3460
(F1.8
F-8.0
F0.7
tp3461
F1.0
ssS'(-3.5, -9.7, 0.0), (-3.6, -9.7, 0.0), (-3.7, -9.7, -0.0)'
p3462
(dp3463
(F-3.8
F-9.7
F-0.0
tp3464
F1.0
ssS'(1.3, -0.1, 1.0), (1.4, -0.1, 1.0), (1.5, -0.1, 1.0)'
p3465
(dp3466
(F1.5
F-0.2
F1.0
tp3467
F0.6363636363636364
s(F1.6
F-0.1
F1.0
tp3468
F0.36363636363636365
ssS'(1.5, -9.1, 0.7), (1.5, -9.2, 0.7), (1.5, -9.3, 0.7)'
p3469
(dp3470
(F1.5
F-9.4
F0.7
tp3471
F1.0
ssS'(-3.8, -4.1, -0.7), (-3.8, -4.0, -0.7), (-3.8, -3.9, -0.7)'
p3472
(dp3473
(F-3.8
F-3.8
F-0.7
tp3474
F1.0
ssS'(1.7, -8.1, 0.7), (1.7, -8.2, 0.7), (1.6, -8.2, 0.7)'
p3475
(dp3476
(F1.6
F-8.3
F0.7
tp3477
F1.0
ssS'(-3.8, -3.3, -0.7), (-3.8, -3.2, -0.7), (-3.8, -3.1, -0.7)'
p3478
(dp3479
(F-3.8
F-3.0
F-0.7
tp3480
F1.0
ssS'(1.8, -8.2, 0.7), (1.8, -8.3, 0.7), (1.7, -8.3, 0.7)'
p3481
(dp3482
(F1.7
F-8.4
F0.7
tp3483
F1.0
ssS'(1.8, -6.5, 0.7), (1.8, -6.6, 0.7), (1.8, -6.7, 0.7)'
p3484
(dp3485
(F1.8
F-6.8
F0.7
tp3486
F1.0
ssS'(1.8, -6.6, 0.7), (1.8, -6.7, 0.7), (1.8, -6.8, 0.7)'
p3487
(dp3488
(F1.8
F-6.9
F0.7
tp3489
F1.0
ssS'(-4.0, -7.6, -0.7), (-4.0, -7.5, -0.7), (-4.0, -7.4, -0.7)'
p3490
(dp3491
(F-4.0
F-7.3
F-0.7
tp3492
F1.0
ssS'(1.7, -0.4, 0.7), (1.8, -0.4, 0.7), (1.8, -0.5, 0.7)'
p3493
(dp3494
(F1.8
F-0.6
F0.7
tp3495
F1.0
ssS'(-3.9, -6.9, -0.7), (-3.9, -6.8, -0.7), (-3.9, -6.7, -0.7)'
p3496
(dp3497
(F-3.9
F-6.6
F-0.7
tp3498
F1.0
ssS'(1.9, -9.3, 0.7), (1.8, -9.3, 0.7), (1.8, -9.3, 0.6)'
p3499
(dp3500
(F1.8
F-9.3
F0.5
tp3501
F1.0
ssS'(1.9, -2.5, 0.7), (2.0, -2.5, 0.7), (2.0, -2.6, 0.7)'
p3502
(dp3503
(F2.0
F-2.7
F0.7
tp3504
F1.0
ssS'(-3.8, -9.3, -0.7), (-3.8, -9.2, -0.7), (-3.9, -9.2, -0.7)'
p3505
(dp3506
(F-3.9
F-9.1
F-0.7
tp3507
F1.0
ssS'(-3.8, -9.7, -0.5), (-3.8, -9.7, -0.6), (-3.8, -9.7, -0.7)'
p3508
(dp3509
(F-3.8
F-9.6
F-0.7
tp3510
F1.0
ssS'(-4.0, -8.4, -0.7), (-4.0, -8.3, -0.7), (-4.1, -8.3, -0.7)'
p3511
(dp3512
(F-4.1
F-8.2
F-0.7
tp3513
F1.0
ssS'(-3.7, -9.9, -0.2), (-3.7, -9.9, -0.3), (-3.7, -9.9, -0.4)'
p3514
(dp3515
(F-3.7
F-9.9
F-0.5
tp3516
F1.0
ssS'(0.6, -9.5, 0.1), (0.5, -9.5, 0.1), (0.4, -9.5, 0.1)'
p3517
(dp3518
(F0.4
F-9.5
F0.0
tp3519
F0.07692307692307693
s(F0.3
F-9.5
F0.1
tp3520
F0.6923076923076923
s(F0.4
F-9.6
F0.1
tp3521
F0.23076923076923078
ssS'(-1.6, -9.8, 0.0), (-1.7, -9.8, 0.0), (-1.8, -9.8, 0.0)'
p3522
(dp3523
(F-1.9
F-9.8
F0.0
tp3524
F1.0
ssS'(-4.0, -5.2, -0.7), (-4.0, -5.1, -0.7), (-4.0, -5.0, -0.7)'
p3525
(dp3526
(F-4.0
F-4.9
F-0.7
tp3527
F1.0
ssS'(1.9, -9.3, 0.7), (1.9, -9.3, 0.6), (1.9, -9.3, 0.5)'
p3528
(dp3529
(F1.9
F-9.3
F0.4
tp3530
F1.0
ssS'(1.8, -9.4, 0.4), (1.8, -9.4, 0.3), (1.8, -9.4, 0.2)'
p3531
(dp3532
(F1.8
F-9.4
F0.1
tp3533
F1.0
ssS'(-3.9, -2.0, -0.7), (-3.9, -1.9, -0.7), (-3.8, -1.9, -0.7)'
p3534
(dp3535
(F-3.8
F-1.8
F-0.7
tp3536
F1.0
ssS'(2.0, -2.7, 0.7), (2.0, -2.8, 0.7), (2.0, -2.9, 0.7)'
p3537
(dp3538
(F2.0
F-3.0
F0.7
tp3539
F1.0
ssS'(1.8, -9.2, 0.7), (1.8, -9.3, 0.7), (1.8, -9.4, 0.7)'
p3540
(dp3541
(F1.8
F-9.4
F0.6
tp3542
F1.0
ssS'(1.9, -6.6, 0.7), (1.9, -6.7, 0.7), (1.9, -6.8, 0.7)'
p3543
(dp3544
(F1.9
F-6.9
F0.7
tp3545
F1.0
ssS'(-3.9, -9.8, 0.0), (-3.9, -9.8, -0.1), (-3.9, -9.8, -0.2)'
p3546
(dp3547
(F-3.9
F-9.8
F-0.3
tp3548
F1.0
ssS'(-0.2, -9.6, 0.1), (-0.3, -9.6, 0.1), (-0.3, -9.6, 0.0)'
p3549
(dp3550
(F-0.4
F-9.6
F0.0
tp3551
F1.0
ssS'(-3.8, -9.2, -0.7), (-3.8, -9.1, -0.7), (-3.9, -9.1, -0.7)'
p3552
(dp3553
(F-3.9
F-9.0
F-0.7
tp3554
F1.0
ssS'(2.0, -7.1, 0.7), (2.0, -7.2, 0.7), (2.0, -7.3, 0.7)'
p3555
(dp3556
(F2.0
F-7.4
F0.7
tp3557
F1.0
ssS'(-3.6, -9.8, -0.7), (-3.6, -9.7, -0.7), (-3.6, -9.6, -0.7)'
p3558
(dp3559
(F-3.6
F-9.5
F-0.7
tp3560
F0.25
s(F-3.7
F-9.6
F-0.7
tp3561
F0.75
ssS'(-4.0, -3.5, -0.7), (-4.0, -3.4, -0.7), (-4.0, -3.3, -0.7)'
p3562
(dp3563
(F-4.0
F-3.2
F-0.7
tp3564
F1.0
ssS'(2.0, -6.7, 0.7), (2.0, -6.8, 0.7), (2.0, -6.9, 0.7)'
p3565
(dp3566
(F1.9
F-6.9
F0.7
tp3567
F0.14285714285714285
s(F2.0
F-7.0
F0.7
tp3568
F0.8571428571428571
ssS'(-3.9, -1.7, -0.7), (-3.9, -1.6, -0.7), (-3.9, -1.5, -0.7)'
p3569
(dp3570
(F-3.9
F-1.4
F-0.7
tp3571
F0.75
s(F-3.8
F-1.5
F-0.7
tp3572
F0.25
ssS'(-3.7, -9.7, 0.0), (-3.8, -9.7, -0.0), (-3.9, -9.7, -0.0)'
p3573
(dp3574
(F-4.0
F-9.7
F-0.0
tp3575
F1.0
ssS'(2.0, -5.8, 0.7), (2.0, -5.9, 0.7), (2.0, -6.0, 0.7)'
p3576
(dp3577
(F2.0
F-6.1
F0.7
tp3578
F1.0
ssS'(-3.6, -1.0, -0.7), (-3.6, -0.9, -0.7), (-3.6, -0.8, -0.7)'
p3579
(dp3580
(F-3.6
F-0.7
F-0.7
tp3581
F1.0
ssS'(2.0, -6.3, 0.7), (2.0, -6.4, 0.7), (1.9, -6.4, 0.7)'
p3582
(dp3583
(F1.9
F-6.5
F0.7
tp3584
F1.0
ssS'(-3.7, -8.5, -0.7), (-3.7, -8.4, -0.7), (-3.7, -8.3, -0.7)'
p3585
(dp3586
(F-3.8
F-8.3
F-0.7
tp3587
F1.0
ssS'(1.9, -3.7, 0.7), (1.9, -3.8, 0.7), (1.9, -3.9, 0.7)'
p3588
(dp3589
(F1.9
F-4.0
F0.7
tp3590
F1.0
ssS'(-3.7, -9.0, -0.7), (-3.7, -8.9, -0.7), (-3.7, -8.8, -0.7)'
p3591
(dp3592
(F-3.8
F-8.8
F-0.7
tp3593
F0.5
s(F-3.7
F-8.7
F-0.7
tp3594
F0.5
ssS'(1.9, -4.1, 0.7), (1.9, -4.2, 0.7), (1.9, -4.3, 0.7)'
p3595
(dp3596
(F1.9
F-4.4
F0.7
tp3597
F1.0
ssS'(0.1, 0.0, 1.0), (0.2, 0.0, 1.0), (0.3, -0.0, 1.0)'
p3598
(dp3599
(F0.4
F-0.0
F1.0
tp3600
F1.0
ssS'(1.9, -2.5, 0.7), (1.9, -2.6, 0.7), (2.0, -2.6, 0.7)'
p3601
(dp3602
(F2.0
F-2.7
F0.7
tp3603
F1.0
ssS'(-4.0, -9.3, -0.7), (-4.0, -9.2, -0.7), (-4.0, -9.1, -0.7)'
p3604
(dp3605
(F-4.0
F-9.0
F-0.7
tp3606
F1.0
ssS'(-3.7, -0.7, -0.8), (-3.7, -0.6, -0.8), (0.1, 0.0, 1.0)'
p3607
(dp3608
(F0.2
F0.0
F1.0
tp3609
F1.0
ssS'(2.0, -5.3, 0.7), (2.0, -5.4, 0.7), (2.0, -5.5, 0.7)'
p3610
(dp3611
(F2.0
F-5.6
F0.7
tp3612
F1.0
ssS'(-3.9, -5.9, -0.7), (-3.9, -5.8, -0.7), (-3.9, -5.7, -0.7)'
p3613
(dp3614
(F-3.9
F-5.6
F-0.7
tp3615
F1.0
ssS'(-3.8, -8.2, -0.7), (-3.8, -8.1, -0.7), (-3.8, -8.0, -0.7)'
p3616
(dp3617
(F-3.8
F-7.9
F-0.7
tp3618
F1.0
ssS'(1.9, -7.5, 0.7), (1.9, -7.6, 0.7), (1.8, -7.6, 0.7)'
p3619
(dp3620
(F1.8
F-7.7
F0.7
tp3621
F1.0
ssS'(-4.1, -6.3, -0.7), (-4.1, -6.2, -0.7), (-4.1, -6.1, -0.7)'
p3622
(dp3623
(F-4.1
F-6.0
F-0.7
tp3624
F1.0
ssS'(-3.9, -6.5, -0.7), (-3.9, -6.4, -0.7), (-4.0, -6.4, -0.7)'
p3625
(dp3626
(F-4.0
F-6.3
F-0.7
tp3627
F1.0
ssS'(-3.9, -1.8, -0.7), (-3.9, -1.7, -0.7), (-3.9, -1.6, -0.7)'
p3628
(dp3629
(F-3.9
F-1.5
F-0.7
tp3630
F1.0
ssS'(0.6, -0.0, 1.0), (0.7, -0.0, 1.0), (0.7, -0.1, 1.0)'
p3631
(dp3632
(F0.8
F-0.1
F1.0
tp3633
F1.0
ssS'(1.9, -5.4, 0.7), (1.8, -5.4, 0.7), (1.8, -5.5, 0.7)'
p3634
(dp3635
(F1.8
F-5.6
F0.7
tp3636
F1.0
ssS'(1.8, -2.5, 0.7), (1.8, -2.6, 0.7), (1.9, -2.6, 0.7)'
p3637
(dp3638
(F1.9
F-2.7
F0.7
tp3639
F1.0
ssS'(-1.8, -9.7, 0.0), (-1.8, -9.8, 0.0), (-1.9, -9.8, 0.0)'
p3640
(dp3641
(F-2.0
F-9.8
F0.0
tp3642
F1.0
ssS'(-3.7, -1.2, -0.7), (-3.7, -1.1, -0.7), (-3.7, -1.0, -0.7)'
p3643
(dp3644
(F-3.7
F-0.9
F-0.7
tp3645
F1.0
ssS'(-3.9, -3.3, -0.7), (-3.8, -3.3, -0.7), (-3.8, -3.2, -0.7)'
p3646
(dp3647
(F-3.8
F-3.1
F-0.7
tp3648
F1.0
ssS'(-3.8, -9.8, 0.0), (-3.8, -9.8, -0.1), (-3.8, -9.8, -0.2)'
p3649
(dp3650
(F-3.8
F-9.8
F-0.3
tp3651
F1.0
ssS'(-2.7, -9.9, 0.0), (-2.8, -9.9, 0.0), (-2.9, -9.9, 0.0)'
p3652
(dp3653
(F-3.0
F-9.9
F0.0
tp3654
F1.0
ssS'(-1.3, -9.7, 0.0), (-1.4, -9.7, 0.0), (-1.5, -9.7, 0.0)'
p3655
(dp3656
(F-1.5
F-9.8
F0.0
tp3657
F0.1111111111111111
s(F-1.6
F-9.7
F0.0
tp3658
F0.8888888888888888
ssS'(1.7, -7.4, 0.7), (1.7, -7.5, 0.7), (1.7, -7.6, 0.7)'
p3659
(dp3660
(F1.7
F-7.7
F0.7
tp3661
F1.0
ssS'(1.8, -5.7, 0.7), (1.8, -5.8, 0.7), (1.8, -5.9, 0.7)'
p3662
(dp3663
(F1.8
F-6.0
F0.7
tp3664
F1.0
ssS'(-3.5, -9.7, 0.0), (-3.6, -9.7, 0.0), (-3.7, -9.7, 0.0)'
p3665
(dp3666
(F-3.7
F-9.7
F-0.1
tp3667
F0.3333333333333333
s(F-3.8
F-9.7
F0.0
tp3668
F0.6666666666666666
ssS'(-4.0, -3.8, -0.7), (-4.0, -3.7, -0.7), (-4.0, -3.6, -0.7)'
p3669
(dp3670
(F-3.9
F-3.6
F-0.7
tp3671
F0.2
s(F-4.0
F-3.5
F-0.7
tp3672
F0.8
ssS'(-3.8, -8.3, -0.7), (-3.8, -8.2, -0.7), (-3.8, -8.1, -0.7)'
p3673
(dp3674
(F-3.8
F-8.0
F-0.7
tp3675
F1.0
ssS'(-3.9, -3.8, -0.7), (-3.9, -3.7, -0.7), (-3.8, -3.7, -0.7)'
p3676
(dp3677
(F-3.8
F-3.6
F-0.7
tp3678
F1.0
ssS'(-3.6, -9.8, -0.3), (-3.6, -9.8, -0.4), (-3.6, -9.8, -0.5)'
p3679
(dp3680
(F-3.6
F-9.8
F-0.6
tp3681
F1.0
ssS'(1.7, -0.5, 0.8), (1.7, -0.6, 0.8), (1.7, -0.6, 0.7)'
p3682
(dp3683
(F1.7
F-0.7
F0.7
tp3684
F1.0
ssS'(1.8, -2.6, 0.7), (1.8, -2.7, 0.7), (1.8, -2.8, 0.7)'
p3685
(dp3686
(F1.9
F-2.8
F0.7
tp3687
F1.0
ssS'(-3.7, -9.9, -0.5), (-3.7, -9.9, -0.6), (-3.7, -9.9, -0.7)'
p3688
(dp3689
(F-3.7
F-9.8
F-0.7
tp3690
F1.0
ssS'(-3.9, -2.4, -0.7), (-3.9, -2.3, -0.7), (-3.9, -2.2, -0.7)'
p3691
(dp3692
(F-3.9
F-2.1
F-0.7
tp3693
F1.0
ssS'(-0.6, -9.6, 0.1), (-0.6, -9.7, 0.1), (-0.7, -9.7, 0.1)'
p3694
(dp3695
(F-0.7
F-9.7
F0.0
tp3696
F1.0
ssS'(0.4, -0.0, 1.0), (0.5, -0.0, 1.0), (0.6, -0.0, 1.0)'
p3697
(dp3698
(F0.6
F-0.1
F1.0
tp3699
F0.26666666666666666
s(F0.7
F-0.0
F1.0
tp3700
F0.7333333333333333
ssS'(1.7, -0.5, 0.7), (1.7, -0.6, 0.7), (1.8, -0.6, 0.7)'
p3701
(dp3702
(F1.8
F-0.7
F0.7
tp3703
F1.0
ssS'(-3.6, -9.8, -0.2), (-3.6, -9.8, -0.3), (-3.6, -9.8, -0.4)'
p3704
(dp3705
(F-3.6
F-9.8
F-0.5
tp3706
F1.0
ssS'(2.0, -3.7, 0.7), (2.0, -3.8, 0.7), (2.0, -3.9, 0.7)'
p3707
(dp3708
(F2.0
F-4.0
F0.7
tp3709
F1.0
ssS'(1.5, -9.2, 0.7), (1.5, -9.3, 0.7), (1.5, -9.4, 0.7)'
p3710
(dp3711
(F1.5
F-9.4
F0.6
tp3712
F1.0
ssS'(1.7, -7.2, 0.7), (1.7, -7.3, 0.7), (1.7, -7.4, 0.7)'
p3713
(dp3714
(F1.7
F-7.5
F0.7
tp3715
F1.0
ssS'(-4.1, -3.8, -0.7), (-4.1, -3.7, -0.7), (-4.1, -3.6, -0.7)'
p3716
(dp3717
(F-4.1
F-3.5
F-0.7
tp3718
F1.0
ssS'(1.8, -9.3, 0.7), (1.8, -9.4, 0.7), (1.8, -9.4, 0.6)'
p3719
(dp3720
(F1.8
F-9.4
F0.5
tp3721
F1.0
ssS'(0.2, -9.5, 0.1), (0.1, -9.5, 0.1), (0.1, -9.5, 0.0)'
p3722
(dp3723
(F0.0
F-9.5
F0.0
tp3724
F1.0
ssS'(-4.1, -4.6, -0.7), (-4.1, -4.5, -0.7), (-4.0, -4.5, -0.7)'
p3725
(dp3726
(F-4.0
F-4.4
F-0.7
tp3727
F1.0
ssS'(-3.8, -9.7, -0.6), (-3.8, -9.7, -0.7), (-3.8, -9.6, -0.7)'
p3728
(dp3729
(F-3.8
F-9.5
F-0.7
tp3730
F1.0
ssS'(-4.1, -4.3, -0.7), (-4.1, -4.2, -0.7), (-4.1, -4.1, -0.7)'
p3731
(dp3732
(F-4.1
F-4.0
F-0.7
tp3733
F1.0
ssS'(-3.7, -2.3, -0.7), (-3.7, -2.2, -0.7), (-3.7, -2.1, -0.7)'
p3734
(dp3735
(F-3.7
F-2.0
F-0.7
tp3736
F1.0
ssS'(-4.1, -6.7, -0.7), (-4.1, -6.6, -0.7), (-4.1, -6.5, -0.7)'
p3737
(dp3738
(F-4.1
F-6.4
F-0.7
tp3739
F1.0
ssS'(-3.5, -9.9, 0.0), (-3.6, -9.9, 0.0), (-3.6, -9.9, -0.1)'
p3740
(dp3741
(F-3.6
F-9.9
F-0.2
tp3742
F1.0
ssS'(1.8, -9.3, 0.2), (1.8, -9.3, 0.1), (1.7, -9.3, 0.1)'
p3743
(dp3744
(F1.7
F-9.4
F0.1
tp3745
F1.0
ssS'(1.6, -8.9, 0.7), (1.6, -9.0, 0.7), (1.6, -9.1, 0.7)'
p3746
(dp3747
(F1.5
F-9.1
F0.7
tp3748
F0.6666666666666666
s(F1.6
F-9.2
F0.7
tp3749
F0.3333333333333333
ssS'(0.2, -9.6, 0.1), (0.1, -9.6, 0.1), (0.0, -9.6, 0.1)'
p3750
(dp3751
(F-0.1
F-9.6
F0.1
tp3752
F1.0
ssS'(1.7, -9.4, 0.2), (1.7, -9.4, 0.1), (1.6, -9.4, 0.1)'
p3753
(dp3754
(F1.5
F-9.4
F0.1
tp3755
F1.0
ssS'(-2.1, -9.7, 0.0), (-2.2, -9.7, 0.0), (-2.3, -9.7, 0.0)'
p3756
(dp3757
(F-2.4
F-9.7
F0.0
tp3758
F1.0
ssS'(1.7, -9.3, 0.2), (1.7, -9.3, 0.1), (1.6, -9.3, 0.1)'
p3759
(dp3760
(F1.6
F-9.4
F0.1
tp3761
F1.0
ssS'(1.8, -8.6, 0.7), (1.8, -8.7, 0.7), (1.7, -8.7, 0.7)'
p3762
(dp3763
(F1.7
F-8.8
F0.7
tp3764
F1.0
ssS'(-3.8, -1.6, -0.7), (-3.8, -1.5, -0.7), (-3.8, -1.4, -0.7)'
p3765
(dp3766
(F-3.8
F-1.3
F-0.7
tp3767
F0.6666666666666666
s(F-3.8
F-1.4
F-0.8
tp3768
F0.3333333333333333
ssS'(2.0, -7.0, 0.7), (2.0, -7.1, 0.7), (2.0, -7.2, 0.7)'
p3769
(dp3770
(F2.0
F-7.3
F0.7
tp3771
F1.0
ssS'(-3.8, -0.8, -0.7), (-3.7, -0.8, -0.7), (-3.7, -0.7, -0.7)'
p3772
(dp3773
(F-3.7
F-0.7
F-0.8
tp3774
F1.0
ssS'(1.8, -5.5, 0.7), (1.8, -5.6, 0.7), (1.8, -5.7, 0.7)'
p3775
(dp3776
(F1.8
F-5.8
F0.7
tp3777
F1.0
ssS'(1.7, -0.8, 0.7), (1.7, -0.9, 0.7), (1.8, -0.9, 0.7)'
p3778
(dp3779
(F1.8
F-1.0
F0.7
tp3780
F1.0
ssS'(0.3, -0.0, 1.0), (0.4, -0.0, 1.0), (0.5, -0.0, 1.0)'
p3781
(dp3782
(F0.6
F-0.0
F1.0
tp3783
F1.0
ssS'(1.7, -9.1, 0.7), (1.7, -9.2, 0.7), (1.7, -9.3, 0.7)'
p3784
(dp3785
(F1.7
F-9.3
F0.6
tp3786
F0.6666666666666666
s(F1.7
F-9.4
F0.7
tp3787
F0.3333333333333333
ssS'(-4.0, -8.7, -0.7), (-4.0, -8.6, -0.7), (-4.0, -8.5, -0.7)'
p3788
(dp3789
(F-4.0
F-8.4
F-0.7
tp3790
F1.0
ssS'(0.3, -9.5, 0.1), (0.3, -9.6, 0.1), (0.2, -9.6, 0.1)'
p3791
(dp3792
(F0.1
F-9.6
F0.1
tp3793
F1.0
ssS'(-4.1, -5.1, -0.7), (-4.1, -5.0, -0.7), (-4.1, -4.9, -0.7)'
p3794
(dp3795
(F-4.1
F-4.8
F-0.7
tp3796
F1.0
ssS'(-3.7, -0.7, -0.7), (-3.7, -0.7, -0.8), (-3.7, -0.6, -0.8)'
p3797
(dp3798
(F0.1
F0.0
F1.0
tp3799
F1.0
ssS'(-1.1, -9.6, 0.0), (-1.2, -9.6, 0.0), (-1.3, -9.6, 0.0)'
p3800
(dp3801
(F-1.4
F-9.6
F0.0
tp3802
F1.0
ssS'(1.8, -2.8, 0.7), (1.9, -2.8, 0.7), (1.9, -2.9, 0.7)'
p3803
(dp3804
(F1.9
F-3.0
F0.7
tp3805
F1.0
ssS'(-3.8, -9.8, -0.3), (-3.8, -9.8, -0.4), (-3.8, -9.8, -0.5)'
p3806
(dp3807
(F-3.8
F-9.8
F-0.6
tp3808
F1.0
ssS'(1.8, -2.3, 0.7), (1.8, -2.4, 0.7), (1.8, -2.5, 0.7)'
p3809
(dp3810
(F1.8
F-2.6
F0.7
tp3811
F1.0
ssS'(-3.8, -3.1, -0.7), (-3.8, -3.0, -0.7), (-3.8, -2.9, -0.7)'
p3812
(dp3813
(F-3.8
F-2.8
F-0.7
tp3814
F1.0
ssS'(1.9, -4.3, 0.7), (1.9, -4.4, 0.7), (1.9, -4.5, 0.7)'
p3815
(dp3816
(F1.9
F-4.6
F0.7
tp3817
F1.0
ssS'(-3.7, -9.8, 0.0), (-3.8, -9.8, 0.0), (-3.9, -9.8, 0.0)'
p3818
(dp3819
(F-3.9
F-9.8
F-0.1
tp3820
F1.0
ssS'(-3.0, -9.7, 0.0), (-3.0, -9.8, 0.0), (-3.1, -9.8, 0.0)'
p3821
(dp3822
(F-3.2
F-9.8
F0.0
tp3823
F1.0
ssS'(1.5, -9.4, 0.6), (1.5, -9.4, 0.5), (1.5, -9.4, 0.4)'
p3824
(dp3825
(F1.5
F-9.4
F0.3
tp3826
F1.0
ssS'(-3.8, -8.1, -0.7), (-3.8, -8.0, -0.7), (-3.8, -7.9, -0.7)'
p3827
(dp3828
(F-3.9
F-7.9
F-0.7
tp3829
F0.16666666666666666
s(F-3.8
F-7.8
F-0.7
tp3830
F0.8333333333333334
ssS'(1.6, -9.4, 0.3), (1.6, -9.4, 0.2), (1.6, -9.4, 0.1)'
p3831
(dp3832
(F1.5
F-9.4
F0.1
tp3833
F1.0
ssS'(-4.1, -7.3, -0.7), (-4.1, -7.2, -0.7), (-4.1, -7.1, -0.7)'
p3834
(dp3835
(F-4.1
F-7.0
F-0.7
tp3836
F1.0
ssS'(1.9, -8.9, 0.7), (1.9, -9.0, 0.7), (1.9, -9.1, 0.7)'
p3837
(dp3838
(F1.9
F-9.2
F0.7
tp3839
F1.0
ssS'(-4.1, -7.6, -0.7), (-4.1, -7.5, -0.7), (-4.1, -7.4, -0.7)'
p3840
(dp3841
(F-4.1
F-7.3
F-0.7
tp3842
F1.0
ssS'(1.6, -8.2, 0.7), (1.6, -8.3, 0.7), (1.6, -8.4, 0.7)'
p3843
(dp3844
(F1.6
F-8.5
F0.7
tp3845
F1.0
ssS'(-3.9, -3.1, -0.7), (-3.9, -3.0, -0.7), (-3.9, -2.9, -0.7)'
p3846
(dp3847
(F-3.9
F-2.8
F-0.7
tp3848
F1.0
ssS'(-4.0, -5.1, -0.7), (-4.0, -5.0, -0.7), (-4.0, -4.9, -0.7)'
p3849
(dp3850
(F-3.9
F-4.9
F-0.7
tp3851
F0.2
s(F-4.0
F-4.8
F-0.7
tp3852
F0.8
ssS'(1.2, -9.4, 0.1), (1.1, -9.4, 0.1), (1.1, -9.5, 0.1)'
p3853
(dp3854
(F1.0
F-9.5
F0.1
tp3855
F1.0
ssS'(-4.0, -4.6, -0.7), (-4.0, -4.5, -0.7), (-4.0, -4.4, -0.7)'
p3856
(dp3857
(F-4.0
F-4.3
F-0.7
tp3858
F1.0
ssS'(-0.8, -9.6, 0.0), (-0.9, -9.6, 0.0), (-1.0, -9.6, 0.0)'
p3859
(dp3860
(F-1.1
F-9.6
F0.0
tp3861
F0.8333333333333334
s(F-1.0
F-9.7
F0.0
tp3862
F0.16666666666666666
ssS'(-2.4, -9.9, 0.0), (-2.5, -9.9, 0.0), (-2.6, -9.9, 0.0)'
p3863
(dp3864
(F-2.7
F-9.9
F0.0
tp3865
F1.0
ssS'(-3.9, -8.6, -0.7), (-3.9, -8.5, -0.7), (-3.9, -8.4, -0.7)'
p3866
(dp3867
(F-3.9
F-8.3
F-0.7
tp3868
F1.0
ssS'(-3.8, -7.7, -0.7), (-3.9, -7.7, -0.7), (-3.9, -7.6, -0.7)'
p3869
(dp3870
(F-3.9
F-7.5
F-0.7
tp3871
F1.0
ssS'(2.0, -3.5, 0.7), (2.0, -3.6, 0.7), (2.0, -3.7, 0.7)'
p3872
(dp3873
(F2.0
F-3.8
F0.7
tp3874
F1.0
ssS'(2.0, -4.3, 0.7), (2.0, -4.4, 0.7), (2.0, -4.5, 0.7)'
p3875
(dp3876
(F2.0
F-4.6
F0.7
tp3877
F1.0
ssS'(1.1, -9.4, 0.1), (1.1, -9.5, 0.1), (1.0, -9.5, 0.1)'
p3878
(dp3879
(F0.9
F-9.5
F0.1
tp3880
F1.0
ssS'(1.7, -9.4, 0.6), (1.7, -9.4, 0.5), (1.7, -9.4, 0.4)'
p3881
(dp3882
(F1.7
F-9.4
F0.3
tp3883
F1.0
ssS'(-2.5, -9.8, 0.0), (-2.5, -9.9, 0.0), (-2.6, -9.9, 0.0)'
p3884
(dp3885
(F-2.7
F-9.9
F0.0
tp3886
F1.0
ssS'(1.9, -8.7, 0.7), (1.9, -8.8, 0.7), (1.9, -8.9, 0.7)'
p3887
(dp3888
(F1.9
F-9.0
F0.7
tp3889
F1.0
ssS'(-3.8, -9.2, -0.7), (-3.9, -9.2, -0.7), (-3.9, -9.1, -0.7)'
p3890
(dp3891
(F-3.9
F-9.0
F-0.7
tp3892
F1.0
ssS'(2.0, -7.8, 0.7), (2.0, -7.9, 0.7), (2.0, -8.0, 0.7)'
p3893
(dp3894
(F2.0
F-8.1
F0.7
tp3895
F1.0
ssS'(-3.9, -3.0, -0.7), (-3.9, -2.9, -0.7), (-3.9, -2.8, -0.7)'
p3896
(dp3897
(F-3.9
F-2.7
F-0.7
tp3898
F1.0
ssS'(-3.6, -9.6, -0.7), (-3.6, -9.5, -0.7), (-3.6, -9.4, -0.7)'
p3899
(dp3900
(F-3.7
F-9.4
F-0.7
tp3901
F1.0
ssS'(-3.6, -1.1, -0.8), (-3.6, -1.0, -0.8), (-3.6, -0.9, -0.8)'
p3902
(dp3903
(F-3.6
F-0.8
F-0.8
tp3904
F1.0
ssS'(-3.7, -2.4, -0.7), (-3.7, -2.3, -0.7), (-3.7, -2.2, -0.7)'
p3905
(dp3906
(F-3.7
F-2.1
F-0.7
tp3907
F1.0
ssS'(1.9, -9.3, 0.1), (1.8, -9.3, 0.1), (1.7, -9.3, 0.1)'
p3908
(dp3909
(F1.7
F-9.4
F0.1
tp3910
F1.0
ssS'(1.8, -5.9, 0.7), (1.8, -6.0, 0.7), (1.8, -6.1, 0.7)'
p3911
(dp3912
(F1.8
F-6.2
F0.7
tp3913
F1.0
ssS'(0.0, -9.6, 0.0), (-0.1, -9.6, 0.0), (-0.2, -9.6, 0.0)'
p3914
(dp3915
(F-0.3
F-9.6
F0.0
tp3916
F1.0
ssS'(-3.8, -1.2, -0.7), (-3.8, -1.2, -0.8), (-3.8, -1.1, -0.8)'
p3917
(dp3918
(F-3.8
F-1.0
F-0.8
tp3919
F1.0
ssS'(-3.9, -4.1, -0.7), (-3.8, -4.1, -0.7), (-3.8, -4.0, -0.7)'
p3920
(dp3921
(F-3.8
F-3.9
F-0.7
tp3922
F1.0
ssS'(-3.7, -1.3, -0.7), (-3.7, -1.2, -0.7), (-3.6, -1.2, -0.7)'
p3923
(dp3924
(F-3.6
F-1.1
F-0.7
tp3925
F1.0
ssS'(-1.1, -9.6, 0.0), (-1.2, -9.6, 0.0), (-1.2, -9.7, 0.0)'
p3926
(dp3927
(F-1.3
F-9.7
F0.0
tp3928
F1.0
ssS'(-0.6, -9.7, 0.1), (-0.7, -9.7, 0.1), (-0.8, -9.7, 0.1)'
p3929
(dp3930
(F-0.9
F-9.7
F0.1
tp3931
F0.6666666666666666
s(F-0.8
F-9.7
F0.0
tp3932
F0.3333333333333333
ssS'(-0.9, -9.7, 0.1), (-1.0, -9.7, 0.1), (-1.1, -9.7, 0.1)'
p3933
(dp3934
(F-1.1
F-9.7
F0.0
tp3935
F1.0
ssS'(-3.9, -2.7, -0.7), (-3.9, -2.6, -0.7), (-3.9, -2.5, -0.7)'
p3936
(dp3937
(F-3.9
F-2.4
F-0.7
tp3938
F1.0
ssS'(1.9, -8.2, 0.7), (1.9, -8.3, 0.7), (1.9, -8.4, 0.7)'
p3939
(dp3940
(F1.8
F-8.4
F0.7
tp3941
F0.16666666666666666
s(F1.9
F-8.5
F0.7
tp3942
F0.8333333333333334
ssS'(-4.1, -4.1, -0.7), (-4.1, -4.0, -0.7), (-4.1, -3.9, -0.7)'
p3943
(dp3944
(F-4.1
F-3.8
F-0.7
tp3945
F1.0
ssS'(-3.8, -2.4, -0.7), (-3.8, -2.3, -0.7), (-3.7, -2.3, -0.7)'
p3946
(dp3947
(F-3.7
F-2.2
F-0.7
tp3948
F1.0
ssS'(-4.1, -6.5, -0.7), (-4.1, -6.4, -0.7), (-4.1, -6.3, -0.7)'
p3949
(dp3950
(F-4.1
F-6.2
F-0.7
tp3951
F1.0
ssS'(-3.7, -9.7, -0.7), (-3.7, -9.6, -0.7), (-3.7, -9.5, -0.7)'
p3952
(dp3953
(F-3.7
F-9.4
F-0.7
tp3954
F0.6666666666666666
s(F-3.8
F-9.5
F-0.7
tp3955
F0.3333333333333333
ssS'(-4.1, -6.8, -0.7), (-4.1, -6.7, -0.7), (-4.1, -6.6, -0.7)'
p3956
(dp3957
(F-4.1
F-6.5
F-0.7
tp3958
F1.0
ssS'(1.8, -9.3, 0.1), (1.8, -9.4, 0.1), (1.7, -9.4, 0.1)'
p3959
(dp3960
(F1.6
F-9.4
F0.1
tp3961
F1.0
ssS'(-3.6, -0.9, -0.7), (-3.6, -0.8, -0.7), (-3.6, -0.7, -0.7)'
p3962
(dp3963
(F-3.6
F-0.6
F-0.7
tp3964
F1.0
ssS'(1.7, -0.5, 0.7), (1.8, -0.5, 0.7), (1.8, -0.6, 0.7)'
p3965
(dp3966
(F1.8
F-0.7
F0.7
tp3967
F1.0
ssS'(-4.0, -9.7, -0.5), (-4.0, -9.7, -0.6), (-4.0, -9.7, -0.7)'
p3968
(dp3969
(F-4.0
F-9.6
F-0.7
tp3970
F1.0
ssS'(-3.9, -2.6, -0.7), (-3.9, -2.5, -0.7), (-3.9, -2.4, -0.7)'
p3971
(dp3972
(F-3.9
F-2.3
F-0.7
tp3973
F1.0
ssS'(0.9, -9.4, 0.1), (0.8, -9.4, 0.1), (0.8, -9.5, 0.1)'
p3974
(dp3975
(F0.7
F-9.5
F0.1
tp3976
F1.0
ssS'(-4.0, -8.5, -0.7), (-4.0, -8.4, -0.7), (-4.1, -8.4, -0.7)'
p3977
(dp3978
(F-4.1
F-8.3
F-0.7
tp3979
F1.0
ssS'(-0.8, -9.6, 0.0), (-0.9, -9.6, 0.0), (-0.9, -9.7, 0.0)'
p3980
(dp3981
(F-1.0
F-9.7
F0.0
tp3982
F1.0
ssS'(1.9, -2.4, 0.7), (1.9, -2.5, 0.7), (2.0, -2.5, 0.7)'
p3983
(dp3984
(F2.0
F-2.6
F0.7
tp3985
F1.0
ssS'(-3.8, -1.2, -0.7), (-3.8, -1.1, -0.7), (-3.8, -1.0, -0.7)'
p3986
(dp3987
(F-3.8
F-0.9
F-0.7
tp3988
F1.0
ssS'(2.0, -6.8, 0.7), (2.0, -6.9, 0.7), (1.9, -6.9, 0.7)'
p3989
(dp3990
(F1.9
F-7.0
F0.7
tp3991
F1.0
ssS'(1.9, -3.0, 0.7), (1.9, -3.1, 0.7), (1.9, -3.2, 0.7)'
p3992
(dp3993
(F1.9
F-3.3
F0.7
tp3994
F0.875
s(F2.0
F-3.2
F0.7
tp3995
F0.125
ssS'(-3.7, -9.9, -0.7), (-3.7, -9.8, -0.7), (-3.7, -9.7, -0.7)'
p3996
(dp3997
(F-3.7
F-9.6
F-0.7
tp3998
F1.0
ssS'(-4.0, -4.5, -0.7), (-4.0, -4.4, -0.7), (-4.0, -4.3, -0.7)'
p3999
(dp4000
(F-4.0
F-4.2
F-0.7
tp4001
F1.0
ssS'(1.8, -7.1, 0.7), (1.8, -7.2, 0.7), (1.7, -7.2, 0.7)'
p4002
(dp4003
(F1.7
F-7.3
F0.7
tp4004
F1.0
ssS'(-3.5, -9.8, 0.0), (-3.6, -9.8, 0.0), (-3.6, -9.8, -0.1)'
p4005
(dp4006
(F-3.6
F-9.8
F-0.2
tp4007
F1.0
ssS'(-3.9, -9.6, -0.7), (-3.9, -9.5, -0.7), (-3.9, -9.4, -0.7)'
p4008
(dp4009
(F-3.9
F-9.3
F-0.7
tp4010
F1.0
ssS'(-3.9, -2.8, -0.7), (-3.9, -2.7, -0.7), (-3.8, -2.7, -0.7)'
p4011
(dp4012
(F-3.8
F-2.6
F-0.7
tp4013
F1.0
ssS'(2.0, -4.9, 0.7), (2.0, -5.0, 0.7), (2.0, -5.1, 0.7)'
p4014
(dp4015
(F2.0
F-5.2
F0.7
tp4016
F1.0
ssS'(-3.8, -9.7, -0.0), (-3.8, -9.7, -0.1), (-3.8, -9.7, -0.2)'
p4017
(dp4018
(F-3.8
F-9.7
F-0.3
tp4019
F1.0
ssS'(-3.8, -0.7, -0.8), (-3.7, -0.7, -0.8), (-3.7, -0.6, -0.8)'
p4020
(dp4021
(F-3.7
F-0.5
F-0.8
tp4022
F1.0
ssS'(-3.6, -0.8, -0.8), (-3.6, -0.7, -0.8), (-3.5, -0.7, -0.8)'
p4023
(dp4024
(F-3.5
F-0.6
F-0.8
tp4025
F1.0
ssS'(-1.3, -9.6, 0.0), (-1.4, -9.6, 0.0), (-1.4, -9.7, 0.0)'
p4026
(dp4027
(F-1.5
F-9.7
F0.0
tp4028
F1.0
ssS'(-4.1, -3.3, -0.7), (-4.1, -3.2, -0.7), (-4.1, -3.1, -0.7)'
p4029
(dp4030
(F-4.1
F-3.0
F-0.7
tp4031
F1.0
ss.