(dp0
S'(1.7, 0.6, 0.7), (1.8, 0.6, 0.7), (1.8, 0.7, 0.7)'
p1
(dp2
(F1.8
F0.8
F0.7
tp3
F1.0
ssS'(2.0, 1.9, 0.8), (2.1, 1.9, 0.8), (2.1, 2.0, 0.8)'
p4
(dp5
(F2.1
F2.0
F0.9
tp6
F1.0
ssS'(3.6, 2.2, 1.0), (3.7, 2.2, 1.0), (3.8, 2.2, 1.0)'
p7
(dp8
(F3.9
F2.2
F1.0
tp9
F1.0
ssS'(1.8, 0.4, 0.8), (1.8, 0.5, 0.8), (1.8, 0.6, 0.8)'
p10
(dp11
(F1.8
F0.7
F0.8
tp12
F1.0
ssS'(4.8, 2.2, 1.0), (4.9, 2.2, 1.0), (0.1, 0.0, 1.0)'
p13
(dp14
(F0.2
F0.0
F1.0
tp15
F1.0
ssS'(2.1, 2.0, 0.9), (2.1, 2.0, 1.0), (2.1, 2.1, 1.0)'
p16
(dp17
(F2.2
F2.1
F1.0
tp18
F1.0
ssS'(2.1, 1.8, 0.8), (2.1, 1.9, 0.8), (2.1, 2.0, 0.8)'
p19
(dp20
(F2.1
F2.0
F0.9
tp21
F1.0
ssS'(1.8, 1.0, 0.8), (1.8, 1.1, 0.8), (1.9, 1.1, 0.8)'
p22
(dp23
(F1.9
F1.2
F0.8
tp24
F1.0
ssS'(1.9, 1.8, 0.8), (1.9, 1.9, 0.8), (1.9, 2.0, 0.8)'
p25
(dp26
(F1.9
F2.1
F0.8
tp27
F0.5
s(F1.9
F2.0
F0.9
tp28
F0.5
ssS'(4.8, 2.2, 1.0), (4.9, 2.2, 1.0), (5.0, 2.2, 1.0)'
p29
(dp30
(F0.1
F0.0
F1.0
tp31
F1.0
ssS'(4.9, 2.1, 1.0), (5.0, 2.1, 1.0), (5.0, 2.0, 1.0)'
p32
(dp33
(F5.1
F2.0
F1.0
tp34
F1.0
ssS'(4.7, 1.9, 1.0), (4.8, 1.9, 1.0), (4.9, 1.9, 1.0)'
p35
(dp36
(F5.0
F1.9
F1.0
tp37
F1.0
ssS'(5.0, 2.2, 1.0), (0.1, 0.0, 1.0), (0.2, 0.0, 1.0)'
p38
(dp39
(F0.3
F-0.0
F1.0
tp40
F1.0
ssS'(4.0, 2.2, 1.0), (4.1, 2.2, 1.0), (4.2, 2.2, 1.0)'
p41
(dp42
(F4.3
F2.2
F1.0
tp43
F1.0
ssS'(2.0, 1.1, 0.8), (2.0, 1.2, 0.8), (2.0, 1.3, 0.8)'
p44
(dp45
(F2.0
F1.4
F0.8
tp46
F1.0
ssS'(4.0, 2.1, 1.0), (4.1, 2.1, 1.0), (4.2, 2.1, 1.0)'
p47
(dp48
(F4.3
F2.1
F1.0
tp49
F1.0
ssS'(1.0, -0.1, 1.0), (1.1, -0.1, 1.0), (1.2, -0.1, 1.0)'
p50
(dp51
(F1.2
F-0.2
F1.0
tp52
F0.06666666666666667
s(F1.3
F-0.1
F1.0
tp53
F0.9333333333333333
ssS'(0.4, -0.0, 1.0), (0.5, -0.0, 1.0), (0.5, -0.1, 1.0)'
p54
(dp55
(F0.6
F-0.1
F1.0
tp56
F1.0
ssS'(5.1, 2.0, 1.0), (0.1, 0.0, 1.0), (0.2, 0.0, 1.0)'
p57
(dp58
(F0.3
F-0.0
F1.0
tp59
F1.0
ssS'(1.9, 0.6, 0.7), (1.9, 0.6, 0.8), (1.9, 0.7, 0.8)'
p60
(dp61
(F1.9
F0.8
F0.8
tp62
F1.0
ssS'(1.7, 0.3, 0.7), (1.7, 0.4, 0.7), (1.7, 0.4, 0.8)'
p63
(dp64
(F1.8
F0.4
F0.8
tp65
F1.0
ssS'(1.7, 0.4, 0.7), (1.7, 0.5, 0.7), (1.7, 0.6, 0.7)'
p66
(dp67
(F1.8
F0.6
F0.7
tp68
F1.0
ssS'(1.8, 0.2, 0.8), (1.8, 0.3, 0.8), (1.8, 0.4, 0.8)'
p69
(dp70
(F1.8
F0.5
F0.8
tp71
F1.0
ssS'(2.0, 2.0, 0.9), (2.0, 2.0, 1.0), (2.1, 2.0, 1.0)'
p72
(dp73
(F2.1
F2.1
F1.0
tp74
F0.25
s(F2.2
F2.0
F1.0
tp75
F0.75
ssS'(2.1, 2.0, 0.8), (2.1, 2.0, 0.9), (2.1, 2.0, 1.0)'
p76
(dp77
(F2.1
F2.1
F1.0
tp78
F0.25
s(F2.2
F2.0
F1.0
tp79
F0.75
ssS'(3.4, 2.1, 1.0), (3.5, 2.1, 1.0), (3.6, 2.1, 1.0)'
p80
(dp81
(F3.7
F2.1
F1.0
tp82
F0.9166666666666666
s(F3.6
F2.2
F1.0
tp83
F0.08333333333333333
ssS'(5.1, 1.9, 1.0), (0.1, 0.0, 1.0), (0.2, 0.0, 1.0)'
p84
(dp85
(F0.3
F-0.0
F1.0
tp86
F1.0
ssS'(1.9, 1.4, 0.8), (1.9, 1.5, 0.8), (2.0, 1.5, 0.8)'
p87
(dp88
(F2.0
F1.6
F0.8
tp89
F1.0
ssS'(1.8, 1.4, 0.8), (1.9, 1.4, 0.8), (1.9, 1.5, 0.8)'
p90
(dp91
(F1.9
F1.6
F0.8
tp92
F1.0
ssS'(2.0, 2.0, 0.8), (2.0, 2.0, 0.9), (2.0, 2.0, 1.0)'
p93
(dp94
(F2.1
F2.0
F1.0
tp95
F1.0
ssS'(1.9, 0.8, 0.7), (1.9, 0.9, 0.7), (1.9, 0.9, 0.8)'
p96
(dp97
(F1.9
F1.0
F0.8
tp98
F1.0
ssS'(1.8, 0.3, 0.7), (1.9, 0.3, 0.7), (1.9, 0.4, 0.7)'
p99
(dp100
(F1.9
F0.5
F0.7
tp101
F1.0
ssS'(5.0, 2.0, 1.0), (0.1, 0.0, 1.0), (0.2, 0.0, 1.0)'
p102
(dp103
(F0.3
F-0.0
F1.0
tp104
F1.0
ssS'(4.9, 2.2, 1.0), (5.0, 2.2, 1.0), (0.1, 0.0, 1.0)'
p105
(dp106
(F0.2
F0.0
F1.0
tp107
F1.0
ssS'(1.7, -0.1, 0.7), (1.7, -0.0, 0.7), (1.8, 0.0, 0.7)'
p108
(dp109
(F1.8
F0.1
F0.7
tp110
F1.0
ssS'(2.0, 2.0, 0.8), (2.0, 2.1, 0.8), (2.0, 2.1, 0.9)'
p111
(dp112
(F2.0
F2.1
F1.0
tp113
F1.0
ssS'(1.8, 1.2, 0.7), (1.9, 1.2, 0.7), (1.9, 1.3, 0.7)'
p114
(dp115
(F1.9
F1.3
F0.8
tp116
F1.0
ssS'(1.8, 1.4, 0.7), (1.9, 1.4, 0.7), (1.9, 1.4, 0.8)'
p117
(dp118
(F1.9
F1.5
F0.8
tp119
F1.0
ssS'(1.5, -0.1, 1.0), (1.6, -0.1, 1.0), (1.6, -0.2, 1.0)'
p120
(dp121
(F1.7
F-0.2
F1.0
tp122
F1.0
ssS'(2.0, 1.9, 0.8), (2.0, 2.0, 0.8), (2.0, 2.1, 0.8)'
p123
(dp124
(F2.0
F2.1
F0.9
tp125
F1.0
ssS'(1.7, -0.2, 1.0), (1.7, -0.2, 0.9), (1.7, -0.2, 0.8)'
p126
(dp127
(F1.7
F-0.2
F0.7
tp128
F0.8333333333333334
s(F1.7
F-0.1
F0.8
tp129
F0.16666666666666666
ssS'(1.7, 0.1, 0.7), (1.7, 0.2, 0.7), (1.7, 0.2, 0.8)'
p130
(dp131
(F1.7
F0.3
F0.8
tp132
F1.0
ssS'(4.4, 2.1, 1.0), (4.5, 2.1, 1.0), (4.6, 2.1, 1.0)'
p133
(dp134
(F4.6
F2.0
F1.0
tp135
F0.1111111111111111
s(F4.7
F2.1
F1.0
tp136
F0.8888888888888888
ssS'(1.4, -0.1, 1.0), (1.5, -0.1, 1.0), (1.6, -0.1, 1.0)'
p137
(dp138
(F1.6
F-0.2
F1.0
tp139
F1.0
ssS'(1.9, 0.7, 0.8), (1.9, 0.8, 0.8), (1.9, 0.9, 0.8)'
p140
(dp141
(F1.9
F1.0
F0.8
tp142
F1.0
ssS'(2.0, 2.0, 1.0), (2.1, 2.0, 1.0), (2.1, 2.1, 1.0)'
p143
(dp144
(F2.2
F2.1
F1.0
tp145
F1.0
ssS'(1.9, 1.0, 0.7), (1.9, 1.1, 0.7), (1.9, 1.1, 0.8)'
p146
(dp147
(F1.9
F1.2
F0.8
tp148
F1.0
ssS'(1.8, 0.6, 0.8), (1.8, 0.7, 0.8), (1.8, 0.8, 0.8)'
p149
(dp150
(F1.9
F0.8
F0.8
tp151
F0.5
s(F1.8
F0.9
F0.8
tp152
F0.5
ssS'(4.9, 2.1, 1.0), (5.0, 2.1, 1.0), (0.1, 0.0, 1.0)'
p153
(dp154
(F0.2
F-0.0
F1.0
tp155
F1.0
ssS'(1.9, 1.2, 0.7), (1.9, 1.3, 0.7), (1.9, 1.3, 0.8)'
p156
(dp157
(F1.9
F1.4
F0.8
tp158
F1.0
ssS'(4.2, 2.2, 1.0), (4.3, 2.2, 1.0), (4.4, 2.2, 1.0)'
p159
(dp160
(F4.5
F2.2
F1.0
tp161
F1.0
ssS'(1.8, 0.3, 0.8), (1.8, 0.4, 0.8), (1.8, 0.5, 0.8)'
p162
(dp163
(F1.8
F0.6
F0.8
tp164
F1.0
ssS'(1.7, -0.1, 0.8), (1.7, -0.0, 0.8), (1.7, 0.1, 0.8)'
p165
(dp166
(F1.8
F0.1
F0.8
tp167
F0.5
s(F1.7
F0.2
F0.8
tp168
F0.5
ssS'(4.6, 2.0, 1.0), (4.7, 2.0, 1.0), (4.7, 1.9, 1.0)'
p169
(dp170
(F4.8
F1.9
F1.0
tp171
F1.0
ssS'(1.7, 0.2, 0.8), (1.8, 0.2, 0.8), (1.8, 0.3, 0.8)'
p172
(dp173
(F1.8
F0.4
F0.8
tp174
F1.0
ssS'(0.4, -0.0, 1.0), (0.5, -0.0, 1.0), (0.6, -0.0, 1.0)'
p175
(dp176
(F0.6
F-0.1
F1.0
tp177
F0.5
s(F0.7
F-0.0
F1.0
tp178
F0.5
ssS'(1.9, 1.2, 0.7), (1.9, 1.3, 0.7), (1.9, 1.4, 0.7)'
p179
(dp180
(F1.9
F1.5
F0.7
tp181
F1.0
ssS'(3.7, 2.2, 1.0), (3.8, 2.2, 1.0), (3.9, 2.2, 1.0)'
p182
(dp183
(F4.0
F2.2
F1.0
tp184
F1.0
ssS'(3.2, 2.0, 1.0), (3.3, 2.0, 1.0), (3.4, 2.0, 1.0)'
p185
(dp186
(F3.5
F2.0
F1.0
tp187
F1.0
ssS'(2.6, 2.1, 1.0), (2.7, 2.1, 1.0), (2.8, 2.1, 1.0)'
p188
(dp189
(F2.9
F2.1
F1.0
tp190
F1.0
ssS'(1.9, 0.8, 0.7), (1.9, 0.9, 0.7), (1.9, 1.0, 0.7)'
p191
(dp192
(F1.9
F1.1
F0.7
tp193
F1.0
ssS'(1.9, 2.0, 0.9), (1.9, 2.0, 1.0), (1.9, 2.1, 1.0)'
p194
(dp195
(F2.0
F2.1
F1.0
tp196
F1.0
ssS'(1.8, 0.9, 0.8), (1.8, 1.0, 0.8), (1.8, 1.1, 0.8)'
p197
(dp198
(F1.9
F1.1
F0.8
tp199
F0.5
s(F1.8
F1.2
F0.8
tp200
F0.5
ssS'(1.8, 1.2, 0.7), (1.8, 1.2, 0.8), (1.8, 1.3, 0.8)'
p201
(dp202
(F1.8
F1.4
F0.8
tp203
F1.0
ssS'(1.1, -0.1, 1.0), (1.2, -0.1, 1.0), (1.2, -0.2, 1.0)'
p204
(dp205
(F1.3
F-0.2
F1.0
tp206
F1.0
ssS'(1.9, 1.4, 0.8), (1.9, 1.5, 0.8), (1.9, 1.6, 0.8)'
p207
(dp208
(F1.9
F1.7
F0.8
tp209
F1.0
ssS'(1.2, -0.2, 1.0), (1.3, -0.2, 1.0), (1.4, -0.2, 1.0)'
p210
(dp211
(F1.5
F-0.2
F1.0
tp212
F1.0
ssS'(1.7, 0.1, 0.7), (1.7, 0.2, 0.7), (1.8, 0.2, 0.7)'
p213
(dp214
(F1.8
F0.3
F0.7
tp215
F1.0
ssS'(3.6, 2.0, 1.0), (3.7, 2.0, 1.0), (3.8, 2.0, 1.0)'
p216
(dp217
(F3.9
F2.0
F1.0
tp218
F1.0
ssS'(1.2, -0.1, 1.0), (1.3, -0.1, 1.0), (1.3, -0.2, 1.0)'
p219
(dp220
(F1.4
F-0.2
F1.0
tp221
F1.0
ssS'(1.8, 1.2, 0.8), (1.9, 1.2, 0.8), (1.9, 1.3, 0.8)'
p222
(dp223
(F1.9
F1.4
F0.8
tp224
F1.0
ssS'(1.8, -0.0, 0.7), (1.8, 0.1, 0.7), (1.8, 0.2, 0.7)'
p225
(dp226
(F1.8
F0.3
F0.7
tp227
F1.0
ssS'(1.9, 1.9, 0.8), (2.0, 1.9, 0.8), (2.0, 2.0, 0.8)'
p228
(dp229
(F2.0
F2.1
F0.8
tp230
F1.0
ssS'(1.7, 0.4, 0.8), (1.8, 0.4, 0.8), (1.8, 0.5, 0.8)'
p231
(dp232
(F1.8
F0.6
F0.8
tp233
F1.0
ssS'(4.9, 2.0, 1.0), (5.0, 2.0, 1.0), (5.0, 1.9, 1.0)'
p234
(dp235
(F5.1
F1.9
F1.0
tp236
F1.0
ssS'(1.9, 0.9, 0.7), (1.9, 0.9, 0.8), (1.9, 1.0, 0.8)'
p237
(dp238
(F1.9
F1.1
F0.8
tp239
F1.0
ssS'(1.2, -0.1, 1.0), (1.2, -0.2, 1.0), (1.3, -0.2, 1.0)'
p240
(dp241
(F1.4
F-0.2
F1.0
tp242
F1.0
ssS'(2.0, 1.9, 0.8), (2.0, 2.0, 0.8), (2.0, 2.0, 0.9)'
p243
(dp244
(F2.0
F2.0
F1.0
tp245
F1.0
ssS'(1.8, 1.3, 0.8), (1.8, 1.4, 0.8), (1.9, 1.4, 0.8)'
p246
(dp247
(F1.9
F1.5
F0.8
tp248
F1.0
ssS'(4.0, 2.0, 1.0), (4.1, 2.0, 1.0), (4.2, 2.0, 1.0)'
p249
(dp250
(F4.3
F2.0
F1.0
tp251
F1.0
ssS'(4.9, 2.2, 1.0), (0.1, 0.0, 1.0), (0.2, -0.0, 1.0)'
p252
(dp253
(F0.3
F-0.0
F1.0
tp254
F1.0
ssS'(1.3, -0.1, 1.0), (1.4, -0.1, 1.0), (1.4, -0.2, 1.0)'
p255
(dp256
(F1.5
F-0.2
F1.0
tp257
F1.0
ssS'(2.0, 1.5, 0.8), (2.0, 1.6, 0.8), (2.0, 1.7, 0.8)'
p258
(dp259
(F2.0
F1.8
F0.8
tp260
F1.0
ssS'(4.4, 2.2, 1.0), (4.5, 2.2, 1.0), (4.6, 2.2, 1.0)'
p261
(dp262
(F4.7
F2.2
F1.0
tp263
F1.0
ssS'(0.6, -0.1, 1.0), (0.7, -0.1, 1.0), (0.8, -0.1, 1.0)'
p264
(dp265
(F0.9
F-0.1
F1.0
tp266
F1.0
ssS'(2.0, 2.1, 1.0), (2.1, 2.1, 1.0), (2.2, 2.1, 1.0)'
p267
(dp268
(F2.3
F2.1
F1.0
tp269
F1.0
ssS'(1.8, 0.6, 0.7), (1.8, 0.7, 0.7), (1.8, 0.8, 0.7)'
p270
(dp271
(F1.8
F0.9
F0.7
tp272
F0.875
s(F1.8
F0.8
F0.8
tp273
F0.125
ssS'(2.3, 2.0, 1.0), (2.4, 2.0, 1.0), (2.5, 2.0, 1.0)'
p274
(dp275
(F2.6
F2.0
F1.0
tp276
F1.0
ssS'(2.4, 2.1, 1.0), (2.5, 2.1, 1.0), (2.6, 2.1, 1.0)'
p277
(dp278
(F2.7
F2.1
F1.0
tp279
F1.0
ssS'(1.8, 0.8, 0.8), (1.9, 0.8, 0.8), (1.9, 0.9, 0.8)'
p280
(dp281
(F1.9
F1.0
F0.8
tp282
F1.0
ssS'(4.3, 2.2, 1.0), (4.4, 2.2, 1.0), (4.5, 2.2, 1.0)'
p283
(dp284
(F4.6
F2.2
F1.0
tp285
F1.0
ssS'(2.0, 1.4, 0.8), (2.0, 1.5, 0.8), (2.0, 1.6, 0.8)'
p286
(dp287
(F2.0
F1.7
F0.8
tp288
F1.0
ssS'(1.8, 1.2, 0.8), (1.8, 1.3, 0.8), (1.8, 1.4, 0.8)'
p289
(dp290
(F1.9
F1.4
F0.8
tp291
F1.0
ssS'(1.8, 0.7, 0.8), (1.8, 0.8, 0.8), (1.8, 0.9, 0.8)'
p292
(dp293
(F1.8
F1.0
F0.8
tp294
F1.0
ssS'(1.8, 0.9, 0.7), (1.8, 1.0, 0.7), (1.8, 1.1, 0.7)'
p295
(dp296
(F1.8
F1.2
F0.7
tp297
F1.0
ssS'(2.9, 2.0, 1.0), (3.0, 2.0, 1.0), (3.1, 2.0, 1.0)'
p298
(dp299
(F3.2
F2.0
F1.0
tp300
F1.0
ssS'(4.8, 1.9, 1.0), (4.9, 1.9, 1.0), (5.0, 1.9, 1.0)'
p301
(dp302
(F5.1
F1.9
F1.0
tp303
F1.0
ssS'(3.2, 2.0, 1.0), (3.3, 2.0, 1.0), (3.3, 2.1, 1.0)'
p304
(dp305
(F3.4
F2.1
F1.0
tp306
F1.0
ssS'(1.8, -0.2, 0.9), (1.8, -0.2, 0.8), (1.8, -0.2, 0.7)'
p307
(dp308
(F1.8
F-0.1
F0.7
tp309
F1.0
ssS'(1.9, 1.0, 0.8), (1.9, 1.1, 0.8), (1.9, 1.2, 0.8)'
p310
(dp311
(F1.9
F1.3
F0.8
tp312
F1.0
ssS'(0.5, -0.0, 1.0), (0.6, -0.0, 1.0), (0.6, -0.1, 1.0)'
p313
(dp314
(F0.7
F-0.1
F1.0
tp315
F1.0
ssS'(2.1, 1.9, 0.8), (2.1, 2.0, 0.8), (2.1, 2.0, 0.9)'
p316
(dp317
(F2.1
F2.0
F1.0
tp318
F1.0
ssS'(2.0, 1.9, 0.8), (2.0, 2.0, 0.8), (2.1, 2.0, 0.8)'
p319
(dp320
(F2.1
F2.0
F0.9
tp321
F1.0
ssS'(3.6, 2.1, 1.0), (3.6, 2.2, 1.0), (3.7, 2.2, 1.0)'
p322
(dp323
(F3.8
F2.2
F1.0
tp324
F1.0
ssS'(3.3, 2.2, 1.0), (3.4, 2.2, 1.0), (3.5, 2.2, 1.0)'
p325
(dp326
(F3.6
F2.2
F1.0
tp327
F1.0
ssS'(1.9, 1.3, 0.8), (1.9, 1.4, 0.8), (1.9, 1.5, 0.8)'
p328
(dp329
(F1.9
F1.6
F0.8
tp330
F0.875
s(F2.0
F1.5
F0.8
tp331
F0.125
ssS'(1.4, -0.2, 1.0), (1.5, -0.2, 1.0), (1.6, -0.2, 1.0)'
p332
(dp333
(F1.7
F-0.2
F1.0
tp334
F1.0
ssS'(1.9, 0.6, 0.7), (1.9, 0.7, 0.7), (1.9, 0.8, 0.7)'
p335
(dp336
(F1.9
F0.9
F0.7
tp337
F1.0
ssS'(1.8, 0.7, 0.8), (1.8, 0.8, 0.8), (1.9, 0.8, 0.8)'
p338
(dp339
(F1.9
F0.9
F0.8
tp340
F1.0
ssS'(1.8, 0.7, 0.7), (1.8, 0.8, 0.7), (1.8, 0.8, 0.8)'
p341
(dp342
(F1.8
F0.9
F0.8
tp343
F1.0
ssS'(1.6, -0.1, 1.0), (1.6, -0.2, 1.0), (1.7, -0.2, 1.0)'
p344
(dp345
(F1.7
F-0.2
F0.9
tp346
F0.6666666666666666
s(F1.8
F-0.2
F1.0
tp347
F0.3333333333333333
ssS'(1.9, 1.6, 0.8), (1.9, 1.7, 0.8), (1.9, 1.8, 0.8)'
p348
(dp349
(F2.0
F1.8
F0.8
tp350
F0.3333333333333333
s(F1.9
F1.9
F0.8
tp351
F0.6666666666666666
ssS'(1.7, 0.4, 0.7), (1.7, 0.4, 0.8), (1.8, 0.4, 0.8)'
p352
(dp353
(F1.8
F0.5
F0.8
tp354
F1.0
ssS'(2.9, 2.1, 1.0), (3.0, 2.1, 1.0), (3.1, 2.1, 1.0)'
p355
(dp356
(F3.2
F2.1
F1.0
tp357
F0.9166666666666666
s(F3.1
F2.2
F1.0
tp358
F0.08333333333333333
ssS'(1.7, 0.5, 0.7), (1.8, 0.5, 0.7), (1.8, 0.6, 0.7)'
p359
(dp360
(F1.8
F0.7
F0.7
tp361
F1.0
ssS'(5.0, 2.1, 1.0), (5.0, 2.0, 1.0), (5.1, 2.0, 1.0)'
p362
(dp363
(F0.1
F0.0
F1.0
tp364
F1.0
ssS'(1.9, 2.0, 1.0), (1.9, 2.1, 1.0), (2.0, 2.1, 1.0)'
p365
(dp366
(F2.1
F2.1
F1.0
tp367
F1.0
ssS'(1.9, 1.8, 0.8), (2.0, 1.8, 0.8), (2.0, 1.9, 0.8)'
p368
(dp369
(F2.0
F2.0
F0.8
tp370
F1.0
ssS'(1.9, 1.5, 0.7), (1.9, 1.6, 0.7), (1.9, 1.6, 0.8)'
p371
(dp372
(F1.9
F1.7
F0.8
tp373
F1.0
ssS'(2.9, 2.0, 1.0), (2.9, 2.1, 1.0), (3.0, 2.1, 1.0)'
p374
(dp375
(F3.1
F2.1
F1.0
tp376
F1.0
ssS'(1.8, 0.2, 0.7), (1.8, 0.3, 0.7), (1.9, 0.3, 0.7)'
p377
(dp378
(F1.9
F0.4
F0.7
tp379
F1.0
ssS'(3.9, 2.2, 1.0), (4.0, 2.2, 1.0), (4.1, 2.2, 1.0)'
p380
(dp381
(F4.2
F2.2
F1.0
tp382
F1.0
ssS'(0.7, -0.1, 1.0), (0.8, -0.1, 1.0), (0.9, -0.1, 1.0)'
p383
(dp384
(F1.0
F-0.1
F1.0
tp385
F1.0
ssS'(2.0, 2.1, 0.9), (2.0, 2.1, 1.0), (2.1, 2.1, 1.0)'
p386
(dp387
(F2.2
F2.1
F1.0
tp388
F1.0
ssS'(0.8, -0.1, 1.0), (0.9, -0.1, 1.0), (1.0, -0.1, 1.0)'
p389
(dp390
(F1.1
F-0.1
F1.0
tp391
F1.0
ssS'(4.6, 2.2, 1.0), (4.7, 2.2, 1.0), (4.8, 2.2, 1.0)'
p392
(dp393
(F4.9
F2.2
F1.0
tp394
F1.0
ssS'(3.7, 2.0, 1.0), (3.8, 2.0, 1.0), (3.9, 2.0, 1.0)'
p395
(dp396
(F4.0
F2.0
F1.0
tp397
F1.0
ssS'(4.4, 2.1, 1.0), (4.4, 2.2, 1.0), (4.5, 2.2, 1.0)'
p398
(dp399
(F4.6
F2.2
F1.0
tp400
F1.0
ssS'(4.4, 2.0, 1.0), (4.5, 2.0, 1.0), (4.6, 2.0, 1.0)'
p401
(dp402
(F4.7
F2.0
F1.0
tp403
F1.0
ssS'(2.0, 1.8, 0.8), (2.0, 1.9, 0.8), (2.1, 1.9, 0.8)'
p404
(dp405
(F2.1
F2.0
F0.8
tp406
F1.0
ssS'(5.0, 2.1, 1.0), (0.1, 0.0, 1.0), (0.2, 0.0, 1.0)'
p407
(dp408
(F0.3
F-0.0
F1.0
tp409
F1.0
ssS'(3.5, 2.1, 1.0), (3.6, 2.1, 1.0), (3.7, 2.1, 1.0)'
p410
(dp411
(F3.8
F2.1
F1.0
tp412
F1.0
ssS'(4.3, 2.0, 1.0), (4.4, 2.0, 1.0), (4.5, 2.0, 1.0)'
p413
(dp414
(F4.6
F2.0
F1.0
tp415
F1.0
ssS'(1.9, 0.9, 0.8), (1.9, 1.0, 0.8), (1.9, 1.1, 0.8)'
p416
(dp417
(F2.0
F1.1
F0.8
tp418
F0.5
s(F1.9
F1.2
F0.8
tp419
F0.5
ssS'(1.8, 0.9, 0.7), (1.8, 0.9, 0.8), (1.8, 1.0, 0.8)'
p420
(dp421
(F1.9
F1.0
F0.8
tp422
F1.0
ssS'(1.8, 0.9, 0.7), (1.8, 1.0, 0.7), (1.8, 1.0, 0.8)'
p423
(dp424
(F1.9
F1.0
F0.8
tp425
F1.0
ssS'(2.0, 2.1, 0.8), (2.0, 2.1, 0.9), (2.0, 2.1, 1.0)'
p426
(dp427
(F2.1
F2.1
F1.0
tp428
F1.0
ssS'(2.4, 2.0, 1.0), (2.5, 2.0, 1.0), (2.6, 2.0, 1.0)'
p429
(dp430
(F2.7
F2.0
F1.0
tp431
F1.0
ssS'(1.9, 1.8, 0.8), (1.9, 1.9, 0.8), (2.0, 1.9, 0.8)'
p432
(dp433
(F2.0
F2.0
F0.8
tp434
F1.0
ssS'(1.9, 0.9, 0.7), (1.9, 1.0, 0.7), (1.9, 1.1, 0.7)'
p435
(dp436
(F1.9
F1.1
F0.8
tp437
F1.0
ssS'(0.2, 0.0, 1.0), (0.3, -0.0, 1.0), (0.4, -0.0, 1.0)'
p438
(dp439
(F0.5
F-0.0
F1.0
tp440
F1.0
ssS'(4.5, 2.0, 1.0), (4.6, 2.0, 1.0), (4.7, 2.0, 1.0)'
p441
(dp442
(F4.7
F1.9
F1.0
tp443
F0.3333333333333333
s(F4.8
F2.0
F1.0
tp444
F0.6666666666666666
ssS'(1.8, 0.7, 0.7), (1.8, 0.8, 0.7), (1.8, 0.9, 0.7)'
p445
(dp446
(F1.8
F0.9
F0.8
tp447
F0.14285714285714285
s(F1.8
F1.0
F0.7
tp448
F0.8571428571428571
ssS'(1.8, 0.9, 0.8), (1.8, 1.0, 0.8), (1.9, 1.0, 0.8)'
p449
(dp450
(F1.9
F1.1
F0.8
tp451
F1.0
ssS'(2.0, 1.6, 0.8), (2.0, 1.7, 0.8), (2.0, 1.8, 0.8)'
p452
(dp453
(F2.0
F1.9
F0.8
tp454
F0.6
s(F2.1
F1.8
F0.8
tp455
F0.4
ssS'(4.3, 2.1, 1.0), (4.3, 2.0, 1.0), (4.4, 2.0, 1.0)'
p456
(dp457
(F4.5
F2.0
F1.0
tp458
F1.0
ssS'(1.9, 1.0, 0.8), (1.9, 1.1, 0.8), (2.0, 1.1, 0.8)'
p459
(dp460
(F2.0
F1.2
F0.8
tp461
F1.0
ssS'(1.8, 0.8, 0.7), (1.8, 0.9, 0.7), (1.8, 1.0, 0.7)'
p462
(dp463
(F1.8
F1.0
F0.8
tp464
F0.16666666666666666
s(F1.9
F1.0
F0.7
tp465
F0.16666666666666666
s(F1.8
F1.1
F0.7
tp466
F0.6666666666666666
ssS'(3.2, 2.1, 1.0), (3.3, 2.1, 1.0), (3.4, 2.1, 1.0)'
p467
(dp468
(F3.5
F2.1
F1.0
tp469
F1.0
ssS'(1.8, -0.2, 0.7), (1.8, -0.1, 0.7), (1.8, -0.0, 0.7)'
p470
(dp471
(F1.8
F0.1
F0.7
tp472
F1.0
ssS'(1.3, -0.1, 1.0), (1.4, -0.1, 1.0), (1.5, -0.1, 1.0)'
p473
(dp474
(F1.5
F-0.2
F1.0
tp475
F0.625
s(F1.6
F-0.1
F1.0
tp476
F0.375
ssS'(4.7, 2.1, 1.0), (4.8, 2.1, 1.0), (4.9, 2.1, 1.0)'
p477
(dp478
(F5.0
F2.1
F1.0
tp479
F1.0
ssS'(2.8, 2.0, 1.0), (2.9, 2.0, 1.0), (3.0, 2.0, 1.0)'
p480
(dp481
(F3.1
F2.0
F1.0
tp482
F1.0
ssS'(2.4, 2.0, 1.0), (2.4, 2.1, 1.0), (2.5, 2.1, 1.0)'
p483
(dp484
(F2.6
F2.1
F1.0
tp485
F1.0
ssS'(4.7, 2.0, 1.0), (4.8, 2.0, 1.0), (4.9, 2.0, 1.0)'
p486
(dp487
(F5.0
F2.0
F1.0
tp488
F1.0
ssS'(1.9, 0.4, 0.7), (1.9, 0.5, 0.7), (1.9, 0.6, 0.7)'
p489
(dp490
(F1.9
F0.7
F0.7
tp491
F0.5
s(F1.9
F0.6
F0.8
tp492
F0.5
ssS'(2.5, 2.0, 1.0), (2.6, 2.0, 1.0), (2.7, 2.0, 1.0)'
p493
(dp494
(F2.8
F2.0
F1.0
tp495
F1.0
ssS'(4.2, 2.1, 1.0), (4.3, 2.1, 1.0), (4.3, 2.0, 1.0)'
p496
(dp497
(F4.4
F2.0
F1.0
tp498
F1.0
ssS'(1.9, 1.1, 0.8), (2.0, 1.1, 0.8), (2.0, 1.2, 0.8)'
p499
(dp500
(F2.0
F1.3
F0.8
tp501
F1.0
ssS'(1.7, -0.0, 0.8), (1.7, 0.1, 0.8), (1.8, 0.1, 0.8)'
p502
(dp503
(F1.8
F0.2
F0.8
tp504
F1.0
ssS'(1.7, -0.1, 0.7), (1.7, -0.0, 0.7), (1.7, 0.1, 0.7)'
p505
(dp506
(F1.7
F0.2
F0.7
tp507
F0.7777777777777778
s(F1.8
F0.1
F0.7
tp508
F0.2222222222222222
ssS'(5.0, 2.0, 1.0), (5.0, 1.9, 1.0), (5.1, 1.9, 1.0)'
p509
(dp510
(F0.1
F0.0
F1.0
tp511
F1.0
ssS'(2.1, 2.0, 1.0), (2.2, 2.0, 1.0), (2.2, 2.1, 1.0)'
p512
(dp513
(F2.3
F2.1
F1.0
tp514
F1.0
ssS'(1.9, 2.0, 0.8), (1.9, 2.1, 0.8), (1.9, 2.1, 0.9)'
p515
(dp516
(F1.9
F2.1
F1.0
tp517
F1.0
ssS'(1.9, 1.7, 0.8), (2.0, 1.7, 0.8), (2.0, 1.8, 0.8)'
p518
(dp519
(F2.0
F1.9
F0.8
tp520
F1.0
ssS'(1.1, -0.1, 1.0), (1.2, -0.1, 1.0), (1.3, -0.1, 1.0)'
p521
(dp522
(F1.4
F-0.1
F1.0
tp523
F0.7857142857142857
s(F1.3
F-0.2
F1.0
tp524
F0.21428571428571427
ssS'(1.9, 0.7, 0.7), (1.9, 0.8, 0.7), (1.9, 0.9, 0.7)'
p525
(dp526
(F1.9
F0.9
F0.8
tp527
F0.5
s(F1.9
F1.0
F0.7
tp528
F0.5
ssS'(1.7, 0.1, 0.8), (1.7, 0.2, 0.8), (1.8, 0.2, 0.8)'
p529
(dp530
(F1.8
F0.3
F0.8
tp531
F1.0
ssS'(1.9, 0.3, 0.7), (1.9, 0.4, 0.7), (1.9, 0.5, 0.7)'
p532
(dp533
(F1.9
F0.6
F0.7
tp534
F1.0
ssS'(5.0, 2.1, 1.0), (0.1, 0.0, 1.0), (0.2, -0.0, 1.0)'
p535
(dp536
(F0.3
F-0.0
F1.0
tp537
F1.0
ssS'(1.7, -0.2, 0.8), (1.7, -0.1, 0.8), (1.7, -0.0, 0.8)'
p538
(dp539
(F1.7
F0.1
F0.8
tp540
F1.0
ssS'(1.9, 0.8, 0.8), (1.9, 0.9, 0.8), (1.9, 1.0, 0.8)'
p541
(dp542
(F1.9
F1.1
F0.8
tp543
F1.0
ssS'(1.7, 0.2, 0.8), (1.7, 0.3, 0.8), (1.8, 0.3, 0.8)'
p544
(dp545
(F1.8
F0.4
F0.8
tp546
F1.0
ssS'(2.8, 2.1, 1.0), (2.9, 2.1, 1.0), (3.0, 2.1, 1.0)'
p547
(dp548
(F3.1
F2.1
F1.0
tp549
F1.0
ssS'(1.9, 1.9, 0.8), (1.9, 2.0, 0.8), (1.9, 2.0, 0.9)'
p550
(dp551
(F1.9
F2.0
F1.0
tp552
F1.0
ssS'(1.8, 0.7, 0.7), (1.9, 0.7, 0.7), (1.9, 0.8, 0.7)'
p553
(dp554
(F1.9
F0.9
F0.7
tp555
F1.0
ssS'(0.5, -0.0, 1.0), (0.5, -0.1, 1.0), (0.6, -0.1, 1.0)'
p556
(dp557
(F0.7
F-0.1
F1.0
tp558
F1.0
ssS'(1.3, -0.2, 1.0), (1.4, -0.2, 1.0), (1.5, -0.2, 1.0)'
p559
(dp560
(F1.6
F-0.2
F1.0
tp561
F1.0
ssS'(3.0, 2.1, 1.0), (3.1, 2.1, 1.0), (3.2, 2.1, 1.0)'
p562
(dp563
(F3.3
F2.1
F1.0
tp564
F1.0
ssS'(2.0, 1.8, 0.8), (2.1, 1.8, 0.8), (2.1, 1.9, 0.8)'
p565
(dp566
(F2.1
F2.0
F0.8
tp567
F1.0
ssS'(1.7, 0.3, 0.8), (1.8, 0.3, 0.8), (1.8, 0.4, 0.8)'
p568
(dp569
(F1.8
F0.5
F0.8
tp570
F1.0
ssS'(1.9, 2.1, 1.0), (2.0, 2.1, 1.0), (2.1, 2.1, 1.0)'
p571
(dp572
(F2.2
F2.1
F1.0
tp573
F1.0
ssS'(1.8, 1.0, 0.7), (1.8, 1.1, 0.7), (1.8, 1.2, 0.7)'
p574
(dp575
(F1.8
F1.2
F0.8
tp576
F0.25
s(F1.8
F1.3
F0.7
tp577
F0.25
s(F1.9
F1.2
F0.7
tp578
F0.5
ssS'(4.7, 2.2, 1.0), (4.8, 2.2, 1.0), (4.9, 2.2, 1.0)'
p579
(dp580
(F5.0
F2.2
F1.0
tp581
F0.3333333333333333
s(F0.1
F0.0
F1.0
tp582
F0.6666666666666666
ssS'(2.0, 2.0, 0.8), (2.1, 2.0, 0.8), (2.1, 2.0, 0.9)'
p583
(dp584
(F2.1
F2.0
F1.0
tp585
F1.0
ssS'(4.6, 2.0, 1.0), (4.7, 2.0, 1.0), (4.8, 2.0, 1.0)'
p586
(dp587
(F4.9
F2.0
F1.0
tp588
F1.0
ssS'(2.1, 2.0, 1.0), (2.1, 2.1, 1.0), (2.2, 2.1, 1.0)'
p589
(dp590
(F2.3
F2.1
F1.0
tp591
F1.0
ssS'(1.8, 0.8, 0.7), (1.8, 0.9, 0.7), (1.8, 0.9, 0.8)'
p592
(dp593
(F1.8
F1.0
F0.8
tp594
F1.0
ssS'(2.0, 1.7, 0.8), (2.0, 1.8, 0.8), (2.1, 1.8, 0.8)'
p595
(dp596
(F2.1
F1.9
F0.8
tp597
F1.0
ssS'(0.5, -0.0, 1.0), (0.6, -0.0, 1.0), (0.7, -0.0, 1.0)'
p598
(dp599
(F0.7
F-0.1
F1.0
tp600
F1.0
ssS'(1.7, 0.3, 0.7), (1.7, 0.4, 0.7), (1.7, 0.5, 0.7)'
p601
(dp602
(F1.8
F0.5
F0.7
tp603
F0.5
s(F1.7
F0.6
F0.7
tp604
F0.5
ssS'(1.4, -0.1, 1.0), (1.4, -0.2, 1.0), (1.5, -0.2, 1.0)'
p605
(dp606
(F1.6
F-0.2
F1.0
tp607
F1.0
ssS'(1.9, 1.3, 0.8), (1.9, 1.4, 0.8), (2.0, 1.4, 0.8)'
p608
(dp609
(F2.0
F1.5
F0.8
tp610
F1.0
ssS'(0.7, -0.0, 1.0), (0.7, -0.1, 1.0), (0.8, -0.1, 1.0)'
p611
(dp612
(F0.9
F-0.1
F1.0
tp613
F1.0
ssS'(1.8, -0.2, 0.8), (1.8, -0.2, 0.7), (1.8, -0.1, 0.7)'
p614
(dp615
(F1.8
F-0.0
F0.7
tp616
F1.0
ssS'(0.6, -0.0, 1.0), (0.6, -0.1, 1.0), (0.7, -0.1, 1.0)'
p617
(dp618
(F0.8
F-0.1
F1.0
tp619
F1.0
ssS'(3.5, 2.2, 1.0), (3.6, 2.2, 1.0), (3.7, 2.2, 1.0)'
p620
(dp621
(F3.8
F2.2
F1.0
tp622
F1.0
ssS'(1.9, 1.4, 0.7), (1.9, 1.4, 0.8), (1.9, 1.5, 0.8)'
p623
(dp624
(F1.9
F1.6
F0.8
tp625
F1.0
ssS'(1.8, 0.3, 0.7), (1.8, 0.4, 0.7), (1.8, 0.5, 0.7)'
p626
(dp627
(F1.8
F0.6
F0.7
tp628
F1.0
ssS'(0.1, 0.0, 1.0), (0.2, 0.0, 1.0), (0.3, -0.0, 1.0)'
p629
(dp630
(F0.4
F-0.0
F1.0
tp631
F1.0
ssS'(1.8, 0.0, 0.7), (1.8, 0.1, 0.7), (1.8, 0.2, 0.7)'
p632
(dp633
(F1.8
F0.3
F0.7
tp634
F1.0
ssS'(1.4, -0.1, 1.0), (1.5, -0.1, 1.0), (1.5, -0.2, 1.0)'
p635
(dp636
(F1.6
F-0.2
F1.0
tp637
F1.0
ssS'(1.9, 2.1, 0.9), (1.9, 2.1, 1.0), (2.0, 2.1, 1.0)'
p638
(dp639
(F2.1
F2.1
F1.0
tp640
F1.0
ssS'(2.7, 2.0, 1.0), (2.8, 2.0, 1.0), (2.9, 2.0, 1.0)'
p641
(dp642
(F2.9
F2.1
F1.0
tp643
F0.25
s(F3.0
F2.0
F1.0
tp644
F0.75
ssS'(4.5, 2.1, 1.0), (4.6, 2.1, 1.0), (4.7, 2.1, 1.0)'
p645
(dp646
(F4.8
F2.1
F1.0
tp647
F1.0
ssS'(2.0, 2.0, 1.0), (2.1, 2.0, 1.0), (2.2, 2.0, 1.0)'
p648
(dp649
(F2.3
F2.0
F1.0
tp650
F0.6666666666666666
s(F2.2
F2.1
F1.0
tp651
F0.3333333333333333
ssS'(1.7, -0.2, 0.8), (1.7, -0.2, 0.7), (1.7, -0.1, 0.7)'
p652
(dp653
(F1.7
F-0.0
F0.7
tp654
F1.0
ssS'(2.3, 2.1, 1.0), (2.4, 2.1, 1.0), (2.5, 2.1, 1.0)'
p655
(dp656
(F2.6
F2.1
F1.0
tp657
F1.0
ssS'(1.9, 1.6, 0.8), (1.9, 1.7, 0.8), (2.0, 1.7, 0.8)'
p658
(dp659
(F2.0
F1.8
F0.8
tp660
F1.0
ssS'(3.1, 2.2, 1.0), (3.2, 2.2, 1.0), (3.3, 2.2, 1.0)'
p661
(dp662
(F3.4
F2.2
F1.0
tp663
F1.0
ssS'(3.6, 2.1, 1.0), (3.7, 2.1, 1.0), (3.8, 2.1, 1.0)'
p664
(dp665
(F3.9
F2.1
F1.0
tp666
F1.0
ssS'(0.6, -0.0, 1.0), (0.7, -0.0, 1.0), (0.7, -0.1, 1.0)'
p667
(dp668
(F0.8
F-0.1
F1.0
tp669
F1.0
ssS'(2.1, 2.0, 1.0), (2.2, 2.0, 1.0), (2.3, 2.0, 1.0)'
p670
(dp671
(F2.4
F2.0
F1.0
tp672
F1.0
ssS'(4.5, 2.1, 1.0), (4.6, 2.1, 1.0), (4.6, 2.0, 1.0)'
p673
(dp674
(F4.7
F2.0
F1.0
tp675
F1.0
ssS'(1.8, 1.1, 0.7), (1.8, 1.2, 0.7), (1.8, 1.2, 0.8)'
p676
(dp677
(F1.8
F1.3
F0.8
tp678
F1.0
ssS'(4.1, 2.1, 1.0), (4.2, 2.1, 1.0), (4.3, 2.1, 1.0)'
p679
(dp680
(F4.4
F2.1
F1.0
tp681
F0.9090909090909091
s(F4.3
F2.0
F1.0
tp682
F0.09090909090909091
ssS'(1.9, 1.1, 0.8), (1.9, 1.2, 0.8), (1.9, 1.3, 0.8)'
p683
(dp684
(F1.9
F1.4
F0.8
tp685
F1.0
ssS'(1.8, 1.1, 0.7), (1.8, 1.2, 0.7), (1.8, 1.3, 0.7)'
p686
(dp687
(F1.8
F1.4
F0.7
tp688
F1.0
ssS'(1.8, 0.9, 0.7), (1.8, 1.0, 0.7), (1.9, 1.0, 0.7)'
p689
(dp690
(F1.9
F1.1
F0.7
tp691
F1.0
ssS'(2.0, 1.7, 0.8), (2.0, 1.8, 0.8), (2.0, 1.9, 0.8)'
p692
(dp693
(F2.1
F1.9
F0.8
tp694
F0.14285714285714285
s(F2.0
F2.0
F0.8
tp695
F0.8571428571428571
ssS'(4.2, 2.1, 1.0), (4.3, 2.1, 1.0), (4.4, 2.1, 1.0)'
p696
(dp697
(F4.4
F2.2
F1.0
tp698
F0.1
s(F4.5
F2.1
F1.0
tp699
F0.9
ssS'(1.7, 0.2, 0.7), (1.7, 0.3, 0.7), (1.7, 0.4, 0.7)'
p700
(dp701
(F1.7
F0.5
F0.7
tp702
F0.6666666666666666
s(F1.7
F0.4
F0.8
tp703
F0.3333333333333333
ssS'(1.7, -0.2, 0.9), (1.7, -0.2, 0.8), (1.7, -0.1, 0.8)'
p704
(dp705
(F1.7
F-0.0
F0.8
tp706
F1.0
ssS'(1.7, 0.4, 0.7), (1.7, 0.5, 0.7), (1.8, 0.5, 0.7)'
p707
(dp708
(F1.8
F0.6
F0.7
tp709
F1.0
ssS'(1.8, 1.2, 0.7), (1.9, 1.2, 0.7), (1.9, 1.2, 0.8)'
p710
(dp711
(F1.9
F1.3
F0.8
tp712
F1.0
ssS'(3.3, 2.0, 1.0), (3.3, 2.1, 1.0), (3.4, 2.1, 1.0)'
p713
(dp714
(F3.5
F2.1
F1.0
tp715
F1.0
ssS'(3.1, 2.0, 1.0), (3.2, 2.0, 1.0), (3.3, 2.0, 1.0)'
p716
(dp717
(F3.3
F2.1
F1.0
tp718
F0.3333333333333333
s(F3.4
F2.0
F1.0
tp719
F0.6666666666666666
ssS'(1.9, 1.3, 0.7), (1.9, 1.4, 0.7), (1.9, 1.5, 0.7)'
p720
(dp721
(F1.9
F1.6
F0.7
tp722
F1.0
ssS'(1.7, 0.1, 0.7), (1.8, 0.1, 0.7), (1.8, 0.2, 0.7)'
p723
(dp724
(F1.8
F0.3
F0.7
tp725
F1.0
ssS'(1.7, 0.3, 0.7), (1.8, 0.3, 0.7), (1.8, 0.4, 0.7)'
p726
(dp727
(F1.8
F0.5
F0.7
tp728
F1.0
ssS'(3.0, 2.1, 1.0), (3.1, 2.1, 1.0), (3.1, 2.2, 1.0)'
p729
(dp730
(F3.2
F2.2
F1.0
tp731
F1.0
ssS'(1.7, 0.2, 0.7), (1.7, 0.2, 0.8), (1.7, 0.3, 0.8)'
p732
(dp733
(F1.8
F0.3
F0.8
tp734
F1.0
ssS'(1.8, 0.5, 0.8), (1.8, 0.6, 0.8), (1.8, 0.7, 0.8)'
p735
(dp736
(F1.8
F0.8
F0.8
tp737
F1.0
ssS'(1.6, -0.2, 1.0), (1.7, -0.2, 1.0), (1.7, -0.2, 0.9)'
p738
(dp739
(F1.7
F-0.2
F0.8
tp740
F1.0
ssS'(1.8, 1.1, 0.8), (1.9, 1.1, 0.8), (1.9, 1.2, 0.8)'
p741
(dp742
(F1.9
F1.3
F0.8
tp743
F1.0
ssS'(3.9, 2.0, 1.0), (4.0, 2.0, 1.0), (4.1, 2.0, 1.0)'
p744
(dp745
(F4.2
F2.0
F1.0
tp746
F1.0
ssS'(1.8, 0.1, 0.8), (1.8, 0.2, 0.8), (1.8, 0.3, 0.8)'
p747
(dp748
(F1.8
F0.4
F0.8
tp749
F1.0
ssS'(1.9, 1.4, 0.7), (1.9, 1.5, 0.7), (1.9, 1.6, 0.7)'
p750
(dp751
(F1.9
F1.6
F0.8
tp752
F1.0
ssS'(1.8, 1.0, 0.8), (1.9, 1.0, 0.8), (1.9, 1.1, 0.8)'
p753
(dp754
(F1.9
F1.2
F0.8
tp755
F1.0
ssS'(1.9, 1.7, 0.8), (1.9, 1.8, 0.8), (2.0, 1.8, 0.8)'
p756
(dp757
(F2.0
F1.9
F0.8
tp758
F1.0
ssS'(2.2, 2.1, 1.0), (2.3, 2.1, 1.0), (2.4, 2.1, 1.0)'
p759
(dp760
(F2.5
F2.1
F1.0
tp761
F1.0
ssS'(4.9, 2.0, 1.0), (5.0, 2.0, 1.0), (0.1, 0.0, 1.0)'
p762
(dp763
(F0.2
F0.0
F1.0
tp764
F1.0
ssS'(4.8, 2.0, 1.0), (4.9, 2.0, 1.0), (5.0, 2.0, 1.0)'
p765
(dp766
(F5.1
F2.0
F1.0
tp767
F0.3333333333333333
s(F0.1
F0.0
F1.0
tp768
F0.3333333333333333
s(F5.0
F1.9
F1.0
tp769
F0.3333333333333333
ssS'(1.9, 1.2, 0.8), (1.9, 1.3, 0.8), (1.9, 1.4, 0.8)'
p770
(dp771
(F2.0
F1.4
F0.8
tp772
F0.2222222222222222
s(F1.9
F1.5
F0.8
tp773
F0.7777777777777778
ssS'(5.0, 2.0, 1.0), (5.1, 2.0, 1.0), (0.1, 0.0, 1.0)'
p774
(dp775
(F0.2
F0.0
F1.0
tp776
F1.0
ssS'(3.3, 2.0, 1.0), (3.4, 2.0, 1.0), (3.5, 2.0, 1.0)'
p777
(dp778
(F3.6
F2.0
F1.0
tp779
F1.0
ssS'(2.6, 2.0, 1.0), (2.7, 2.0, 1.0), (2.8, 2.0, 1.0)'
p780
(dp781
(F2.9
F2.0
F1.0
tp782
F1.0
ssS'(2.0, 1.8, 0.8), (2.0, 1.9, 0.8), (2.0, 2.0, 0.8)'
p783
(dp784
(F2.0
F2.1
F0.8
tp785
F0.375
s(F2.0
F2.0
F0.9
tp786
F0.5
s(F2.1
F2.0
F0.8
tp787
F0.125
ssS'(2.2, 2.0, 1.0), (2.2, 2.1, 1.0), (2.3, 2.1, 1.0)'
p788
(dp789
(F2.4
F2.1
F1.0
tp790
F1.0
ssS'(1.9, 1.3, 0.7), (1.9, 1.3, 0.8), (1.9, 1.4, 0.8)'
p791
(dp792
(F1.9
F1.5
F0.8
tp793
F1.0
ssS'(2.0, 1.2, 0.8), (2.0, 1.3, 0.8), (2.0, 1.4, 0.8)'
p794
(dp795
(F2.0
F1.5
F0.8
tp796
F1.0
ssS'(3.5, 2.1, 1.0), (3.6, 2.1, 1.0), (3.6, 2.2, 1.0)'
p797
(dp798
(F3.7
F2.2
F1.0
tp799
F1.0
ssS'(1.6, -0.2, 1.0), (1.7, -0.2, 1.0), (1.8, -0.2, 1.0)'
p800
(dp801
(F1.8
F-0.2
F0.9
tp802
F1.0
ssS'(1.7, -0.2, 0.9), (1.7, -0.2, 0.8), (1.7, -0.2, 0.7)'
p803
(dp804
(F1.7
F-0.1
F0.7
tp805
F1.0
ssS'(4.9, 2.2, 1.0), (0.1, 0.0, 1.0), (0.2, 0.0, 1.0)'
p806
(dp807
(F0.3
F-0.0
F1.0
tp808
F1.0
ssS'(4.1, 2.0, 1.0), (4.2, 2.0, 1.0), (4.3, 2.0, 1.0)'
p809
(dp810
(F4.4
F2.0
F1.0
tp811
F1.0
ssS'(0.3, -0.0, 1.0), (0.4, -0.0, 1.0), (0.5, -0.0, 1.0)'
p812
(dp813
(F0.6
F-0.0
F1.0
tp814
F0.9333333333333333
s(F0.5
F-0.1
F1.0
tp815
F0.06666666666666667
ssS'(5.0, 1.9, 1.0), (5.1, 1.9, 1.0), (0.1, 0.0, 1.0)'
p816
(dp817
(F0.2
F0.0
F1.0
tp818
F1.0
ssS'(1.3, -0.1, 1.0), (1.3, -0.2, 1.0), (1.4, -0.2, 1.0)'
p819
(dp820
(F1.5
F-0.2
F1.0
tp821
F1.0
ssS'(3.5, 2.0, 1.0), (3.6, 2.0, 1.0), (3.7, 2.0, 1.0)'
p822
(dp823
(F3.8
F2.0
F1.0
tp824
F1.0
ssS'(1.8, 0.6, 0.7), (1.8, 0.7, 0.7), (1.9, 0.7, 0.7)'
p825
(dp826
(F1.9
F0.8
F0.7
tp827
F1.0
ssS'(1.8, 0.4, 0.7), (1.8, 0.5, 0.7), (1.8, 0.6, 0.7)'
p828
(dp829
(F1.8
F0.7
F0.7
tp830
F1.0
ssS'(1.9, 1.4, 0.8), (2.0, 1.4, 0.8), (2.0, 1.5, 0.8)'
p831
(dp832
(F2.0
F1.6
F0.8
tp833
F1.0
ssS'(1.7, -0.0, 0.8), (1.7, 0.1, 0.8), (1.7, 0.2, 0.8)'
p834
(dp835
(F1.8
F0.2
F0.8
tp836
F1.0
ssS'(1.7, 0.5, 0.7), (1.7, 0.6, 0.7), (1.8, 0.6, 0.7)'
p837
(dp838
(F1.8
F0.7
F0.7
tp839
F1.0
ssS'(2.1, 2.0, 0.9), (2.1, 2.0, 1.0), (2.2, 2.0, 1.0)'
p840
(dp841
(F2.3
F2.0
F1.0
tp842
F1.0
ssS'(1.9, 1.5, 0.8), (2.0, 1.5, 0.8), (2.0, 1.6, 0.8)'
p843
(dp844
(F2.0
F1.7
F0.8
tp845
F1.0
ssS'(4.6, 2.1, 1.0), (4.7, 2.1, 1.0), (4.8, 2.1, 1.0)'
p846
(dp847
(F4.9
F2.1
F1.0
tp848
F1.0
ssS'(3.8, 2.2, 1.0), (3.9, 2.2, 1.0), (4.0, 2.2, 1.0)'
p849
(dp850
(F4.1
F2.2
F1.0
tp851
F1.0
ssS'(1.5, -0.1, 1.0), (1.5, -0.2, 1.0), (1.6, -0.2, 1.0)'
p852
(dp853
(F1.7
F-0.2
F1.0
tp854
F1.0
ssS'(2.2, 2.0, 1.0), (2.3, 2.0, 1.0), (2.4, 2.0, 1.0)'
p855
(dp856
(F2.5
F2.0
F1.0
tp857
F0.8
s(F2.4
F2.1
F1.0
tp858
F0.2
ssS'(1.9, 2.0, 0.8), (1.9, 2.0, 0.9), (1.9, 2.0, 1.0)'
p859
(dp860
(F1.9
F2.1
F1.0
tp861
F1.0
ssS'(1.2, -0.1, 1.0), (1.3, -0.1, 1.0), (1.4, -0.1, 1.0)'
p862
(dp863
(F1.4
F-0.2
F1.0
tp864
F0.2727272727272727
s(F1.5
F-0.1
F1.0
tp865
F0.7272727272727273
ssS'(1.9, 2.1, 0.8), (1.9, 2.1, 0.9), (1.9, 2.1, 1.0)'
p866
(dp867
(F2.0
F2.1
F1.0
tp868
F1.0
ssS'(1.8, 1.1, 0.8), (1.8, 1.2, 0.8), (1.9, 1.2, 0.8)'
p869
(dp870
(F1.9
F1.3
F0.8
tp871
F1.0
ssS'(3.9, 2.1, 1.0), (4.0, 2.1, 1.0), (4.1, 2.1, 1.0)'
p872
(dp873
(F4.2
F2.1
F1.0
tp874
F1.0
ssS'(1.8, 1.2, 0.7), (1.8, 1.3, 0.7), (1.8, 1.4, 0.7)'
p875
(dp876
(F1.9
F1.4
F0.7
tp877
F1.0
ssS'(1.9, 1.1, 0.7), (1.9, 1.2, 0.7), (1.9, 1.3, 0.7)'
p878
(dp879
(F1.9
F1.4
F0.7
tp880
F1.0
ssS'(4.8, 2.1, 1.0), (4.9, 2.1, 1.0), (5.0, 2.1, 1.0)'
p881
(dp882
(F0.1
F0.0
F1.0
tp883
F0.8571428571428571
s(F5.0
F2.0
F1.0
tp884
F0.14285714285714285
ssS'(2.0, 1.3, 0.8), (2.0, 1.4, 0.8), (2.0, 1.5, 0.8)'
p885
(dp886
(F2.0
F1.6
F0.8
tp887
F1.0
ssS'(1.9, 1.9, 0.8), (1.9, 2.0, 0.8), (1.9, 2.1, 0.8)'
p888
(dp889
(F1.9
F2.1
F0.9
tp890
F1.0
ssS'(1.9, 1.0, 0.7), (1.9, 1.1, 0.7), (1.9, 1.2, 0.7)'
p891
(dp892
(F1.9
F1.3
F0.7
tp893
F1.0
ssS'(1.8, -0.2, 1.0), (1.8, -0.2, 0.9), (1.8, -0.2, 0.8)'
p894
(dp895
(F1.8
F-0.2
F0.7
tp896
F1.0
ssS'(1.8, 1.0, 0.7), (1.8, 1.0, 0.8), (1.9, 1.0, 0.8)'
p897
(dp898
(F1.9
F1.1
F0.8
tp899
F1.0
ssS'(4.7, 2.0, 1.0), (4.7, 1.9, 1.0), (4.8, 1.9, 1.0)'
p900
(dp901
(F4.9
F1.9
F1.0
tp902
F1.0
ssS'(2.8, 2.0, 1.0), (2.9, 2.0, 1.0), (2.9, 2.1, 1.0)'
p903
(dp904
(F3.0
F2.1
F1.0
tp905
F1.0
ssS'(1.8, 1.1, 0.7), (1.8, 1.2, 0.7), (1.9, 1.2, 0.7)'
p906
(dp907
(F1.9
F1.2
F0.8
tp908
F0.5
s(F1.9
F1.3
F0.7
tp909
F0.5
ssS'(2.3, 2.0, 1.0), (2.4, 2.0, 1.0), (2.4, 2.1, 1.0)'
p910
(dp911
(F2.5
F2.1
F1.0
tp912
F1.0
ssS'(1.7, -0.0, 0.7), (1.7, 0.1, 0.7), (1.8, 0.1, 0.7)'
p913
(dp914
(F1.8
F0.2
F0.7
tp915
F1.0
ssS'(1.9, 0.6, 0.8), (1.9, 0.7, 0.8), (1.9, 0.8, 0.8)'
p916
(dp917
(F1.9
F0.9
F0.8
tp918
F1.0
ssS'(2.1, 2.1, 1.0), (2.2, 2.1, 1.0), (2.3, 2.1, 1.0)'
p919
(dp920
(F2.4
F2.1
F1.0
tp921
F1.0
ssS'(1.7, 0.1, 0.8), (1.8, 0.1, 0.8), (1.8, 0.2, 0.8)'
p922
(dp923
(F1.8
F0.3
F0.8
tp924
F1.0
ssS'(1.9, 0.5, 0.7), (1.9, 0.6, 0.7), (1.9, 0.7, 0.7)'
p925
(dp926
(F1.9
F0.8
F0.7
tp927
F1.0
ssS'(3.1, 2.1, 1.0), (3.2, 2.1, 1.0), (3.3, 2.1, 1.0)'
p928
(dp929
(F3.4
F2.1
F1.0
tp930
F1.0
ssS'(1.8, 1.3, 0.7), (1.8, 1.4, 0.7), (1.9, 1.4, 0.7)'
p931
(dp932
(F1.9
F1.4
F0.8
tp933
F1.0
ssS'(1.9, 0.5, 0.7), (1.9, 0.6, 0.7), (1.9, 0.6, 0.8)'
p934
(dp935
(F1.9
F0.7
F0.8
tp936
F1.0
ssS'(3.4, 2.2, 1.0), (3.5, 2.2, 1.0), (3.6, 2.2, 1.0)'
p937
(dp938
(F3.7
F2.2
F1.0
tp939
F1.0
ssS'(4.3, 2.1, 1.0), (4.4, 2.1, 1.0), (4.4, 2.2, 1.0)'
p940
(dp941
(F4.5
F2.2
F1.0
tp942
F1.0
ssS'(3.8, 2.0, 1.0), (3.9, 2.0, 1.0), (4.0, 2.0, 1.0)'
p943
(dp944
(F4.1
F2.0
F1.0
tp945
F1.0
ssS'(1.9, 1.7, 0.8), (1.9, 1.8, 0.8), (1.9, 1.9, 0.8)'
p946
(dp947
(F2.0
F1.9
F0.8
tp948
F0.5
s(F1.9
F2.0
F0.8
tp949
F0.5
ssS'(1.8, 0.5, 0.7), (1.8, 0.6, 0.7), (1.8, 0.7, 0.7)'
p950
(dp951
(F1.9
F0.7
F0.7
tp952
F0.125
s(F1.8
F0.8
F0.7
tp953
F0.875
ssS'(1.8, 0.2, 0.7), (1.8, 0.3, 0.7), (1.8, 0.4, 0.7)'
p954
(dp955
(F1.8
F0.5
F0.7
tp956
F1.0
ssS'(1.7, 0.2, 0.7), (1.8, 0.2, 0.7), (1.8, 0.3, 0.7)'
p957
(dp958
(F1.8
F0.4
F0.7
tp959
F1.0
ssS'(3.4, 2.0, 1.0), (3.5, 2.0, 1.0), (3.6, 2.0, 1.0)'
p960
(dp961
(F3.7
F2.0
F1.0
tp962
F1.0
ssS'(4.9, 1.9, 1.0), (5.0, 1.9, 1.0), (5.1, 1.9, 1.0)'
p963
(dp964
(F0.1
F0.0
F1.0
tp965
F1.0
ssS'(4.9, 2.0, 1.0), (5.0, 2.0, 1.0), (5.1, 2.0, 1.0)'
p966
(dp967
(F0.1
F0.0
F1.0
tp968
F1.0
ssS'(0.5, -0.1, 1.0), (0.6, -0.1, 1.0), (0.7, -0.1, 1.0)'
p969
(dp970
(F0.8
F-0.1
F1.0
tp971
F1.0
ssS'(1.8, 0.8, 0.8), (1.8, 0.9, 0.8), (1.8, 1.0, 0.8)'
p972
(dp973
(F1.8
F1.1
F0.8
tp974
F0.6666666666666666
s(F1.9
F1.0
F0.8
tp975
F0.3333333333333333
ssS'(1.8, 1.0, 0.7), (1.9, 1.0, 0.7), (1.9, 1.1, 0.7)'
p976
(dp977
(F1.9
F1.2
F0.7
tp978
F1.0
ssS'(3.2, 2.2, 1.0), (3.3, 2.2, 1.0), (3.4, 2.2, 1.0)'
p979
(dp980
(F3.5
F2.2
F1.0
tp981
F1.0
ssS'(1.7, -0.0, 0.7), (1.8, 0.0, 0.7), (1.8, 0.1, 0.7)'
p982
(dp983
(F1.8
F0.2
F0.7
tp984
F1.0
ssS'(1.9, 1.6, 0.7), (1.9, 1.6, 0.8), (1.9, 1.7, 0.8)'
p985
(dp986
(F1.9
F1.8
F0.8
tp987
F1.0
ssS'(4.1, 2.2, 1.0), (4.2, 2.2, 1.0), (4.3, 2.2, 1.0)'
p988
(dp989
(F4.4
F2.2
F1.0
tp990
F1.0
ssS'(2.7, 2.1, 1.0), (2.8, 2.1, 1.0), (2.9, 2.1, 1.0)'
p991
(dp992
(F3.0
F2.1
F1.0
tp993
F1.0
ssS'(4.2, 2.0, 1.0), (4.3, 2.0, 1.0), (4.4, 2.0, 1.0)'
p994
(dp995
(F4.5
F2.0
F1.0
tp996
F1.0
ssS'(3.1, 2.1, 1.0), (3.1, 2.2, 1.0), (3.2, 2.2, 1.0)'
p997
(dp998
(F3.3
F2.2
F1.0
tp999
F1.0
ssS'(1.7, 0.2, 0.7), (1.7, 0.3, 0.7), (1.8, 0.3, 0.7)'
p1000
(dp1001
(F1.8
F0.4
F0.7
tp1002
F1.0
ssS'(1.9, 1.2, 0.7), (1.9, 1.2, 0.8), (1.9, 1.3, 0.8)'
p1003
(dp1004
(F1.9
F1.4
F0.8
tp1005
F1.0
ssS'(4.3, 2.1, 1.0), (4.4, 2.1, 1.0), (4.5, 2.1, 1.0)'
p1006
(dp1007
(F4.6
F2.1
F1.0
tp1008
F1.0
ssS'(4.6, 2.1, 1.0), (4.6, 2.0, 1.0), (4.7, 2.0, 1.0)'
p1009
(dp1010
(F4.8
F2.0
F1.0
tp1011
F1.0
ssS'(1.7, 0.1, 0.7), (1.7, 0.2, 0.7), (1.7, 0.3, 0.7)'
p1012
(dp1013
(F1.7
F0.4
F0.7
tp1014
F0.6
s(F1.8
F0.3
F0.7
tp1015
F0.4
ssS'(1.9, 1.1, 0.7), (1.9, 1.1, 0.8), (1.9, 1.2, 0.8)'
p1016
(dp1017
(F1.9
F1.3
F0.8
tp1018
F1.0
ssS'(3.0, 2.0, 1.0), (3.1, 2.0, 1.0), (3.2, 2.0, 1.0)'
p1019
(dp1020
(F3.3
F2.0
F1.0
tp1021
F1.0
ssS'(1.8, -0.1, 0.7), (1.8, -0.0, 0.7), (1.8, 0.1, 0.7)'
p1022
(dp1023
(F1.8
F0.2
F0.7
tp1024
F1.0
ssS'(2.5, 2.1, 1.0), (2.6, 2.1, 1.0), (2.7, 2.1, 1.0)'
p1025
(dp1026
(F2.8
F2.1
F1.0
tp1027
F1.0
ssS'(1.7, -0.2, 1.0), (1.8, -0.2, 1.0), (1.8, -0.2, 0.9)'
p1028
(dp1029
(F1.8
F-0.2
F0.8
tp1030
F1.0
ssS'(1.7, -0.0, 0.7), (1.7, 0.1, 0.7), (1.7, 0.2, 0.7)'
p1031
(dp1032
(F1.7
F0.2
F0.8
tp1033
F0.14285714285714285
s(F1.7
F0.3
F0.7
tp1034
F0.7142857142857143
s(F1.8
F0.2
F0.7
tp1035
F0.14285714285714285
ssS'(0.9, -0.1, 1.0), (1.0, -0.1, 1.0), (1.1, -0.1, 1.0)'
p1036
(dp1037
(F1.2
F-0.1
F1.0
tp1038
F1.0
ssS'(3.8, 2.1, 1.0), (3.9, 2.1, 1.0), (4.0, 2.1, 1.0)'
p1039
(dp1040
(F4.1
F2.1
F1.0
tp1041
F1.0
ssS'(1.5, -0.2, 1.0), (1.6, -0.2, 1.0), (1.7, -0.2, 1.0)'
p1042
(dp1043
(F1.7
F-0.2
F0.9
tp1044
F0.8333333333333334
s(F1.8
F-0.2
F1.0
tp1045
F0.16666666666666666
ssS'(3.3, 2.1, 1.0), (3.4, 2.1, 1.0), (3.5, 2.1, 1.0)'
p1046
(dp1047
(F3.6
F2.1
F1.0
tp1048
F1.0
ssS'(0.2, -0.0, 1.0), (0.3, -0.0, 1.0), (0.4, -0.0, 1.0)'
p1049
(dp1050
(F0.5
F-0.0
F1.0
tp1051
F1.0
ssS'(1.9, 1.5, 0.8), (1.9, 1.6, 0.8), (1.9, 1.7, 0.8)'
p1052
(dp1053
(F1.9
F1.8
F0.8
tp1054
F0.5555555555555556
s(F2.0
F1.7
F0.8
tp1055
F0.4444444444444444
ssS'(1.8, 0.8, 0.7), (1.8, 0.8, 0.8), (1.8, 0.9, 0.8)'
p1056
(dp1057
(F1.8
F1.0
F0.8
tp1058
F1.0
ssS'(3.7, 2.1, 1.0), (3.8, 2.1, 1.0), (3.9, 2.1, 1.0)'
p1059
(dp1060
(F4.0
F2.1
F1.0
tp1061
F1.0
ssS'(1.8, 0.1, 0.7), (1.8, 0.2, 0.7), (1.8, 0.3, 0.7)'
p1062
(dp1063
(F1.8
F0.4
F0.7
tp1064
F0.6666666666666666
s(F1.9
F0.3
F0.7
tp1065
F0.3333333333333333
ssS'(1.8, 1.0, 0.8), (1.8, 1.1, 0.8), (1.8, 1.2, 0.8)'
p1066
(dp1067
(F1.9
F1.2
F0.8
tp1068
F1.0
ssS'(1.7, -0.2, 0.7), (1.7, -0.1, 0.7), (1.7, -0.0, 0.7)'
p1069
(dp1070
(F1.8
F0.0
F0.7
tp1071
F0.1
s(F1.7
F0.1
F0.7
tp1072
F0.9
ssS'(0.1, 0.0, 1.0), (0.2, -0.0, 1.0), (0.3, -0.0, 1.0)'
p1073
(dp1074
(F0.4
F-0.0
F1.0
tp1075
F1.0
ssS'(4.5, 2.2, 1.0), (4.6, 2.2, 1.0), (4.7, 2.2, 1.0)'
p1076
(dp1077
(F4.8
F2.2
F1.0
tp1078
F1.0
ss.