(dp0
S'(-3.5, 8.2, 0.8), (-3.5, 8.3, 0.8), (-3.5, 8.4, 0.8)'
p1
(dp2
(cnumpy.core.multiarray
scalar
p3
(cnumpy
dtype
p4
(S'f8'
p5
I0
I1
tp6
Rp7
(I3
S'<'
p8
NNNI-1
I-1
I0
tp9
bS'\x9a\x99\x99\x99\x99\x99\xb9\xbf'
p10
tp11
Rp12
g3
(g7
S'\x00\x00\x00\x00\x00\x00\x00\x00'
p13
tp14
Rp15
g3
(g7
S'\x00\x00\x00\x00\x00\x00\xf0?'
p16
tp17
Rp18
tp19
F1.0
ssS'(-3.7, 7.4, 0.8), (-3.6, 7.4, 0.8), (-3.6, 7.5, 0.8)'
p20
(dp21
(g3
(g7
S'\xcd\xcc\xcc\xcc\xcc\xcc\x0c\xc0'
p22
tp23
Rp24
g3
(g7
S'ffffff\x1e@'
p25
tp26
Rp27
g3
(g7
S'\x9a\x99\x99\x99\x99\x99\xe9?'
p28
tp29
Rp30
tp31
F1.0
ssS'(-4.0, 3.5, 0.7), (-4.0, 3.6, 0.7), (-4.0, 3.7, 0.7)'
p32
(dp33
(g3
(g7
S'\x00\x00\x00\x00\x00\x00\x10\xc0'
p34
tp35
Rp36
g3
(g7
S'ffffff\x0e@'
p37
tp38
Rp39
g3
(g7
S'ffffff\xe6?'
p40
tp41
Rp42
tp43
F1.0
ssS'(-3.6, 6.8, 0.8), (-3.6, 6.9, 0.8), (-3.5, 6.9, 0.8)'
p44
(dp45
(g3
(g7
S'\x00\x00\x00\x00\x00\x00\x0c\xc0'
p46
tp47
Rp48
g3
(g7
S'\x00\x00\x00\x00\x00\x00\x1c@'
p49
tp50
Rp51
g3
(g7
S'\x9a\x99\x99\x99\x99\x99\xe9?'
p52
tp53
Rp54
tp55
F1.0
ssS'(-0.6, 0.0, 1.0), (-0.7, 0.0, 1.0), (-0.8, 0.0, 1.0)'
p56
(dp57
(g3
(g7
S'\xcd\xcc\xcc\xcc\xcc\xcc\xec\xbf'
p58
tp59
Rp60
g3
(g7
S'\x00\x00\x00\x00\x00\x00\x00\x00'
p61
tp62
Rp63
g3
(g7
S'\x00\x00\x00\x00\x00\x00\xf0?'
p64
tp65
Rp66
tp67
F1.0
ssS'(-3.6, 7.0, 0.8), (-3.5, 7.0, 0.8), (-3.5, 7.1, 0.8)'
p68
(dp69
(g3
(g7
S'\x00\x00\x00\x00\x00\x00\x0c\xc0'
p70
tp71
Rp72
g3
(g7
S'\xcd\xcc\xcc\xcc\xcc\xcc\x1c@'
p73
tp74
Rp75
g3
(g7
S'\x9a\x99\x99\x99\x99\x99\xe9?'
p76
tp77
Rp78
tp79
F1.0
ssS'(-3.8, 5.0, 0.7), (-3.8, 5.1, 0.7), (-3.8, 5.2, 0.7)'
p80
(dp81
(g3
(g7
S'ffffff\x0e\xc0'
p82
tp83
Rp84
g3
(g7
S'333333\x15@'
p85
tp86
Rp87
g3
(g7
S'ffffff\xe6?'
p88
tp89
Rp90
tp91
F1.0
ssS'(-3.8, 6.0, 0.7), (-3.8, 6.1, 0.7), (-3.7, 6.1, 0.7)'
p92
(dp93
(g3
(g7
S'\x9a\x99\x99\x99\x99\x99\r\xc0'
p94
tp95
Rp96
g3
(g7
S'\xcd\xcc\xcc\xcc\xcc\xcc\x18@'
p97
tp98
Rp99
g3
(g7
S'ffffff\xe6?'
p100
tp101
Rp102
tp103
F1.0
ssS'(-3.8, 6.1, 0.7), (-3.8, 6.2, 0.7), (-3.8, 6.3, 0.7)'
p104
(dp105
(g3
(g7
S'ffffff\x0e\xc0'
p106
tp107
Rp108
g3
(g7
S'\x9a\x99\x99\x99\x99\x99\x19@'
p109
tp110
Rp111
g3
(g7
S'ffffff\xe6?'
p112
tp113
Rp114
tp115
F1.0
ssS'(-4.0, 1.6, 0.7), (-4.0, 1.7, 0.7), (-3.9, 1.7, 0.7)'
p116
(dp117
(g3
(g7
S'333333\x0f\xc0'
p118
tp119
Rp120
g3
(g7
S'\xcd\xcc\xcc\xcc\xcc\xcc\xfc?'
p121
tp122
Rp123
g3
(g7
S'ffffff\xe6?'
p124
tp125
Rp126
tp127
F1.0
ssS'(-3.8, 5.3, 0.7), (-3.7, 5.3, 0.7), (-3.7, 5.4, 0.7)'
p128
(dp129
(g3
(g7
S'\x9a\x99\x99\x99\x99\x99\r\xc0'
p130
tp131
Rp132
g3
(g7
S'\x00\x00\x00\x00\x00\x00\x16@'
p133
tp134
Rp135
g3
(g7
S'ffffff\xe6?'
p136
tp137
Rp138
tp139
F1.0
ssS'(-3.9, 0.9, 0.7), (-3.9, 1.0, 0.7), (-3.9, 1.1, 0.7)'
p140
(dp141
(g3
(g7
S'\x00\x00\x00\x00\x00\x00\x10\xc0'
p142
tp143
Rp144
g3
(g7
S'\x9a\x99\x99\x99\x99\x99\xf1?'
p145
tp146
Rp147
g3
(g7
S'ffffff\xe6?'
p148
tp149
Rp150
tp151
F0.14285714285714285
s(g3
(g7
S'333333\x0f\xc0'
p152
tp153
Rp154
g3
(g7
S'333333\xf3?'
p155
tp156
Rp157
g3
(g7
S'ffffff\xe6?'
p158
tp159
Rp160
tp161
F0.8571428571428571
ssS'(-4.0, 2.2, 0.7), (-4.0, 2.3, 0.7), (-4.0, 2.4, 0.7)'
p162
(dp163
(g3
(g7
S'\x00\x00\x00\x00\x00\x00\x10\xc0'
p164
tp165
Rp166
g3
(g7
S'\x00\x00\x00\x00\x00\x00\x04@'
p167
tp168
Rp169
g3
(g7
S'ffffff\xe6?'
p170
tp171
Rp172
tp173
F1.0
ssS'(-3.7, 6.6, 0.7), (-3.7, 6.6, 0.8), (-3.7, 6.7, 0.8)'
p174
(dp175
(g3
(g7
S'\x9a\x99\x99\x99\x99\x99\r\xc0'
p176
tp177
Rp178
g3
(g7
S'333333\x1b@'
p179
tp180
Rp181
g3
(g7
S'\x9a\x99\x99\x99\x99\x99\xe9?'
p182
tp183
Rp184
tp185
F1.0
ssS'(-3.9, 0.7, 0.7), (-3.9, 0.8, 0.7), (-3.9, 0.9, 0.7)'
p186
(dp187
(g3
(g7
S'\x00\x00\x00\x00\x00\x00\x10\xc0'
p188
tp189
Rp190
g3
(g7
S'\xcd\xcc\xcc\xcc\xcc\xcc\xec?'
p191
tp192
Rp193
g3
(g7
S'ffffff\xe6?'
p194
tp195
Rp196
tp197
F0.18181818181818182
s(g3
(g7
S'333333\x0f\xc0'
p198
tp199
Rp200
g3
(g7
S'\x00\x00\x00\x00\x00\x00\xf0?'
p201
tp202
Rp203
g3
(g7
S'ffffff\xe6?'
p204
tp205
Rp206
tp207
F0.8181818181818182
ssS'(-3.7, 6.6, 0.7), (-3.7, 6.7, 0.7), (-3.7, 6.8, 0.7)'
p208
(dp209
(g3
(g7
S'\x9a\x99\x99\x99\x99\x99\r\xc0'
p210
tp211
Rp212
g3
(g7
S'\x9a\x99\x99\x99\x99\x99\x1b@'
p213
tp214
Rp215
g3
(g7
S'ffffff\xe6?'
p216
tp217
Rp218
tp219
F1.0
ssS'(-3.8, 5.5, 0.7), (-3.8, 5.6, 0.7), (-3.8, 5.7, 0.7)'
p220
(dp221
(g3
(g7
S'ffffff\x0e\xc0'
p222
tp223
Rp224
g3
(g7
S'333333\x17@'
p225
tp226
Rp227
g3
(g7
S'ffffff\xe6?'
p228
tp229
Rp230
tp231
F0.6
s(g3
(g7
S'\x9a\x99\x99\x99\x99\x99\r\xc0'
p232
tp233
Rp234
g3
(g7
S'\xcd\xcc\xcc\xcc\xcc\xcc\x16@'
p235
tp236
Rp237
g3
(g7
S'ffffff\xe6?'
p238
tp239
Rp240
tp241
F0.4
ssS'(-3.9, 1.0, 0.7), (-3.9, 1.1, 0.7), (-4.0, 1.1, 0.7)'
p242
(dp243
(g3
(g7
S'\x00\x00\x00\x00\x00\x00\x10\xc0'
p244
tp245
Rp246
g3
(g7
S'333333\xf3?'
p247
tp248
Rp249
g3
(g7
S'ffffff\xe6?'
p250
tp251
Rp252
tp253
F1.0
ssS'(-3.5, 0.0, 1.0), (-3.6, 0.0, 1.0), (-3.6, -0.1, 1.0)'
p254
(dp255
(g3
(g7
S'\x9a\x99\x99\x99\x99\x99\r\xc0'
p256
tp257
Rp258
g3
(g7
S'\x9a\x99\x99\x99\x99\x99\xb9\xbf'
p259
tp260
Rp261
g3
(g7
S'\x00\x00\x00\x00\x00\x00\xf0?'
p262
tp263
Rp264
tp265
F1.0
ssS'(-3.8, 6.4, 0.7), (-3.8, 6.5, 0.7), (-3.8, 6.6, 0.7)'
p266
(dp267
(g3
(g7
S'\x9a\x99\x99\x99\x99\x99\r\xc0'
p268
tp269
Rp270
g3
(g7
S'ffffff\x1a@'
p271
tp272
Rp273
g3
(g7
S'ffffff\xe6?'
p274
tp275
Rp276
tp277
F1.0
ssS'(-3.6, 7.3, 0.8), (-3.6, 7.4, 0.8), (-3.5, 7.4, 0.8)'
p278
(dp279
(g3
(g7
S'\x00\x00\x00\x00\x00\x00\x0c\xc0'
p280
tp281
Rp282
g3
(g7
S'\x00\x00\x00\x00\x00\x00\x1e@'
p283
tp284
Rp285
g3
(g7
S'\x9a\x99\x99\x99\x99\x99\xe9?'
p286
tp287
Rp288
tp289
F1.0
ssS'(-4.0, 3.9, 0.7), (-4.0, 4.0, 0.7), (-4.0, 4.1, 0.7)'
p290
(dp291
(g3
(g7
S'\x00\x00\x00\x00\x00\x00\x10\xc0'
p292
tp293
Rp294
g3
(g7
S'\xcd\xcc\xcc\xcc\xcc\xcc\x10@'
p295
tp296
Rp297
g3
(g7
S'ffffff\xe6?'
p298
tp299
Rp300
tp301
F1.0
ssS'(-3.7, 6.9, 0.8), (-3.7, 7.0, 0.8), (-3.7, 7.1, 0.8)'
p302
(dp303
(g3
(g7
S'\x9a\x99\x99\x99\x99\x99\r\xc0'
p304
tp305
Rp306
g3
(g7
S'\xcd\xcc\xcc\xcc\xcc\xcc\x1c@'
p307
tp308
Rp309
g3
(g7
S'\x9a\x99\x99\x99\x99\x99\xe9?'
p310
tp311
Rp312
tp313
F0.5
s(g3
(g7
S'\xcd\xcc\xcc\xcc\xcc\xcc\x0c\xc0'
p314
tp315
Rp316
g3
(g7
S'ffffff\x1c@'
p317
tp318
Rp319
g3
(g7
S'\x9a\x99\x99\x99\x99\x99\xe9?'
p320
tp321
Rp322
tp323
F0.5
ssS'(-3.9, 3.2, 0.7), (-3.9, 3.3, 0.7), (-3.9, 3.4, 0.7)'
p324
(dp325
(g3
(g7
S'333333\x0f\xc0'
p326
tp327
Rp328
g3
(g7
S'\x00\x00\x00\x00\x00\x00\x0c@'
p329
tp330
Rp331
g3
(g7
S'ffffff\xe6?'
p332
tp333
Rp334
tp335
F1.0
ssS'(-3.5, -0.1, 1.0), (-3.6, -0.1, 1.0), (-3.7, -0.1, 1.0)'
p336
(dp337
(g3
(g7
S'ffffff\x0e\xc0'
p338
tp339
Rp340
g3
(g7
S'\x9a\x99\x99\x99\x99\x99\xb9\xbf'
p341
tp342
Rp343
g3
(g7
S'\x00\x00\x00\x00\x00\x00\xf0?'
p344
tp345
Rp346
tp347
F1.0
ssS'(-3.7, 6.4, 0.7), (-3.7, 6.5, 0.7), (-3.7, 6.6, 0.7)'
p348
(dp349
(g3
(g7
S'\x9a\x99\x99\x99\x99\x99\r\xc0'
p350
tp351
Rp352
g3
(g7
S'ffffff\x1a@'
p353
tp354
Rp355
g3
(g7
S'\x9a\x99\x99\x99\x99\x99\xe9?'
p356
tp357
Rp358
tp359
F0.25
s(g3
(g7
S'\x9a\x99\x99\x99\x99\x99\r\xc0'
p360
tp361
Rp362
g3
(g7
S'\xcd\xcc\xcc\xcc\xcc\xcc\x1a@'
p363
tp364
Rp365
g3
(g7
S'ffffff\xe6?'
p366
tp367
Rp368
tp369
F0.5
s(g3
(g7
S'\xcd\xcc\xcc\xcc\xcc\xcc\x0c\xc0'
p370
tp371
Rp372
g3
(g7
S'ffffff\x1a@'
p373
tp374
Rp375
g3
(g7
S'ffffff\xe6?'
p376
tp377
Rp378
tp379
F0.25
ssS'(-3.4, 8.4, 0.8), (-3.3, 8.4, 0.8), (-0.1, 0.0, 1.0)'
p380
(dp381
(g3
(g7
S'\x9a\x99\x99\x99\x99\x99\xc9\xbf'
p382
tp383
Rp384
g3
(g7
S'\x00\x00\x00\x00\x00\x00\x00\x00'
p385
tp386
Rp387
g3
(g7
S'\x00\x00\x00\x00\x00\x00\xf0?'
p388
tp389
Rp390
tp391
F1.0
ssS'(-3.8, 5.6, 0.7), (-3.8, 5.7, 0.7), (-3.7, 5.7, 0.7)'
p392
(dp393
(g3
(g7
S'\x9a\x99\x99\x99\x99\x99\r\xc0'
p394
tp395
Rp396
g3
(g7
S'333333\x17@'
p397
tp398
Rp399
g3
(g7
S'ffffff\xe6?'
p400
tp401
Rp402
tp403
F1.0
ssS'(-3.7, 6.5, 0.7), (-3.7, 6.6, 0.7), (-3.7, 6.6, 0.8)'
p404
(dp405
(g3
(g7
S'\x9a\x99\x99\x99\x99\x99\r\xc0'
p406
tp407
Rp408
g3
(g7
S'\xcd\xcc\xcc\xcc\xcc\xcc\x1a@'
p409
tp410
Rp411
g3
(g7
S'\x9a\x99\x99\x99\x99\x99\xe9?'
p412
tp413
Rp414
tp415
F1.0
ssS'(-3.9, 0.8, 0.7), (-3.9, 0.9, 0.7), (-4.0, 0.9, 0.7)'
p416
(dp417
(g3
(g7
S'\x00\x00\x00\x00\x00\x00\x10\xc0'
p418
tp419
Rp420
g3
(g7
S'\x00\x00\x00\x00\x00\x00\xf0?'
p421
tp422
Rp423
g3
(g7
S'ffffff\xe6?'
p424
tp425
Rp426
tp427
F1.0
ssS'(-3.9, 2.3, 0.7), (-3.9, 2.4, 0.7), (-3.9, 2.5, 0.7)'
p428
(dp429
(g3
(g7
S'333333\x0f\xc0'
p430
tp431
Rp432
g3
(g7
S'\xcd\xcc\xcc\xcc\xcc\xcc\x04@'
p433
tp434
Rp435
g3
(g7
S'ffffff\xe6?'
p436
tp437
Rp438
tp439
F1.0
ssS'(-4.1, 1.4, 0.7), (-4.1, 1.5, 0.7), (-4.1, 1.6, 0.7)'
p440
(dp441
(g3
(g7
S'ffffff\x10\xc0'
p442
tp443
Rp444
g3
(g7
S'333333\xfb?'
p445
tp446
Rp447
g3
(g7
S'ffffff\xe6?'
p448
tp449
Rp450
tp451
F1.0
ssS'(-3.9, 3.7, 0.7), (-3.9, 3.8, 0.7), (-3.9, 3.9, 0.7)'
p452
(dp453
(g3
(g7
S'333333\x0f\xc0'
p454
tp455
Rp456
g3
(g7
S'\x00\x00\x00\x00\x00\x00\x10@'
p457
tp458
Rp459
g3
(g7
S'ffffff\xe6?'
p460
tp461
Rp462
tp463
F1.0
ssS'(-3.7, 5.5, 0.7), (-3.7, 5.6, 0.7), (-3.7, 5.7, 0.7)'
p464
(dp465
(g3
(g7
S'\x9a\x99\x99\x99\x99\x99\r\xc0'
p466
tp467
Rp468
g3
(g7
S'333333\x17@'
p469
tp470
Rp471
g3
(g7
S'ffffff\xe6?'
p472
tp473
Rp474
tp475
F1.0
ssS'(-3.7, 6.5, 0.7), (-3.7, 6.5, 0.8), (-3.7, 6.6, 0.8)'
p476
(dp477
(g3
(g7
S'\xcd\xcc\xcc\xcc\xcc\xcc\x0c\xc0'
p478
tp479
Rp480
g3
(g7
S'ffffff\x1a@'
p481
tp482
Rp483
g3
(g7
S'\x9a\x99\x99\x99\x99\x99\xe9?'
p484
tp485
Rp486
tp487
F1.0
ssS'(-3.7, 6.9, 0.7), (-3.7, 7.0, 0.7), (-3.6, 7.0, 0.7)'
p488
(dp489
(g3
(g7
S'\xcd\xcc\xcc\xcc\xcc\xcc\x0c\xc0'
p490
tp491
Rp492
g3
(g7
S'ffffff\x1c@'
p493
tp494
Rp495
g3
(g7
S'ffffff\xe6?'
p496
tp497
Rp498
tp499
F1.0
ssS'(-3.4, 8.0, 0.8), (-3.4, 8.1, 0.8), (-3.4, 8.2, 0.8)'
p500
(dp501
(g3
(g7
S'333333\x0b\xc0'
p502
tp503
Rp504
g3
(g7
S'\x9a\x99\x99\x99\x99\x99 @'
p505
tp506
Rp507
g3
(g7
S'\x9a\x99\x99\x99\x99\x99\xe9?'
p508
tp509
Rp510
tp511
F0.9
s(g3
(g7
S'ffffff\n\xc0'
p512
tp513
Rp514
g3
(g7
S'ffffff @'
p515
tp516
Rp517
g3
(g7
S'\x9a\x99\x99\x99\x99\x99\xe9?'
p518
tp519
Rp520
tp521
F0.1
ssS'(-4.0, 2.5, 0.7), (-4.0, 2.6, 0.7), (-4.0, 2.7, 0.7)'
p522
(dp523
(g3
(g7
S'\x00\x00\x00\x00\x00\x00\x10\xc0'
p524
tp525
Rp526
g3
(g7
S'ffffff\x06@'
p527
tp528
Rp529
g3
(g7
S'ffffff\xe6?'
p530
tp531
Rp532
tp533
F1.0
ssS'(-3.8, 5.5, 0.7), (-3.8, 5.6, 0.7), (-3.7, 5.6, 0.7)'
p534
(dp535
(g3
(g7
S'\x9a\x99\x99\x99\x99\x99\r\xc0'
p536
tp537
Rp538
g3
(g7
S'\xcd\xcc\xcc\xcc\xcc\xcc\x16@'
p539
tp540
Rp541
g3
(g7
S'ffffff\xe6?'
p542
tp543
Rp544
tp545
F1.0
ssS'(-4.0, 2.8, 0.7), (-4.0, 2.9, 0.7), (-3.9, 2.9, 0.7)'
p546
(dp547
(g3
(g7
S'333333\x0f\xc0'
p548
tp549
Rp550
g3
(g7
S'\x00\x00\x00\x00\x00\x00\x08@'
p551
tp552
Rp553
g3
(g7
S'ffffff\xe6?'
p554
tp555
Rp556
tp557
F1.0
ssS'(-3.9, 0.0, 0.9), (-3.9, 0.0, 0.8), (-3.9, 0.0, 0.7)'
p558
(dp559
(g3
(g7
S'333333\x0f\xc0'
p560
tp561
Rp562
g3
(g7
S'\x9a\x99\x99\x99\x99\x99\xb9?'
p563
tp564
Rp565
g3
(g7
S'ffffff\xe6?'
p566
tp567
Rp568
tp569
F1.0
ssS'(-0.9, 0.0, 1.0), (-1.0, 0.0, 1.0), (-1.1, 0.0, 1.0)'
p570
(dp571
(g3
(g7
S'333333\xf3\xbf'
p572
tp573
Rp574
g3
(g7
S'\x00\x00\x00\x00\x00\x00\x00\x00'
p575
tp576
Rp577
g3
(g7
S'\x00\x00\x00\x00\x00\x00\xf0?'
p578
tp579
Rp580
tp581
F1.0
ssS'(-3.5, 7.2, 0.8), (-3.5, 7.3, 0.8), (-3.5, 7.4, 0.8)'
p582
(dp583
(g3
(g7
S'\x00\x00\x00\x00\x00\x00\x0c\xc0'
p584
tp585
Rp586
g3
(g7
S'\x00\x00\x00\x00\x00\x00\x1e@'
p587
tp588
Rp589
g3
(g7
S'\x9a\x99\x99\x99\x99\x99\xe9?'
p590
tp591
Rp592
tp593
F1.0
ssS'(-3.7, 5.6, 0.7), (-3.7, 5.7, 0.7), (-3.7, 5.8, 0.7)'
p594
(dp595
(g3
(g7
S'\x9a\x99\x99\x99\x99\x99\r\xc0'
p596
tp597
Rp598
g3
(g7
S'\x9a\x99\x99\x99\x99\x99\x17@'
p599
tp600
Rp601
g3
(g7
S'ffffff\xe6?'
p602
tp603
Rp604
tp605
F1.0
ssS'(-3.9, 4.1, 0.7), (-3.9, 4.2, 0.7), (-3.9, 4.3, 0.7)'
p606
(dp607
(g3
(g7
S'ffffff\x0e\xc0'
p608
tp609
Rp610
g3
(g7
S'333333\x11@'
p611
tp612
Rp613
g3
(g7
S'ffffff\xe6?'
p614
tp615
Rp616
tp617
F0.16666666666666666
s(g3
(g7
S'333333\x0f\xc0'
p618
tp619
Rp620
g3
(g7
S'\x9a\x99\x99\x99\x99\x99\x11@'
p621
tp622
Rp623
g3
(g7
S'ffffff\xe6?'
p624
tp625
Rp626
tp627
F0.8333333333333334
ssS'(-3.8, 0.0, 1.0), (-3.8, -0.1, 1.0), (-3.9, -0.1, 1.0)'
p628
(dp629
(g3
(g7
S'333333\x0f\xc0'
p630
tp631
Rp632
g3
(g7
S'\x9a\x99\x99\x99\x99\x99\xb9\xbf'
p633
tp634
Rp635
g3
(g7
S'\xcd\xcc\xcc\xcc\xcc\xcc\xec?'
p636
tp637
Rp638
tp639
F0.6666666666666666
s(g3
(g7
S'\x00\x00\x00\x00\x00\x00\x10\xc0'
p640
tp641
Rp642
g3
(g7
S'\x9a\x99\x99\x99\x99\x99\xb9\xbf'
p643
tp644
Rp645
g3
(g7
S'\x00\x00\x00\x00\x00\x00\xf0?'
p646
tp647
Rp648
tp649
F0.3333333333333333
ssS'(-3.7, 6.5, 0.8), (-3.7, 6.6, 0.8), (-3.6, 6.6, 0.8)'
p650
(dp651
(g3
(g7
S'\xcd\xcc\xcc\xcc\xcc\xcc\x0c\xc0'
p652
tp653
Rp654
g3
(g7
S'\xcd\xcc\xcc\xcc\xcc\xcc\x1a@'
p655
tp656
Rp657
g3
(g7
S'\x9a\x99\x99\x99\x99\x99\xe9?'
p658
tp659
Rp660
tp661
F1.0
ssS'(-3.7, 6.2, 0.7), (-3.7, 6.3, 0.7), (-3.7, 6.4, 0.7)'
p662
(dp663
(g3
(g7
S'\xcd\xcc\xcc\xcc\xcc\xcc\x0c\xc0'
p664
tp665
Rp666
g3
(g7
S'\x9a\x99\x99\x99\x99\x99\x19@'
p667
tp668
Rp669
g3
(g7
S'ffffff\xe6?'
p670
tp671
Rp672
tp673
F0.16666666666666666
s(g3
(g7
S'\x9a\x99\x99\x99\x99\x99\r\xc0'
p674
tp675
Rp676
g3
(g7
S'\x00\x00\x00\x00\x00\x00\x1a@'
p677
tp678
Rp679
g3
(g7
S'ffffff\xe6?'
p680
tp681
Rp682
tp683
F0.8333333333333334
ssS'(-3.6, 7.8, 0.8), (-3.6, 7.9, 0.8), (-3.6, 8.0, 0.8)'
p684
(dp685
(g3
(g7
S'\x00\x00\x00\x00\x00\x00\x0c\xc0'
p686
tp687
Rp688
g3
(g7
S'\x00\x00\x00\x00\x00\x00 @'
p689
tp690
Rp691
g3
(g7
S'\x9a\x99\x99\x99\x99\x99\xe9?'
p692
tp693
Rp694
tp695
F1.0
ssS'(-3.6, 7.7, 0.8), (-3.5, 7.7, 0.8), (-3.5, 7.8, 0.8)'
p696
(dp697
(g3
(g7
S'\x00\x00\x00\x00\x00\x00\x0c\xc0'
p698
tp699
Rp700
g3
(g7
S'\x9a\x99\x99\x99\x99\x99\x1f@'
p701
tp702
Rp703
g3
(g7
S'\x9a\x99\x99\x99\x99\x99\xe9?'
p704
tp705
Rp706
tp707
F1.0
ssS'(-3.6, 8.0, 0.8), (-3.5, 8.0, 0.8), (-3.5, 8.1, 0.8)'
p708
(dp709
(g3
(g7
S'\x00\x00\x00\x00\x00\x00\x0c\xc0'
p710
tp711
Rp712
g3
(g7
S'ffffff @'
p713
tp714
Rp715
g3
(g7
S'\x9a\x99\x99\x99\x99\x99\xe9?'
p716
tp717
Rp718
tp719
F1.0
ssS'(-4.0, 1.9, 0.7), (-4.0, 2.0, 0.7), (-4.0, 2.1, 0.7)'
p720
(dp721
(g3
(g7
S'\x00\x00\x00\x00\x00\x00\x10\xc0'
p722
tp723
Rp724
g3
(g7
S'\x9a\x99\x99\x99\x99\x99\x01@'
p725
tp726
Rp727
g3
(g7
S'ffffff\xe6?'
p728
tp729
Rp730
tp731
F1.0
ssS'(-3.9, 4.1, 0.7), (-3.9, 4.2, 0.7), (-3.8, 4.2, 0.7)'
p732
(dp733
(g3
(g7
S'ffffff\x0e\xc0'
p734
tp735
Rp736
g3
(g7
S'333333\x11@'
p737
tp738
Rp739
g3
(g7
S'ffffff\xe6?'
p740
tp741
Rp742
tp743
F1.0
ssS'(-4.0, 1.7, 0.7), (-4.0, 1.8, 0.7), (-4.0, 1.9, 0.7)'
p744
(dp745
(g3
(g7
S'\x00\x00\x00\x00\x00\x00\x10\xc0'
p746
tp747
Rp748
g3
(g7
S'\x00\x00\x00\x00\x00\x00\x00@'
p749
tp750
Rp751
g3
(g7
S'ffffff\xe6?'
p752
tp753
Rp754
tp755
F1.0
ssS'(-3.7, 6.5, 0.7), (-3.6, 6.5, 0.7), (-3.6, 6.6, 0.7)'
p756
(dp757
(g3
(g7
S'\xcd\xcc\xcc\xcc\xcc\xcc\x0c\xc0'
p758
tp759
Rp760
g3
(g7
S'\xcd\xcc\xcc\xcc\xcc\xcc\x1a@'
p761
tp762
Rp763
g3
(g7
S'ffffff\xe6?'
p764
tp765
Rp766
tp767
F1.0
ssS'(-4.0, 3.4, 0.7), (-4.0, 3.5, 0.7), (-4.0, 3.6, 0.7)'
p768
(dp769
(g3
(g7
S'\x00\x00\x00\x00\x00\x00\x10\xc0'
p770
tp771
Rp772
g3
(g7
S'\x9a\x99\x99\x99\x99\x99\r@'
p773
tp774
Rp775
g3
(g7
S'ffffff\xe6?'
p776
tp777
Rp778
tp779
F1.0
ssS'(-1.6, 0.0, 1.0), (-1.7, 0.0, 1.0), (-1.8, 0.0, 1.0)'
p780
(dp781
(g3
(g7
S'ffffff\xfe\xbf'
p782
tp783
Rp784
g3
(g7
S'\x00\x00\x00\x00\x00\x00\x00\x00'
p785
tp786
Rp787
g3
(g7
S'\x00\x00\x00\x00\x00\x00\xf0?'
p788
tp789
Rp790
tp791
F1.0
ssS'(-3.8, 5.2, 0.7), (-3.8, 5.3, 0.7), (-3.7, 5.3, 0.7)'
p792
(dp793
(g3
(g7
S'\x9a\x99\x99\x99\x99\x99\r\xc0'
p794
tp795
Rp796
g3
(g7
S'\x9a\x99\x99\x99\x99\x99\x15@'
p797
tp798
Rp799
g3
(g7
S'ffffff\xe6?'
p800
tp801
Rp802
tp803
F1.0
ssS'(-3.5, 7.9, 0.8), (-3.5, 8.0, 0.8), (-3.4, 8.0, 0.8)'
p804
(dp805
(g3
(g7
S'333333\x0b\xc0'
p806
tp807
Rp808
g3
(g7
S'333333 @'
p809
tp810
Rp811
g3
(g7
S'\x9a\x99\x99\x99\x99\x99\xe9?'
p812
tp813
Rp814
tp815
F1.0
ssS'(-4.0, 0.4, 0.7), (-4.0, 0.5, 0.7), (-4.0, 0.6, 0.7)'
p816
(dp817
(g3
(g7
S'\x00\x00\x00\x00\x00\x00\x10\xc0'
p818
tp819
Rp820
g3
(g7
S'ffffff\xe6?'
p821
tp822
Rp823
g3
(g7
S'ffffff\xe6?'
p824
tp825
Rp826
tp827
F1.0
ssS'(-3.5, 7.3, 0.8), (-3.5, 7.4, 0.8), (-3.5, 7.5, 0.8)'
p828
(dp829
(g3
(g7
S'\x00\x00\x00\x00\x00\x00\x0c\xc0'
p830
tp831
Rp832
g3
(g7
S'ffffff\x1e@'
p833
tp834
Rp835
g3
(g7
S'\x9a\x99\x99\x99\x99\x99\xe9?'
p836
tp837
Rp838
tp839
F1.0
ssS'(-3.6, 0.0, 1.0), (-3.7, 0.0, 1.0), (-3.7, -0.1, 1.0)'
p840
(dp841
(g3
(g7
S'ffffff\x0e\xc0'
p842
tp843
Rp844
g3
(g7
S'\x9a\x99\x99\x99\x99\x99\xb9\xbf'
p845
tp846
Rp847
g3
(g7
S'\x00\x00\x00\x00\x00\x00\xf0?'
p848
tp849
Rp850
tp851
F1.0
ssS'(-3.9, 4.4, 0.7), (-3.8, 4.4, 0.7), (-3.8, 4.5, 0.7)'
p852
(dp853
(g3
(g7
S'ffffff\x0e\xc0'
p854
tp855
Rp856
g3
(g7
S'ffffff\x12@'
p857
tp858
Rp859
g3
(g7
S'ffffff\xe6?'
p860
tp861
Rp862
tp863
F1.0
ssS'(-3.8, 6.1, 0.7), (-3.7, 6.1, 0.7), (-3.7, 6.2, 0.7)'
p864
(dp865
(g3
(g7
S'\x9a\x99\x99\x99\x99\x99\r\xc0'
p866
tp867
Rp868
g3
(g7
S'333333\x19@'
p869
tp870
Rp871
g3
(g7
S'ffffff\xe6?'
p872
tp873
Rp874
tp875
F1.0
ssS'(-3.7, 6.8, 0.7), (-3.7, 6.9, 0.7), (-3.6, 6.9, 0.7)'
p876
(dp877
(g3
(g7
S'\xcd\xcc\xcc\xcc\xcc\xcc\x0c\xc0'
p878
tp879
Rp880
g3
(g7
S'\x00\x00\x00\x00\x00\x00\x1c@'
p881
tp882
Rp883
g3
(g7
S'ffffff\xe6?'
p884
tp885
Rp886
tp887
F1.0
ssS'(-3.9, -0.1, 0.8), (-3.9, -0.1, 0.7), (-3.9, 0.0, 0.7)'
p888
(dp889
(g3
(g7
S'333333\x0f\xc0'
p890
tp891
Rp892
g3
(g7
S'\x9a\x99\x99\x99\x99\x99\xb9?'
p893
tp894
Rp895
g3
(g7
S'ffffff\xe6?'
p896
tp897
Rp898
tp899
F1.0
ssS'(-4.0, 0.9, 0.7), (-4.0, 1.0, 0.7), (-4.0, 1.1, 0.7)'
p900
(dp901
(g3
(g7
S'\x00\x00\x00\x00\x00\x00\x10\xc0'
p902
tp903
Rp904
g3
(g7
S'333333\xf3?'
p905
tp906
Rp907
g3
(g7
S'ffffff\xe6?'
p908
tp909
Rp910
tp911
F1.0
ssS'(-2.4, 0.0, 1.0), (-2.5, 0.0, 1.0), (-2.6, 0.0, 1.0)'
p912
(dp913
(g3
(g7
S'\x9a\x99\x99\x99\x99\x99\x05\xc0'
p914
tp915
Rp916
g3
(g7
S'\x00\x00\x00\x00\x00\x00\x00\x00'
p917
tp918
Rp919
g3
(g7
S'\x00\x00\x00\x00\x00\x00\xf0?'
p920
tp921
Rp922
tp923
F1.0
ssS'(-4.0, 1.3, 0.7), (-4.0, 1.4, 0.7), (-4.0, 1.5, 0.7)'
p924
(dp925
(g3
(g7
S'\x00\x00\x00\x00\x00\x00\x10\xc0'
p926
tp927
Rp928
g3
(g7
S'\x9a\x99\x99\x99\x99\x99\xf9?'
p929
tp930
Rp931
g3
(g7
S'ffffff\xe6?'
p932
tp933
Rp934
tp935
F1.0
ssS'(-3.8, 4.6, 0.7), (-3.8, 4.7, 0.7), (-3.8, 4.8, 0.7)'
p936
(dp937
(g3
(g7
S'ffffff\x0e\xc0'
p938
tp939
Rp940
g3
(g7
S'\x9a\x99\x99\x99\x99\x99\x13@'
p941
tp942
Rp943
g3
(g7
S'ffffff\xe6?'
p944
tp945
Rp946
tp947
F1.0
ssS'(-4.0, 1.9, 0.7), (-4.0, 2.0, 0.7), (-3.9, 2.0, 0.7)'
p948
(dp949
(g3
(g7
S'333333\x0f\xc0'
p950
tp951
Rp952
g3
(g7
S'\xcd\xcc\xcc\xcc\xcc\xcc\x00@'
p953
tp954
Rp955
g3
(g7
S'ffffff\xe6?'
p956
tp957
Rp958
tp959
F1.0
ssS'(-3.8, 5.3, 0.7), (-3.8, 5.4, 0.7), (-3.8, 5.5, 0.7)'
p960
(dp961
(g3
(g7
S'ffffff\x0e\xc0'
p962
tp963
Rp964
g3
(g7
S'ffffff\x16@'
p965
tp966
Rp967
g3
(g7
S'ffffff\xe6?'
p968
tp969
Rp970
tp971
F0.8333333333333334
s(g3
(g7
S'\x9a\x99\x99\x99\x99\x99\r\xc0'
p972
tp973
Rp974
g3
(g7
S'\x00\x00\x00\x00\x00\x00\x16@'
p975
tp976
Rp977
g3
(g7
S'ffffff\xe6?'
p978
tp979
Rp980
tp981
F0.16666666666666666
ssS'(-3.9, 1.7, 0.7), (-3.9, 1.8, 0.7), (-3.9, 1.9, 0.7)'
p982
(dp983
(g3
(g7
S'333333\x0f\xc0'
p984
tp985
Rp986
g3
(g7
S'\x00\x00\x00\x00\x00\x00\x00@'
p987
tp988
Rp989
g3
(g7
S'ffffff\xe6?'
p990
tp991
Rp992
tp993
F1.0
ssS'(-4.0, 2.0, 0.7), (-3.9, 2.0, 0.7), (-3.9, 2.1, 0.7)'
p994
(dp995
(g3
(g7
S'333333\x0f\xc0'
p996
tp997
Rp998
g3
(g7
S'\x9a\x99\x99\x99\x99\x99\x01@'
p999
tp1000
Rp1001
g3
(g7
S'ffffff\xe6?'
p1002
tp1003
Rp1004
tp1005
F1.0
ssS'(-4.0, 1.6, 0.7), (-3.9, 1.6, 0.7), (-3.9, 1.7, 0.7)'
p1006
(dp1007
(g3
(g7
S'333333\x0f\xc0'
p1008
tp1009
Rp1010
g3
(g7
S'\xcd\xcc\xcc\xcc\xcc\xcc\xfc?'
p1011
tp1012
Rp1013
g3
(g7
S'ffffff\xe6?'
p1014
tp1015
Rp1016
tp1017
F1.0
ssS'(-3.9, 1.1, 0.7), (-4.0, 1.1, 0.7), (-4.0, 1.2, 0.7)'
p1018
(dp1019
(g3
(g7
S'\x00\x00\x00\x00\x00\x00\x10\xc0'
p1020
tp1021
Rp1022
g3
(g7
S'\xcd\xcc\xcc\xcc\xcc\xcc\xf4?'
p1023
tp1024
Rp1025
g3
(g7
S'ffffff\xe6?'
p1026
tp1027
Rp1028
tp1029
F1.0
ssS'(-3.5, 7.7, 0.8), (-3.5, 7.8, 0.8), (-3.5, 7.9, 0.8)'
p1030
(dp1031
(g3
(g7
S'\x00\x00\x00\x00\x00\x00\x0c\xc0'
p1032
tp1033
Rp1034
g3
(g7
S'\x00\x00\x00\x00\x00\x00 @'
p1035
tp1036
Rp1037
g3
(g7
S'\x9a\x99\x99\x99\x99\x99\xe9?'
p1038
tp1039
Rp1040
tp1041
F0.8
s(g3
(g7
S'333333\x0b\xc0'
p1042
tp1043
Rp1044
g3
(g7
S'\x9a\x99\x99\x99\x99\x99\x1f@'
p1045
tp1046
Rp1047
g3
(g7
S'\x9a\x99\x99\x99\x99\x99\xe9?'
p1048
tp1049
Rp1050
tp1051
F0.2
ssS'(-3.6, 6.7, 0.7), (-3.6, 6.7, 0.8), (-3.6, 6.8, 0.8)'
p1052
(dp1053
(g3
(g7
S'\xcd\xcc\xcc\xcc\xcc\xcc\x0c\xc0'
p1054
tp1055
Rp1056
g3
(g7
S'\x9a\x99\x99\x99\x99\x99\x1b@'
p1057
tp1058
Rp1059
g3
(g7
S'\x9a\x99\x99\x99\x99\x99\xe9?'
p1060
tp1061
Rp1062
tp1063
F1.0
ssS'(-4.0, 4.2, 0.7), (-4.0, 4.3, 0.7), (-3.9, 4.3, 0.7)'
p1064
(dp1065
(g3
(g7
S'333333\x0f\xc0'
p1066
tp1067
Rp1068
g3
(g7
S'\x9a\x99\x99\x99\x99\x99\x11@'
p1069
tp1070
Rp1071
g3
(g7
S'ffffff\xe6?'
p1072
tp1073
Rp1074
tp1075
F1.0
ssS'(-3.5, 7.1, 0.8), (-3.5, 7.2, 0.8), (-3.5, 7.3, 0.8)'
p1076
(dp1077
(g3
(g7
S'\x00\x00\x00\x00\x00\x00\x0c\xc0'
p1078
tp1079
Rp1080
g3
(g7
S'\x9a\x99\x99\x99\x99\x99\x1d@'
p1081
tp1082
Rp1083
g3
(g7
S'\x9a\x99\x99\x99\x99\x99\xe9?'
p1084
tp1085
Rp1086
tp1087
F1.0
ssS'(-4.0, -0.1, 0.9), (-4.0, -0.1, 0.8), (-4.0, -0.1, 0.7)'
p1088
(dp1089
(g3
(g7
S'\x00\x00\x00\x00\x00\x00\x10\xc0'
p1090
tp1091
Rp1092
g3
(g7
S'\x00\x00\x00\x00\x00\x00\x00\x00'
p1093
tp1094
Rp1095
g3
(g7
S'ffffff\xe6?'
p1096
tp1097
Rp1098
tp1099
F1.0
ssS'(-3.7, 5.8, 0.7), (-3.7, 5.9, 0.7), (-3.7, 6.0, 0.7)'
p1100
(dp1101
(g3
(g7
S'\x9a\x99\x99\x99\x99\x99\r\xc0'
p1102
tp1103
Rp1104
g3
(g7
S'ffffff\x18@'
p1105
tp1106
Rp1107
g3
(g7
S'ffffff\xe6?'
p1108
tp1109
Rp1110
tp1111
F1.0
ssS'(-3.4, 8.3, 0.8), (-3.4, 8.4, 0.8), (-3.3, 8.4, 0.8)'
p1112
(dp1113
(g3
(g7
S'\x9a\x99\x99\x99\x99\x99\xb9\xbf'
p1114
tp1115
Rp1116
g3
(g7
S'\x00\x00\x00\x00\x00\x00\x00\x00'
p1117
tp1118
Rp1119
g3
(g7
S'\x00\x00\x00\x00\x00\x00\xf0?'
p1120
tp1121
Rp1122
tp1123
F1.0
ssS'(-0.2, 0.0, 1.0), (-0.3, 0.0, 1.0), (-0.4, 0.0, 1.0)'
p1124
(dp1125
(g3
(g7
S'\x00\x00\x00\x00\x00\x00\xe0\xbf'
p1126
tp1127
Rp1128
g3
(g7
S'\x00\x00\x00\x00\x00\x00\x00\x00'
p1129
tp1130
Rp1131
g3
(g7
S'\x00\x00\x00\x00\x00\x00\xf0?'
p1132
tp1133
Rp1134
tp1135
F1.0
ssS'(-3.6, 6.6, 0.7), (-3.6, 6.6, 0.8), (-3.6, 6.7, 0.8)'
p1136
(dp1137
(g3
(g7
S'\xcd\xcc\xcc\xcc\xcc\xcc\x0c\xc0'
p1138
tp1139
Rp1140
g3
(g7
S'333333\x1b@'
p1141
tp1142
Rp1143
g3
(g7
S'\x9a\x99\x99\x99\x99\x99\xe9?'
p1144
tp1145
Rp1146
tp1147
F1.0
ssS'(-4.0, 0.6, 0.7), (-4.0, 0.7, 0.7), (-4.0, 0.8, 0.7)'
p1148
(dp1149
(g3
(g7
S'\x00\x00\x00\x00\x00\x00\x10\xc0'
p1150
tp1151
Rp1152
g3
(g7
S'\xcd\xcc\xcc\xcc\xcc\xcc\xec?'
p1153
tp1154
Rp1155
g3
(g7
S'ffffff\xe6?'
p1156
tp1157
Rp1158
tp1159
F1.0
ssS'(-3.9, 2.5, 0.7), (-3.9, 2.6, 0.7), (-3.9, 2.7, 0.7)'
p1160
(dp1161
(g3
(g7
S'333333\x0f\xc0'
p1162
tp1163
Rp1164
g3
(g7
S'ffffff\x06@'
p1165
tp1166
Rp1167
g3
(g7
S'ffffff\xe6?'
p1168
tp1169
Rp1170
tp1171
F1.0
ssS'(-3.8, 5.7, 0.7), (-3.8, 5.8, 0.7), (-3.8, 5.9, 0.7)'
p1172
(dp1173
(g3
(g7
S'ffffff\x0e\xc0'
p1174
tp1175
Rp1176
g3
(g7
S'\x00\x00\x00\x00\x00\x00\x18@'
p1177
tp1178
Rp1179
g3
(g7
S'ffffff\xe6?'
p1180
tp1181
Rp1182
tp1183
F1.0
ssS'(-1.3, 0.0, 1.0), (-1.4, 0.0, 1.0), (-1.5, 0.0, 1.0)'
p1184
(dp1185
(g3
(g7
S'\x9a\x99\x99\x99\x99\x99\xf9\xbf'
p1186
tp1187
Rp1188
g3
(g7
S'\x00\x00\x00\x00\x00\x00\x00\x00'
p1189
tp1190
Rp1191
g3
(g7
S'\x00\x00\x00\x00\x00\x00\xf0?'
p1192
tp1193
Rp1194
tp1195
F1.0
ssS'(-3.8, 6.2, 0.7), (-3.8, 6.3, 0.7), (-3.8, 6.4, 0.7)'
p1196
(dp1197
(g3
(g7
S'\x9a\x99\x99\x99\x99\x99\r\xc0'
p1198
tp1199
Rp1200
g3
(g7
S'\x9a\x99\x99\x99\x99\x99\x19@'
p1201
tp1202
Rp1203
g3
(g7
S'ffffff\xe6?'
p1204
tp1205
Rp1206
tp1207
F0.5
s(g3
(g7
S'ffffff\x0e\xc0'
p1208
tp1209
Rp1210
g3
(g7
S'\x00\x00\x00\x00\x00\x00\x1a@'
p1211
tp1212
Rp1213
g3
(g7
S'ffffff\xe6?'
p1214
tp1215
Rp1216
tp1217
F0.5
ssS'(-3.6, 7.1, 0.8), (-3.6, 7.2, 0.8), (-3.6, 7.3, 0.8)'
p1218
(dp1219
(g3
(g7
S'\xcd\xcc\xcc\xcc\xcc\xcc\x0c\xc0'
p1220
tp1221
Rp1222
g3
(g7
S'\x9a\x99\x99\x99\x99\x99\x1d@'
p1223
tp1224
Rp1225
g3
(g7
S'\x9a\x99\x99\x99\x99\x99\xe9?'
p1226
tp1227
Rp1228
tp1229
F0.6666666666666666
s(g3
(g7
S'\x00\x00\x00\x00\x00\x00\x0c\xc0'
p1230
tp1231
Rp1232
g3
(g7
S'333333\x1d@'
p1233
tp1234
Rp1235
g3
(g7
S'\x9a\x99\x99\x99\x99\x99\xe9?'
p1236
tp1237
Rp1238
tp1239
F0.3333333333333333
ssS'(-4.0, 2.7, 0.7), (-4.0, 2.8, 0.7), (-4.0, 2.9, 0.7)'
p1240
(dp1241
(g3
(g7
S'\x00\x00\x00\x00\x00\x00\x10\xc0'
p1242
tp1243
Rp1244
g3
(g7
S'\x00\x00\x00\x00\x00\x00\x08@'
p1245
tp1246
Rp1247
g3
(g7
S'ffffff\xe6?'
p1248
tp1249
Rp1250
tp1251
F0.6666666666666666
s(g3
(g7
S'333333\x0f\xc0'
p1252
tp1253
Rp1254
g3
(g7
S'333333\x07@'
p1255
tp1256
Rp1257
g3
(g7
S'ffffff\xe6?'
p1258
tp1259
Rp1260
tp1261
F0.3333333333333333
ssS'(-3.7, 7.0, 0.8), (-3.7, 7.1, 0.8), (-3.7, 7.2, 0.8)'
p1262
(dp1263
(g3
(g7
S'\x9a\x99\x99\x99\x99\x99\r\xc0'
p1264
tp1265
Rp1266
g3
(g7
S'333333\x1d@'
p1267
tp1268
Rp1269
g3
(g7
S'\x9a\x99\x99\x99\x99\x99\xe9?'
p1270
tp1271
Rp1272
tp1273
F1.0
ssS'(-4.1, 1.8, 0.7), (-4.1, 1.9, 0.7), (-4.1, 2.0, 0.7)'
p1274
(dp1275
(g3
(g7
S'ffffff\x10\xc0'
p1276
tp1277
Rp1278
g3
(g7
S'\xcd\xcc\xcc\xcc\xcc\xcc\x00@'
p1279
tp1280
Rp1281
g3
(g7
S'ffffff\xe6?'
p1282
tp1283
Rp1284
tp1285
F1.0
ssS'(-3.9, 3.0, 0.7), (-3.9, 3.1, 0.7), (-3.9, 3.2, 0.7)'
p1286
(dp1287
(g3
(g7
S'333333\x0f\xc0'
p1288
tp1289
Rp1290
g3
(g7
S'ffffff\n@'
p1291
tp1292
Rp1293
g3
(g7
S'ffffff\xe6?'
p1294
tp1295
Rp1296
tp1297
F1.0
ssS'(-4.1, 1.6, 0.7), (-4.1, 1.7, 0.7), (-4.1, 1.8, 0.7)'
p1298
(dp1299
(g3
(g7
S'ffffff\x10\xc0'
p1300
tp1301
Rp1302
g3
(g7
S'ffffff\xfe?'
p1303
tp1304
Rp1305
g3
(g7
S'ffffff\xe6?'
p1306
tp1307
Rp1308
tp1309
F1.0
ssS'(-3.7, 5.7, 0.7), (-3.7, 5.8, 0.7), (-3.7, 5.9, 0.7)'
p1310
(dp1311
(g3
(g7
S'\x9a\x99\x99\x99\x99\x99\r\xc0'
p1312
tp1313
Rp1314
g3
(g7
S'\x00\x00\x00\x00\x00\x00\x18@'
p1315
tp1316
Rp1317
g3
(g7
S'ffffff\xe6?'
p1318
tp1319
Rp1320
tp1321
F1.0
ssS'(-3.9, 4.8, 0.7), (-3.9, 4.9, 0.7), (-3.9, 5.0, 0.7)'
p1322
(dp1323
(g3
(g7
S'ffffff\x0e\xc0'
p1324
tp1325
Rp1326
g3
(g7
S'\x00\x00\x00\x00\x00\x00\x14@'
p1327
tp1328
Rp1329
g3
(g7
S'ffffff\xe6?'
p1330
tp1331
Rp1332
tp1333
F0.3333333333333333
s(g3
(g7
S'333333\x0f\xc0'
p1334
tp1335
Rp1336
g3
(g7
S'ffffff\x14@'
p1337
tp1338
Rp1339
g3
(g7
S'ffffff\xe6?'
p1340
tp1341
Rp1342
tp1343
F0.6666666666666666
ssS'(-3.5, 8.1, 0.8), (-3.5, 8.2, 0.8), (-3.5, 8.3, 0.8)'
p1344
(dp1345
(g3
(g7
S'333333\x0b\xc0'
p1346
tp1347
Rp1348
g3
(g7
S'\x9a\x99\x99\x99\x99\x99 @'
p1349
tp1350
Rp1351
g3
(g7
S'\x9a\x99\x99\x99\x99\x99\xe9?'
p1352
tp1353
Rp1354
tp1355
F0.25
s(g3
(g7
S'\x00\x00\x00\x00\x00\x00\x0c\xc0'
p1356
tp1357
Rp1358
g3
(g7
S'\xcd\xcc\xcc\xcc\xcc\xcc @'
p1359
tp1360
Rp1361
g3
(g7
S'\x9a\x99\x99\x99\x99\x99\xe9?'
p1362
tp1363
Rp1364
tp1365
F0.75
ssS'(-3.5, 7.8, 0.8), (-3.4, 7.8, 0.8), (-3.4, 7.9, 0.8)'
p1366
(dp1367
(g3
(g7
S'333333\x0b\xc0'
p1368
tp1369
Rp1370
g3
(g7
S'\x00\x00\x00\x00\x00\x00 @'
p1371
tp1372
Rp1373
g3
(g7
S'\x9a\x99\x99\x99\x99\x99\xe9?'
p1374
tp1375
Rp1376
tp1377
F1.0
ssS'(-4.1, 1.7, 0.7), (-4.1, 1.8, 0.7), (-4.1, 1.9, 0.7)'
p1378
(dp1379
(g3
(g7
S'ffffff\x10\xc0'
p1380
tp1381
Rp1382
g3
(g7
S'\x00\x00\x00\x00\x00\x00\x00@'
p1383
tp1384
Rp1385
g3
(g7
S'ffffff\xe6?'
p1386
tp1387
Rp1388
tp1389
F1.0
ssS'(-3.8, 6.3, 0.7), (-3.8, 6.4, 0.7), (-3.8, 6.5, 0.7)'
p1390
(dp1391
(g3
(g7
S'ffffff\x0e\xc0'
p1392
tp1393
Rp1394
g3
(g7
S'ffffff\x1a@'
p1395
tp1396
Rp1397
g3
(g7
S'ffffff\xe6?'
p1398
tp1399
Rp1400
tp1401
F1.0
ssS'(-3.8, 5.7, 0.7), (-3.7, 5.7, 0.7), (-3.7, 5.8, 0.7)'
p1402
(dp1403
(g3
(g7
S'\x9a\x99\x99\x99\x99\x99\r\xc0'
p1404
tp1405
Rp1406
g3
(g7
S'\x9a\x99\x99\x99\x99\x99\x17@'
p1407
tp1408
Rp1409
g3
(g7
S'ffffff\xe6?'
p1410
tp1411
Rp1412
tp1413
F1.0
ssS'(-4.0, 1.0, 0.7), (-4.0, 1.1, 0.7), (-4.0, 1.2, 0.7)'
p1414
(dp1415
(g3
(g7
S'\x00\x00\x00\x00\x00\x00\x10\xc0'
p1416
tp1417
Rp1418
g3
(g7
S'\xcd\xcc\xcc\xcc\xcc\xcc\xf4?'
p1419
tp1420
Rp1421
g3
(g7
S'ffffff\xe6?'
p1422
tp1423
Rp1424
tp1425
F1.0
ssS'(-0.5, 0.0, 1.0), (-0.6, 0.0, 1.0), (-0.7, 0.0, 1.0)'
p1426
(dp1427
(g3
(g7
S'\x9a\x99\x99\x99\x99\x99\xe9\xbf'
p1428
tp1429
Rp1430
g3
(g7
S'\x00\x00\x00\x00\x00\x00\x00\x00'
p1431
tp1432
Rp1433
g3
(g7
S'\x00\x00\x00\x00\x00\x00\xf0?'
p1434
tp1435
Rp1436
tp1437
F1.0
ssS'(-4.0, 2.4, 0.7), (-4.0, 2.5, 0.7), (-4.0, 2.6, 0.7)'
p1438
(dp1439
(g3
(g7
S'\x00\x00\x00\x00\x00\x00\x10\xc0'
p1440
tp1441
Rp1442
g3
(g7
S'\x9a\x99\x99\x99\x99\x99\x05@'
p1443
tp1444
Rp1445
g3
(g7
S'ffffff\xe6?'
p1446
tp1447
Rp1448
tp1449
F1.0
ssS'(-3.9, 0.8, 0.7), (-3.9, 0.9, 0.7), (-3.9, 1.0, 0.7)'
p1450
(dp1451
(g3
(g7
S'333333\x0f\xc0'
p1452
tp1453
Rp1454
g3
(g7
S'\x9a\x99\x99\x99\x99\x99\xf1?'
p1455
tp1456
Rp1457
g3
(g7
S'ffffff\xe6?'
p1458
tp1459
Rp1460
tp1461
F0.7777777777777778
s(g3
(g7
S'\x00\x00\x00\x00\x00\x00\x10\xc0'
p1462
tp1463
Rp1464
g3
(g7
S'\x00\x00\x00\x00\x00\x00\xf0?'
p1465
tp1466
Rp1467
g3
(g7
S'ffffff\xe6?'
p1468
tp1469
Rp1470
tp1471
F0.2222222222222222
ssS'(-3.6, 6.7, 0.8), (-3.6, 6.8, 0.8), (-3.6, 6.9, 0.8)'
p1472
(dp1473
(g3
(g7
S'\xcd\xcc\xcc\xcc\xcc\xcc\x0c\xc0'
p1474
tp1475
Rp1476
g3
(g7
S'\x00\x00\x00\x00\x00\x00\x1c@'
p1477
tp1478
Rp1479
g3
(g7
S'\x9a\x99\x99\x99\x99\x99\xe9?'
p1480
tp1481
Rp1482
tp1483
F0.9
s(g3
(g7
S'\x00\x00\x00\x00\x00\x00\x0c\xc0'
p1484
tp1485
Rp1486
g3
(g7
S'\x9a\x99\x99\x99\x99\x99\x1b@'
p1487
tp1488
Rp1489
g3
(g7
S'\x9a\x99\x99\x99\x99\x99\xe9?'
p1490
tp1491
Rp1492
tp1493
F0.1
ssS'(-4.0, 1.6, 0.7), (-4.0, 1.7, 0.7), (-4.0, 1.8, 0.7)'
p1494
(dp1495
(g3
(g7
S'\x00\x00\x00\x00\x00\x00\x10\xc0'
p1496
tp1497
Rp1498
g3
(g7
S'ffffff\xfe?'
p1499
tp1500
Rp1501
g3
(g7
S'ffffff\xe6?'
p1502
tp1503
Rp1504
tp1505
F1.0
ssS'(-3.5, 0.0, 1.0), (-3.6, 0.0, 1.0), (-3.7, 0.0, 1.0)'
p1506
(dp1507
(g3
(g7
S'\x9a\x99\x99\x99\x99\x99\r\xc0'
p1508
tp1509
Rp1510
g3
(g7
S'\x9a\x99\x99\x99\x99\x99\xb9\xbf'
p1511
tp1512
Rp1513
g3
(g7
S'\x00\x00\x00\x00\x00\x00\xf0?'
p1514
tp1515
Rp1516
tp1517
F0.42857142857142855
s(g3
(g7
S'ffffff\x0e\xc0'
p1518
tp1519
Rp1520
g3
(g7
S'\x00\x00\x00\x00\x00\x00\x00\x00'
p1521
tp1522
Rp1523
g3
(g7
S'\x00\x00\x00\x00\x00\x00\xf0?'
p1524
tp1525
Rp1526
tp1527
F0.5714285714285714
ssS'(-3.7, 7.2, 0.8), (-3.7, 7.3, 0.8), (-3.7, 7.4, 0.8)'
p1528
(dp1529
(g3
(g7
S'\xcd\xcc\xcc\xcc\xcc\xcc\x0c\xc0'
p1530
tp1531
Rp1532
g3
(g7
S'\x9a\x99\x99\x99\x99\x99\x1d@'
p1533
tp1534
Rp1535
g3
(g7
S'\x9a\x99\x99\x99\x99\x99\xe9?'
p1536
tp1537
Rp1538
tp1539
F1.0
ssS'(-3.7, 6.1, 0.7), (-3.7, 6.2, 0.7), (-3.7, 6.3, 0.7)'
p1540
(dp1541
(g3
(g7
S'\x9a\x99\x99\x99\x99\x99\r\xc0'
p1542
tp1543
Rp1544
g3
(g7
S'\x9a\x99\x99\x99\x99\x99\x19@'
p1545
tp1546
Rp1547
g3
(g7
S'ffffff\xe6?'
p1548
tp1549
Rp1550
tp1551
F0.6
s(g3
(g7
S'\xcd\xcc\xcc\xcc\xcc\xcc\x0c\xc0'
p1552
tp1553
Rp1554
g3
(g7
S'333333\x19@'
p1555
tp1556
Rp1557
g3
(g7
S'ffffff\xe6?'
p1558
tp1559
Rp1560
tp1561
F0.4
ssS'(-3.9, 1.0, 0.7), (-3.9, 1.1, 0.7), (-3.9, 1.2, 0.7)'
p1562
(dp1563
(g3
(g7
S'333333\x0f\xc0'
p1564
tp1565
Rp1566
g3
(g7
S'\xcd\xcc\xcc\xcc\xcc\xcc\xf4?'
p1567
tp1568
Rp1569
g3
(g7
S'ffffff\xe6?'
p1570
tp1571
Rp1572
tp1573
F0.8333333333333334
s(g3
(g7
S'\x00\x00\x00\x00\x00\x00\x10\xc0'
p1574
tp1575
Rp1576
g3
(g7
S'333333\xf3?'
p1577
tp1578
Rp1579
g3
(g7
S'ffffff\xe6?'
p1580
tp1581
Rp1582
tp1583
F0.16666666666666666
ssS'(-3.9, 3.9, 0.7), (-3.9, 4.0, 0.7), (-3.9, 4.1, 0.7)'
p1584
(dp1585
(g3
(g7
S'ffffff\x0e\xc0'
p1586
tp1587
Rp1588
g3
(g7
S'ffffff\x10@'
p1589
tp1590
Rp1591
g3
(g7
S'ffffff\xe6?'
p1592
tp1593
Rp1594
tp1595
F0.16666666666666666
s(g3
(g7
S'333333\x0f\xc0'
p1596
tp1597
Rp1598
g3
(g7
S'\xcd\xcc\xcc\xcc\xcc\xcc\x10@'
p1599
tp1600
Rp1601
g3
(g7
S'ffffff\xe6?'
p1602
tp1603
Rp1604
tp1605
F0.8333333333333334
ssS'(-3.6, 7.0, 0.8), (-3.6, 7.1, 0.8), (-3.5, 7.1, 0.8)'
p1606
(dp1607
(g3
(g7
S'\x00\x00\x00\x00\x00\x00\x0c\xc0'
p1608
tp1609
Rp1610
g3
(g7
S'\xcd\xcc\xcc\xcc\xcc\xcc\x1c@'
p1611
tp1612
Rp1613
g3
(g7
S'\x9a\x99\x99\x99\x99\x99\xe9?'
p1614
tp1615
Rp1616
tp1617
F1.0
ssS'(-3.9, 1.1, 0.7), (-3.9, 1.2, 0.7), (-4.0, 1.2, 0.7)'
p1618
(dp1619
(g3
(g7
S'\x00\x00\x00\x00\x00\x00\x10\xc0'
p1620
tp1621
Rp1622
g3
(g7
S'\xcd\xcc\xcc\xcc\xcc\xcc\xf4?'
p1623
tp1624
Rp1625
g3
(g7
S'ffffff\xe6?'
p1626
tp1627
Rp1628
tp1629
F1.0
ssS'(-3.3, 0.0, 1.0), (-3.3, -0.1, 1.0), (-3.4, -0.1, 1.0)'
p1630
(dp1631
(g3
(g7
S'\x00\x00\x00\x00\x00\x00\x0c\xc0'
p1632
tp1633
Rp1634
g3
(g7
S'\x9a\x99\x99\x99\x99\x99\xb9\xbf'
p1635
tp1636
Rp1637
g3
(g7
S'\x00\x00\x00\x00\x00\x00\xf0?'
p1638
tp1639
Rp1640
tp1641
F1.0
ssS'(-0.3, 0.0, 1.0), (-0.4, 0.0, 1.0), (-0.5, 0.0, 1.0)'
p1642
(dp1643
(g3
(g7
S'333333\xe3\xbf'
p1644
tp1645
Rp1646
g3
(g7
S'\x00\x00\x00\x00\x00\x00\x00\x00'
p1647
tp1648
Rp1649
g3
(g7
S'\x00\x00\x00\x00\x00\x00\xf0?'
p1650
tp1651
Rp1652
tp1653
F1.0
ssS'(-3.6, 6.5, 0.7), (-3.6, 6.6, 0.7), (-3.6, 6.6, 0.8)'
p1654
(dp1655
(g3
(g7
S'\xcd\xcc\xcc\xcc\xcc\xcc\x0c\xc0'
p1656
tp1657
Rp1658
g3
(g7
S'\xcd\xcc\xcc\xcc\xcc\xcc\x1a@'
p1659
tp1660
Rp1661
g3
(g7
S'\x9a\x99\x99\x99\x99\x99\xe9?'
p1662
tp1663
Rp1664
tp1665
F1.0
ssS'(-3.3, 0.0, 1.0), (-3.4, 0.0, 1.0), (-3.5, 0.0, 1.0)'
p1666
(dp1667
(g3
(g7
S'\x00\x00\x00\x00\x00\x00\x0c\xc0'
p1668
tp1669
Rp1670
g3
(g7
S'\x9a\x99\x99\x99\x99\x99\xb9\xbf'
p1671
tp1672
Rp1673
g3
(g7
S'\x00\x00\x00\x00\x00\x00\xf0?'
p1674
tp1675
Rp1676
tp1677
F0.1111111111111111
s(g3
(g7
S'\xcd\xcc\xcc\xcc\xcc\xcc\x0c\xc0'
p1678
tp1679
Rp1680
g3
(g7
S'\x00\x00\x00\x00\x00\x00\x00\x00'
p1681
tp1682
Rp1683
g3
(g7
S'\x00\x00\x00\x00\x00\x00\xf0?'
p1684
tp1685
Rp1686
tp1687
F0.8888888888888888
ssS'(-1.8, 0.0, 1.0), (-1.9, 0.0, 1.0), (-2.0, 0.0, 1.0)'
p1688
(dp1689
(g3
(g7
S'\xcd\xcc\xcc\xcc\xcc\xcc\x00\xc0'
p1690
tp1691
Rp1692
g3
(g7
S'\x00\x00\x00\x00\x00\x00\x00\x00'
p1693
tp1694
Rp1695
g3
(g7
S'\x00\x00\x00\x00\x00\x00\xf0?'
p1696
tp1697
Rp1698
tp1699
F1.0
ssS'(-3.5, 7.7, 0.8), (-3.4, 7.7, 0.8), (-3.4, 7.8, 0.8)'
p1700
(dp1701
(g3
(g7
S'333333\x0b\xc0'
p1702
tp1703
Rp1704
g3
(g7
S'\x9a\x99\x99\x99\x99\x99\x1f@'
p1705
tp1706
Rp1707
g3
(g7
S'\x9a\x99\x99\x99\x99\x99\xe9?'
p1708
tp1709
Rp1710
tp1711
F1.0
ssS'(-3.9, 4.2, 0.7), (-3.9, 4.3, 0.7), (-3.8, 4.3, 0.7)'
p1712
(dp1713
(g3
(g7
S'ffffff\x0e\xc0'
p1714
tp1715
Rp1716
g3
(g7
S'\x9a\x99\x99\x99\x99\x99\x11@'
p1717
tp1718
Rp1719
g3
(g7
S'ffffff\xe6?'
p1720
tp1721
Rp1722
tp1723
F1.0
ssS'(-3.9, 5.4, 0.7), (-3.9, 5.5, 0.7), (-3.9, 5.6, 0.7)'
p1724
(dp1725
(g3
(g7
S'333333\x0f\xc0'
p1726
tp1727
Rp1728
g3
(g7
S'\xcd\xcc\xcc\xcc\xcc\xcc\x16@'
p1729
tp1730
Rp1731
g3
(g7
S'ffffff\xe6?'
p1732
tp1733
Rp1734
tp1735
F1.0
ssS'(-3.6, 7.3, 0.8), (-3.6, 7.4, 0.8), (-3.6, 7.5, 0.8)'
p1736
(dp1737
(g3
(g7
S'\xcd\xcc\xcc\xcc\xcc\xcc\x0c\xc0'
p1738
tp1739
Rp1740
g3
(g7
S'ffffff\x1e@'
p1741
tp1742
Rp1743
g3
(g7
S'\x9a\x99\x99\x99\x99\x99\xe9?'
p1744
tp1745
Rp1746
tp1747
F1.0
ssS'(-3.7, 6.3, 0.7), (-3.7, 6.4, 0.7), (-3.6, 6.4, 0.7)'
p1748
(dp1749
(g3
(g7
S'\xcd\xcc\xcc\xcc\xcc\xcc\x0c\xc0'
p1750
tp1751
Rp1752
g3
(g7
S'\x00\x00\x00\x00\x00\x00\x1a@'
p1753
tp1754
Rp1755
g3
(g7
S'ffffff\xe6?'
p1756
tp1757
Rp1758
tp1759
F1.0
ssS'(-3.6, 6.3, 0.7), (-3.6, 6.4, 0.7), (-3.6, 6.5, 0.7)'
p1760
(dp1761
(g3
(g7
S'\xcd\xcc\xcc\xcc\xcc\xcc\x0c\xc0'
p1762
tp1763
Rp1764
g3
(g7
S'\x00\x00\x00\x00\x00\x00\x1a@'
p1765
tp1766
Rp1767
g3
(g7
S'\x9a\x99\x99\x99\x99\x99\xe9?'
p1768
tp1769
Rp1770
tp1771
F0.3333333333333333
s(g3
(g7
S'\xcd\xcc\xcc\xcc\xcc\xcc\x0c\xc0'
p1772
tp1773
Rp1774
g3
(g7
S'ffffff\x1a@'
p1775
tp1776
Rp1777
g3
(g7
S'ffffff\xe6?'
p1778
tp1779
Rp1780
tp1781
F0.6666666666666666
ssS'(-3.4, 8.2, 0.8), (-3.4, 8.3, 0.8), (-3.4, 8.4, 0.8)'
p1782
(dp1783
(g3
(g7
S'\x9a\x99\x99\x99\x99\x99\xb9\xbf'
p1784
tp1785
Rp1786
g3
(g7
S'\x00\x00\x00\x00\x00\x00\x00\x00'
p1787
tp1788
Rp1789
g3
(g7
S'\x00\x00\x00\x00\x00\x00\xf0?'
p1790
tp1791
Rp1792
tp1793
F0.6
s(g3
(g7
S'ffffff\n\xc0'
p1794
tp1795
Rp1796
g3
(g7
S'\xcd\xcc\xcc\xcc\xcc\xcc @'
p1797
tp1798
Rp1799
g3
(g7
S'\x9a\x99\x99\x99\x99\x99\xe9?'
p1800
tp1801
Rp1802
tp1803
F0.4
ssS'(-3.8, 0.0, 1.0), (-3.9, 0.0, 1.0), (-3.9, 0.0, 0.9)'
p1804
(dp1805
(g3
(g7
S'333333\x0f\xc0'
p1806
tp1807
Rp1808
g3
(g7
S'\x00\x00\x00\x00\x00\x00\x00\x00'
p1809
tp1810
Rp1811
g3
(g7
S'\x9a\x99\x99\x99\x99\x99\xe9?'
p1812
tp1813
Rp1814
tp1815
F1.0
ssS'(-4.0, 1.5, 0.7), (-4.0, 1.6, 0.7), (-4.0, 1.7, 0.7)'
p1816
(dp1817
(g3
(g7
S'\x00\x00\x00\x00\x00\x00\x10\xc0'
p1818
tp1819
Rp1820
g3
(g7
S'\xcd\xcc\xcc\xcc\xcc\xcc\xfc?'
p1821
tp1822
Rp1823
g3
(g7
S'ffffff\xe6?'
p1824
tp1825
Rp1826
tp1827
F0.8333333333333334
s(g3
(g7
S'333333\x0f\xc0'
p1828
tp1829
Rp1830
g3
(g7
S'333333\xfb?'
p1831
tp1832
Rp1833
g3
(g7
S'ffffff\xe6?'
p1834
tp1835
Rp1836
tp1837
F0.16666666666666666
ssS'(-3.5, 7.8, 0.8), (-3.5, 7.9, 0.8), (-3.4, 7.9, 0.8)'
p1838
(dp1839
(g3
(g7
S'333333\x0b\xc0'
p1840
tp1841
Rp1842
g3
(g7
S'\x00\x00\x00\x00\x00\x00 @'
p1843
tp1844
Rp1845
g3
(g7
S'\x9a\x99\x99\x99\x99\x99\xe9?'
p1846
tp1847
Rp1848
tp1849
F1.0
ssS'(-1.2, 0.0, 1.0), (-1.3, 0.0, 1.0), (-1.4, 0.0, 1.0)'
p1850
(dp1851
(g3
(g7
S'\x00\x00\x00\x00\x00\x00\xf8\xbf'
p1852
tp1853
Rp1854
g3
(g7
S'\x00\x00\x00\x00\x00\x00\x00\x00'
p1855
tp1856
Rp1857
g3
(g7
S'\x00\x00\x00\x00\x00\x00\xf0?'
p1858
tp1859
Rp1860
tp1861
F1.0
ssS'(-3.8, -0.1, 1.0), (-3.9, -0.1, 1.0), (-4.0, -0.1, 1.0)'
p1862
(dp1863
(g3
(g7
S'\x00\x00\x00\x00\x00\x00\x10\xc0'
p1864
tp1865
Rp1866
g3
(g7
S'\x9a\x99\x99\x99\x99\x99\xb9\xbf'
p1867
tp1868
Rp1869
g3
(g7
S'\xcd\xcc\xcc\xcc\xcc\xcc\xec?'
p1870
tp1871
Rp1872
tp1873
F1.0
ssS'(-3.6, 7.1, 0.8), (-3.5, 7.1, 0.8), (-3.5, 7.2, 0.8)'
p1874
(dp1875
(g3
(g7
S'\x00\x00\x00\x00\x00\x00\x0c\xc0'
p1876
tp1877
Rp1878
g3
(g7
S'333333\x1d@'
p1879
tp1880
Rp1881
g3
(g7
S'\x9a\x99\x99\x99\x99\x99\xe9?'
p1882
tp1883
Rp1884
tp1885
F1.0
ssS'(-3.8, 5.3, 0.7), (-3.8, 5.4, 0.7), (-3.7, 5.4, 0.7)'
p1886
(dp1887
(g3
(g7
S'\x9a\x99\x99\x99\x99\x99\r\xc0'
p1888
tp1889
Rp1890
g3
(g7
S'\x00\x00\x00\x00\x00\x00\x16@'
p1891
tp1892
Rp1893
g3
(g7
S'ffffff\xe6?'
p1894
tp1895
Rp1896
tp1897
F1.0
ssS'(-3.7, 6.2, 0.7), (-3.6, 6.2, 0.7), (-3.6, 6.3, 0.7)'
p1898
(dp1899
(g3
(g7
S'\xcd\xcc\xcc\xcc\xcc\xcc\x0c\xc0'
p1900
tp1901
Rp1902
g3
(g7
S'\x9a\x99\x99\x99\x99\x99\x19@'
p1903
tp1904
Rp1905
g3
(g7
S'ffffff\xe6?'
p1906
tp1907
Rp1908
tp1909
F0.5
s(g3
(g7
S'\xcd\xcc\xcc\xcc\xcc\xcc\x0c\xc0'
p1910
tp1911
Rp1912
g3
(g7
S'333333\x19@'
p1913
tp1914
Rp1915
g3
(g7
S'\x9a\x99\x99\x99\x99\x99\xe9?'
p1916
tp1917
Rp1918
tp1919
F0.5
ssS'(-4.0, 1.1, 0.7), (-4.0, 1.2, 0.7), (-4.0, 1.3, 0.7)'
p1920
(dp1921
(g3
(g7
S'\x00\x00\x00\x00\x00\x00\x10\xc0'
p1922
tp1923
Rp1924
g3
(g7
S'ffffff\xf6?'
p1925
tp1926
Rp1927
g3
(g7
S'ffffff\xe6?'
p1928
tp1929
Rp1930
tp1931
F0.875
s(g3
(g7
S'ffffff\x10\xc0'
p1932
tp1933
Rp1934
g3
(g7
S'\xcd\xcc\xcc\xcc\xcc\xcc\xf4?'
p1935
tp1936
Rp1937
g3
(g7
S'ffffff\xe6?'
p1938
tp1939
Rp1940
tp1941
F0.125
ssS'(-3.8, 6.4, 0.7), (-3.7, 6.4, 0.7), (-3.7, 6.5, 0.7)'
p1942
(dp1943
(g3
(g7
S'\x9a\x99\x99\x99\x99\x99\r\xc0'
p1944
tp1945
Rp1946
g3
(g7
S'ffffff\x1a@'
p1947
tp1948
Rp1949
g3
(g7
S'ffffff\xe6?'
p1950
tp1951
Rp1952
tp1953
F1.0
ssS'(-3.9, 3.1, 0.7), (-3.9, 3.2, 0.7), (-3.9, 3.3, 0.7)'
p1954
(dp1955
(g3
(g7
S'333333\x0f\xc0'
p1956
tp1957
Rp1958
g3
(g7
S'333333\x0b@'
p1959
tp1960
Rp1961
g3
(g7
S'ffffff\xe6?'
p1962
tp1963
Rp1964
tp1965
F1.0
ssS'(-3.9, 1.3, 0.7), (-3.9, 1.4, 0.7), (-3.9, 1.5, 0.7)'
p1966
(dp1967
(g3
(g7
S'333333\x0f\xc0'
p1968
tp1969
Rp1970
g3
(g7
S'\x9a\x99\x99\x99\x99\x99\xf9?'
p1971
tp1972
Rp1973
g3
(g7
S'ffffff\xe6?'
p1974
tp1975
Rp1976
tp1977
F1.0
ssS'(-3.5, 7.7, 0.8), (-3.5, 7.8, 0.8), (-3.4, 7.8, 0.8)'
p1978
(dp1979
(g3
(g7
S'333333\x0b\xc0'
p1980
tp1981
Rp1982
g3
(g7
S'\x9a\x99\x99\x99\x99\x99\x1f@'
p1983
tp1984
Rp1985
g3
(g7
S'\x9a\x99\x99\x99\x99\x99\xe9?'
p1986
tp1987
Rp1988
tp1989
F1.0
ssS'(-3.6, 6.4, 0.8), (-3.6, 6.5, 0.8), (-3.6, 6.6, 0.8)'
p1990
(dp1991
(g3
(g7
S'\xcd\xcc\xcc\xcc\xcc\xcc\x0c\xc0'
p1992
tp1993
Rp1994
g3
(g7
S'\xcd\xcc\xcc\xcc\xcc\xcc\x1a@'
p1995
tp1996
Rp1997
g3
(g7
S'\x9a\x99\x99\x99\x99\x99\xe9?'
p1998
tp1999
Rp2000
tp2001
F1.0
ssS'(-3.2, 0.0, 1.0), (-3.3, 0.0, 1.0), (-3.4, 0.0, 1.0)'
p2002
(dp2003
(g3
(g7
S'\x00\x00\x00\x00\x00\x00\x0c\xc0'
p2004
tp2005
Rp2006
g3
(g7
S'\x00\x00\x00\x00\x00\x00\x00\x00'
p2007
tp2008
Rp2009
g3
(g7
S'\x00\x00\x00\x00\x00\x00\xf0?'
p2010
tp2011
Rp2012
tp2013
F0.8181818181818182
s(g3
(g7
S'333333\x0b\xc0'
p2014
tp2015
Rp2016
g3
(g7
S'\x9a\x99\x99\x99\x99\x99\xb9\xbf'
p2017
tp2018
Rp2019
g3
(g7
S'\x00\x00\x00\x00\x00\x00\xf0?'
p2020
tp2021
Rp2022
tp2023
F0.18181818181818182
ssS'(-4.0, 0.1, 0.7), (-4.0, 0.2, 0.7), (-4.0, 0.3, 0.7)'
p2024
(dp2025
(g3
(g7
S'\x00\x00\x00\x00\x00\x00\x10\xc0'
p2026
tp2027
Rp2028
g3
(g7
S'\x9a\x99\x99\x99\x99\x99\xd9?'
p2029
tp2030
Rp2031
g3
(g7
S'ffffff\xe6?'
p2032
tp2033
Rp2034
tp2035
F1.0
ssS'(-3.5, 8.2, 0.8), (-3.5, 8.3, 0.8), (-3.4, 8.3, 0.8)'
p2036
(dp2037
(g3
(g7
S'333333\x0b\xc0'
p2038
tp2039
Rp2040
g3
(g7
S'\xcd\xcc\xcc\xcc\xcc\xcc @'
p2041
tp2042
Rp2043
g3
(g7
S'\x9a\x99\x99\x99\x99\x99\xe9?'
p2044
tp2045
Rp2046
tp2047
F1.0
ssS'(-3.9, 5.5, 0.7), (-3.8, 5.5, 0.7), (-3.8, 5.6, 0.7)'
p2048
(dp2049
(g3
(g7
S'ffffff\x0e\xc0'
p2050
tp2051
Rp2052
g3
(g7
S'\xcd\xcc\xcc\xcc\xcc\xcc\x16@'
p2053
tp2054
Rp2055
g3
(g7
S'ffffff\xe6?'
p2056
tp2057
Rp2058
tp2059
F1.0
ssS'(-3.6, 7.6, 0.8), (-3.6, 7.7, 0.8), (-3.6, 7.8, 0.8)'
p2060
(dp2061
(g3
(g7
S'\xcd\xcc\xcc\xcc\xcc\xcc\x0c\xc0'
p2062
tp2063
Rp2064
g3
(g7
S'\x9a\x99\x99\x99\x99\x99\x1f@'
p2065
tp2066
Rp2067
g3
(g7
S'\x9a\x99\x99\x99\x99\x99\xe9?'
p2068
tp2069
Rp2070
tp2071
F0.5
s(g3
(g7
S'\x00\x00\x00\x00\x00\x00\x0c\xc0'
p2072
tp2073
Rp2074
g3
(g7
S'333333\x1f@'
p2075
tp2076
Rp2077
g3
(g7
S'\x9a\x99\x99\x99\x99\x99\xe9?'
p2078
tp2079
Rp2080
tp2081
F0.5
ssS'(-3.5, 8.0, 0.8), (-3.4, 8.0, 0.8), (-3.4, 8.1, 0.8)'
p2082
(dp2083
(g3
(g7
S'333333\x0b\xc0'
p2084
tp2085
Rp2086
g3
(g7
S'ffffff @'
p2087
tp2088
Rp2089
g3
(g7
S'\x9a\x99\x99\x99\x99\x99\xe9?'
p2090
tp2091
Rp2092
tp2093
F1.0
ssS'(-3.7, 0.0, 1.0), (-3.7, -0.1, 1.0), (-3.8, -0.1, 1.0)'
p2094
(dp2095
(g3
(g7
S'333333\x0f\xc0'
p2096
tp2097
Rp2098
g3
(g7
S'\x9a\x99\x99\x99\x99\x99\xb9\xbf'
p2099
tp2100
Rp2101
g3
(g7
S'\x00\x00\x00\x00\x00\x00\xf0?'
p2102
tp2103
Rp2104
tp2105
F1.0
ssS'(-4.0, 4.3, 0.7), (-3.9, 4.3, 0.7), (-3.9, 4.4, 0.7)'
p2106
(dp2107
(g3
(g7
S'333333\x0f\xc0'
p2108
tp2109
Rp2110
g3
(g7
S'\x00\x00\x00\x00\x00\x00\x12@'
p2111
tp2112
Rp2113
g3
(g7
S'ffffff\xe6?'
p2114
tp2115
Rp2116
tp2117
F1.0
ssS'(-3.8, 6.0, 0.7), (-3.8, 6.1, 0.7), (-3.8, 6.2, 0.7)'
p2118
(dp2119
(g3
(g7
S'ffffff\x0e\xc0'
p2120
tp2121
Rp2122
g3
(g7
S'333333\x19@'
p2123
tp2124
Rp2125
g3
(g7
S'ffffff\xe6?'
p2126
tp2127
Rp2128
tp2129
F1.0
ssS'(-3.8, 5.4, 0.7), (-3.8, 5.5, 0.7), (-3.8, 5.6, 0.7)'
p2130
(dp2131
(g3
(g7
S'\x9a\x99\x99\x99\x99\x99\r\xc0'
p2132
tp2133
Rp2134
g3
(g7
S'ffffff\x16@'
p2135
tp2136
Rp2137
g3
(g7
S'ffffff\xe6?'
p2138
tp2139
Rp2140
tp2141
F0.2
s(g3
(g7
S'ffffff\x0e\xc0'
p2142
tp2143
Rp2144
g3
(g7
S'\xcd\xcc\xcc\xcc\xcc\xcc\x16@'
p2145
tp2146
Rp2147
g3
(g7
S'ffffff\xe6?'
p2148
tp2149
Rp2150
tp2151
F0.8
ssS'(-4.0, 1.2, 0.7), (-4.0, 1.3, 0.7), (-4.1, 1.3, 0.7)'
p2152
(dp2153
(g3
(g7
S'ffffff\x10\xc0'
p2154
tp2155
Rp2156
g3
(g7
S'ffffff\xf6?'
p2157
tp2158
Rp2159
g3
(g7
S'ffffff\xe6?'
p2160
tp2161
Rp2162
tp2163
F1.0
ssS'(-3.5, 8.3, 0.8), (-3.5, 8.4, 0.8), (-0.1, 0.0, 1.0)'
p2164
(dp2165
(g3
(g7
S'\x9a\x99\x99\x99\x99\x99\xc9\xbf'
p2166
tp2167
Rp2168
g3
(g7
S'\x00\x00\x00\x00\x00\x00\x00\x00'
p2169
tp2170
Rp2171
g3
(g7
S'\x00\x00\x00\x00\x00\x00\xf0?'
p2172
tp2173
Rp2174
tp2175
F1.0
ssS'(-3.9, 0.9, 0.7), (-4.0, 0.9, 0.7), (-4.0, 1.0, 0.7)'
p2176
(dp2177
(g3
(g7
S'\x00\x00\x00\x00\x00\x00\x10\xc0'
p2178
tp2179
Rp2180
g3
(g7
S'\x9a\x99\x99\x99\x99\x99\xf1?'
p2181
tp2182
Rp2183
g3
(g7
S'ffffff\xe6?'
p2184
tp2185
Rp2186
tp2187
F1.0
ssS'(-3.7, 7.3, 0.8), (-3.7, 7.4, 0.8), (-3.6, 7.4, 0.8)'
p2188
(dp2189
(g3
(g7
S'\xcd\xcc\xcc\xcc\xcc\xcc\x0c\xc0'
p2190
tp2191
Rp2192
g3
(g7
S'\x00\x00\x00\x00\x00\x00\x1e@'
p2193
tp2194
Rp2195
g3
(g7
S'\x9a\x99\x99\x99\x99\x99\xe9?'
p2196
tp2197
Rp2198
tp2199
F1.0
ssS'(-3.9, 4.3, 0.7), (-3.9, 4.4, 0.7), (-3.9, 4.5, 0.7)'
p2200
(dp2201
(g3
(g7
S'333333\x0f\xc0'
p2202
tp2203
Rp2204
g3
(g7
S'ffffff\x12@'
p2205
tp2206
Rp2207
g3
(g7
S'ffffff\xe6?'
p2208
tp2209
Rp2210
tp2211
F1.0
ssS'(-0.1, 0.0, 1.0), (-0.2, 0.0, 1.0), (-0.3, 0.0, 1.0)'
p2212
(dp2213
(g3
(g7
S'\x9a\x99\x99\x99\x99\x99\xd9\xbf'
p2214
tp2215
Rp2216
g3
(g7
S'\x00\x00\x00\x00\x00\x00\x00\x00'
p2217
tp2218
Rp2219
g3
(g7
S'\x00\x00\x00\x00\x00\x00\xf0?'
p2220
tp2221
Rp2222
tp2223
F1.0
ssS'(-3.4, 8.4, 0.8), (-0.1, 0.0, 1.0), (-0.2, 0.0, 1.0)'
p2224
(dp2225
(g3
(g7
S'333333\xd3\xbf'
p2226
tp2227
Rp2228
g3
(g7
S'\x00\x00\x00\x00\x00\x00\x00\x00'
p2229
tp2230
Rp2231
g3
(g7
S'\x00\x00\x00\x00\x00\x00\xf0?'
p2232
tp2233
Rp2234
tp2235
F1.0
ssS'(-4.0, 3.1, 0.7), (-4.0, 3.2, 0.7), (-4.0, 3.3, 0.7)'
p2236
(dp2237
(g3
(g7
S'\x00\x00\x00\x00\x00\x00\x10\xc0'
p2238
tp2239
Rp2240
g3
(g7
S'333333\x0b@'
p2241
tp2242
Rp2243
g3
(g7
S'ffffff\xe6?'
p2244
tp2245
Rp2246
tp2247
F1.0
ssS'(-3.8, 4.8, 0.7), (-3.8, 4.9, 0.7), (-3.8, 5.0, 0.7)'
p2248
(dp2249
(g3
(g7
S'ffffff\x0e\xc0'
p2250
tp2251
Rp2252
g3
(g7
S'ffffff\x14@'
p2253
tp2254
Rp2255
g3
(g7
S'ffffff\xe6?'
p2256
tp2257
Rp2258
tp2259
F1.0
ssS'(-3.4, 8.1, 0.8), (-3.4, 8.2, 0.8), (-3.3, 8.2, 0.8)'
p2260
(dp2261
(g3
(g7
S'ffffff\n\xc0'
p2262
tp2263
Rp2264
g3
(g7
S'\x9a\x99\x99\x99\x99\x99 @'
p2265
tp2266
Rp2267
g3
(g7
S'\x9a\x99\x99\x99\x99\x99\xe9?'
p2268
tp2269
Rp2270
tp2271
F1.0
ssS'(-3.9, 2.6, 0.7), (-3.9, 2.7, 0.7), (-3.9, 2.8, 0.7)'
p2272
(dp2273
(g3
(g7
S'333333\x0f\xc0'
p2274
tp2275
Rp2276
g3
(g7
S'333333\x07@'
p2277
tp2278
Rp2279
g3
(g7
S'ffffff\xe6?'
p2280
tp2281
Rp2282
tp2283
F1.0
ssS'(-0.4, 0.0, 1.0), (-0.5, 0.0, 1.0), (-0.6, 0.0, 1.0)'
p2284
(dp2285
(g3
(g7
S'ffffff\xe6\xbf'
p2286
tp2287
Rp2288
g3
(g7
S'\x00\x00\x00\x00\x00\x00\x00\x00'
p2289
tp2290
Rp2291
g3
(g7
S'\x00\x00\x00\x00\x00\x00\xf0?'
p2292
tp2293
Rp2294
tp2295
F1.0
ssS'(-3.8, -0.1, 1.0), (-3.9, -0.1, 1.0), (-3.9, -0.1, 0.9)'
p2296
(dp2297
(g3
(g7
S'333333\x0f\xc0'
p2298
tp2299
Rp2300
g3
(g7
S'\x9a\x99\x99\x99\x99\x99\xb9\xbf'
p2301
tp2302
Rp2303
g3
(g7
S'\x9a\x99\x99\x99\x99\x99\xe9?'
p2304
tp2305
Rp2306
tp2307
F1.0
ssS'(-3.2, -0.1, 1.0), (-3.3, -0.1, 1.0), (-3.4, -0.1, 1.0)'
p2308
(dp2309
(g3
(g7
S'\x00\x00\x00\x00\x00\x00\x0c\xc0'
p2310
tp2311
Rp2312
g3
(g7
S'\x9a\x99\x99\x99\x99\x99\xb9\xbf'
p2313
tp2314
Rp2315
g3
(g7
S'\x00\x00\x00\x00\x00\x00\xf0?'
p2316
tp2317
Rp2318
tp2319
F1.0
ssS'(-3.9, 2.0, 0.7), (-3.9, 2.1, 0.7), (-3.9, 2.2, 0.7)'
p2320
(dp2321
(g3
(g7
S'333333\x0f\xc0'
p2322
tp2323
Rp2324
g3
(g7
S'ffffff\x02@'
p2325
tp2326
Rp2327
g3
(g7
S'ffffff\xe6?'
p2328
tp2329
Rp2330
tp2331
F1.0
ssS'(-3.4, 8.1, 0.8), (-3.4, 8.2, 0.8), (-3.4, 8.3, 0.8)'
p2332
(dp2333
(g3
(g7
S'333333\x0b\xc0'
p2334
tp2335
Rp2336
g3
(g7
S'\xcd\xcc\xcc\xcc\xcc\xcc @'
p2337
tp2338
Rp2339
g3
(g7
S'\x9a\x99\x99\x99\x99\x99\xe9?'
p2340
tp2341
Rp2342
tp2343
F0.6666666666666666
s(g3
(g7
S'ffffff\n\xc0'
p2344
tp2345
Rp2346
g3
(g7
S'\x9a\x99\x99\x99\x99\x99 @'
p2347
tp2348
Rp2349
g3
(g7
S'\x9a\x99\x99\x99\x99\x99\xe9?'
p2350
tp2351
Rp2352
tp2353
F0.3333333333333333
ssS'(-4.0, 2.2, 0.7), (-4.0, 2.3, 0.7), (-3.9, 2.3, 0.7)'
p2354
(dp2355
(g3
(g7
S'333333\x0f\xc0'
p2356
tp2357
Rp2358
g3
(g7
S'333333\x03@'
p2359
tp2360
Rp2361
g3
(g7
S'ffffff\xe6?'
p2362
tp2363
Rp2364
tp2365
F1.0
ssS'(-3.8, 5.6, 0.7), (-3.7, 5.6, 0.7), (-3.7, 5.7, 0.7)'
p2366
(dp2367
(g3
(g7
S'\x9a\x99\x99\x99\x99\x99\r\xc0'
p2368
tp2369
Rp2370
g3
(g7
S'333333\x17@'
p2371
tp2372
Rp2373
g3
(g7
S'ffffff\xe6?'
p2374
tp2375
Rp2376
tp2377
F1.0
ssS'(-3.9, 4.7, 0.7), (-3.9, 4.8, 0.7), (-3.8, 4.8, 0.7)'
p2378
(dp2379
(g3
(g7
S'ffffff\x0e\xc0'
p2380
tp2381
Rp2382
g3
(g7
S'\x9a\x99\x99\x99\x99\x99\x13@'
p2383
tp2384
Rp2385
g3
(g7
S'ffffff\xe6?'
p2386
tp2387
Rp2388
tp2389
F1.0
ssS'(-4.0, 1.4, 0.7), (-4.0, 1.5, 0.7), (-4.0, 1.6, 0.7)'
p2390
(dp2391
(g3
(g7
S'333333\x0f\xc0'
p2392
tp2393
Rp2394
g3
(g7
S'\x9a\x99\x99\x99\x99\x99\xf9?'
p2395
tp2396
Rp2397
g3
(g7
S'ffffff\xe6?'
p2398
tp2399
Rp2400
tp2401
F0.25
s(g3
(g7
S'\x00\x00\x00\x00\x00\x00\x10\xc0'
p2402
tp2403
Rp2404
g3
(g7
S'333333\xfb?'
p2405
tp2406
Rp2407
g3
(g7
S'ffffff\xe6?'
p2408
tp2409
Rp2410
tp2411
F0.75
ssS'(-3.8, 5.8, 0.7), (-3.8, 5.9, 0.7), (-3.8, 6.0, 0.7)'
p2412
(dp2413
(g3
(g7
S'ffffff\x0e\xc0'
p2414
tp2415
Rp2416
g3
(g7
S'ffffff\x18@'
p2417
tp2418
Rp2419
g3
(g7
S'ffffff\xe6?'
p2420
tp2421
Rp2422
tp2423
F0.75
s(g3
(g7
S'\x9a\x99\x99\x99\x99\x99\r\xc0'
p2424
tp2425
Rp2426
g3
(g7
S'\x00\x00\x00\x00\x00\x00\x18@'
p2427
tp2428
Rp2429
g3
(g7
S'ffffff\xe6?'
p2430
tp2431
Rp2432
tp2433
F0.25
ssS'(-4.0, 3.7, 0.7), (-4.0, 3.8, 0.7), (-4.0, 3.9, 0.7)'
p2434
(dp2435
(g3
(g7
S'\x00\x00\x00\x00\x00\x00\x10\xc0'
p2436
tp2437
Rp2438
g3
(g7
S'\x00\x00\x00\x00\x00\x00\x10@'
p2439
tp2440
Rp2441
g3
(g7
S'ffffff\xe6?'
p2442
tp2443
Rp2444
tp2445
F1.0
ssS'(-4.0, 0.0, 0.7), (-4.0, 0.1, 0.7), (-4.0, 0.2, 0.7)'
p2446
(dp2447
(g3
(g7
S'\x00\x00\x00\x00\x00\x00\x10\xc0'
p2448
tp2449
Rp2450
g3
(g7
S'333333\xd3?'
p2451
tp2452
Rp2453
g3
(g7
S'ffffff\xe6?'
p2454
tp2455
Rp2456
tp2457
F1.0
ssS'(-3.9, 5.6, 0.7), (-3.9, 5.7, 0.7), (-3.8, 5.7, 0.7)'
p2458
(dp2459
(g3
(g7
S'ffffff\x0e\xc0'
p2460
tp2461
Rp2462
g3
(g7
S'333333\x17@'
p2463
tp2464
Rp2465
g3
(g7
S'ffffff\xe6?'
p2466
tp2467
Rp2468
tp2469
F1.0
ssS'(-3.7, 6.4, 0.7), (-3.7, 6.5, 0.7), (-3.7, 6.5, 0.8)'
p2470
(dp2471
(g3
(g7
S'\x9a\x99\x99\x99\x99\x99\r\xc0'
p2472
tp2473
Rp2474
g3
(g7
S'ffffff\x1a@'
p2475
tp2476
Rp2477
g3
(g7
S'\x9a\x99\x99\x99\x99\x99\xe9?'
p2478
tp2479
Rp2480
tp2481
F1.0
ssS'(-3.6, 6.5, 0.7), (-3.6, 6.5, 0.8), (-3.6, 6.6, 0.8)'
p2482
(dp2483
(g3
(g7
S'\xcd\xcc\xcc\xcc\xcc\xcc\x0c\xc0'
p2484
tp2485
Rp2486
g3
(g7
S'\xcd\xcc\xcc\xcc\xcc\xcc\x1a@'
p2487
tp2488
Rp2489
g3
(g7
S'\x9a\x99\x99\x99\x99\x99\xe9?'
p2490
tp2491
Rp2492
tp2493
F1.0
ssS'(-4.1, 1.5, 0.7), (-4.1, 1.6, 0.7), (-4.1, 1.7, 0.7)'
p2494
(dp2495
(g3
(g7
S'ffffff\x10\xc0'
p2496
tp2497
Rp2498
g3
(g7
S'\xcd\xcc\xcc\xcc\xcc\xcc\xfc?'
p2499
tp2500
Rp2501
g3
(g7
S'ffffff\xe6?'
p2502
tp2503
Rp2504
tp2505
F1.0
ssS'(-3.7, 6.3, 0.7), (-3.6, 6.3, 0.7), (-3.6, 6.4, 0.7)'
p2506
(dp2507
(g3
(g7
S'\xcd\xcc\xcc\xcc\xcc\xcc\x0c\xc0'
p2508
tp2509
Rp2510
g3
(g7
S'\x00\x00\x00\x00\x00\x00\x1a@'
p2511
tp2512
Rp2513
g3
(g7
S'ffffff\xe6?'
p2514
tp2515
Rp2516
tp2517
F0.75
s(g3
(g7
S'\xcd\xcc\xcc\xcc\xcc\xcc\x0c\xc0'
p2518
tp2519
Rp2520
g3
(g7
S'\x9a\x99\x99\x99\x99\x99\x19@'
p2521
tp2522
Rp2523
g3
(g7
S'\x9a\x99\x99\x99\x99\x99\xe9?'
p2524
tp2525
Rp2526
tp2527
F0.25
ssS'(-3.6, 7.0, 0.7), (-3.6, 7.1, 0.7), (-3.6, 7.1, 0.8)'
p2528
(dp2529
(g3
(g7
S'\xcd\xcc\xcc\xcc\xcc\xcc\x0c\xc0'
p2530
tp2531
Rp2532
g3
(g7
S'\xcd\xcc\xcc\xcc\xcc\xcc\x1c@'
p2533
tp2534
Rp2535
g3
(g7
S'\x9a\x99\x99\x99\x99\x99\xe9?'
p2536
tp2537
Rp2538
tp2539
F1.0
ssS'(-3.6, 6.9, 0.8), (-3.6, 7.0, 0.8), (-3.6, 7.1, 0.8)'
p2540
(dp2541
(g3
(g7
S'\x00\x00\x00\x00\x00\x00\x0c\xc0'
p2542
tp2543
Rp2544
g3
(g7
S'ffffff\x1c@'
p2545
tp2546
Rp2547
g3
(g7
S'\x9a\x99\x99\x99\x99\x99\xe9?'
p2548
tp2549
Rp2550
tp2551
F0.5714285714285714
s(g3
(g7
S'\xcd\xcc\xcc\xcc\xcc\xcc\x0c\xc0'
p2552
tp2553
Rp2554
g3
(g7
S'\xcd\xcc\xcc\xcc\xcc\xcc\x1c@'
p2555
tp2556
Rp2557
g3
(g7
S'\x9a\x99\x99\x99\x99\x99\xe9?'
p2558
tp2559
Rp2560
tp2561
F0.42857142857142855
ssS'(-3.9, 2.4, 0.7), (-3.9, 2.5, 0.7), (-3.9, 2.6, 0.7)'
p2562
(dp2563
(g3
(g7
S'333333\x0f\xc0'
p2564
tp2565
Rp2566
g3
(g7
S'\x9a\x99\x99\x99\x99\x99\x05@'
p2567
tp2568
Rp2569
g3
(g7
S'ffffff\xe6?'
p2570
tp2571
Rp2572
tp2573
F1.0
ssS'(-3.6, 6.4, 0.7), (-3.6, 6.4, 0.8), (-3.6, 6.5, 0.8)'
p2574
(dp2575
(g3
(g7
S'\xcd\xcc\xcc\xcc\xcc\xcc\x0c\xc0'
p2576
tp2577
Rp2578
g3
(g7
S'ffffff\x1a@'
p2579
tp2580
Rp2581
g3
(g7
S'\x9a\x99\x99\x99\x99\x99\xe9?'
p2582
tp2583
Rp2584
tp2585
F1.0
ssS'(-4.0, 2.7, 0.7), (-4.0, 2.8, 0.7), (-3.9, 2.8, 0.7)'
p2586
(dp2587
(g3
(g7
S'333333\x0f\xc0'
p2588
tp2589
Rp2590
g3
(g7
S'333333\x07@'
p2591
tp2592
Rp2593
g3
(g7
S'ffffff\xe6?'
p2594
tp2595
Rp2596
tp2597
F1.0
ssS'(-3.8, 4.9, 0.7), (-3.8, 5.0, 0.7), (-3.8, 5.1, 0.7)'
p2598
(dp2599
(g3
(g7
S'ffffff\x0e\xc0'
p2600
tp2601
Rp2602
g3
(g7
S'\xcd\xcc\xcc\xcc\xcc\xcc\x14@'
p2603
tp2604
Rp2605
g3
(g7
S'ffffff\xe6?'
p2606
tp2607
Rp2608
tp2609
F1.0
ssS'(-4.0, -0.1, 0.8), (-4.0, -0.1, 0.7), (-4.0, 0.0, 0.7)'
p2610
(dp2611
(g3
(g7
S'\x00\x00\x00\x00\x00\x00\x10\xc0'
p2612
tp2613
Rp2614
g3
(g7
S'\x9a\x99\x99\x99\x99\x99\xb9?'
p2615
tp2616
Rp2617
g3
(g7
S'ffffff\xe6?'
p2618
tp2619
Rp2620
tp2621
F1.0
ssS'(-3.9, 0.9, 0.7), (-3.9, 1.0, 0.7), (-4.0, 1.0, 0.7)'
p2622
(dp2623
(g3
(g7
S'\x00\x00\x00\x00\x00\x00\x10\xc0'
p2624
tp2625
Rp2626
g3
(g7
S'\x9a\x99\x99\x99\x99\x99\xf1?'
p2627
tp2628
Rp2629
g3
(g7
S'ffffff\xe6?'
p2630
tp2631
Rp2632
tp2633
F1.0
ssS'(-3.5, 8.0, 0.8), (-3.5, 8.1, 0.8), (-3.5, 8.2, 0.8)'
p2634
(dp2635
(g3
(g7
S'\x00\x00\x00\x00\x00\x00\x0c\xc0'
p2636
tp2637
Rp2638
g3
(g7
S'\x9a\x99\x99\x99\x99\x99 @'
p2639
tp2640
Rp2641
g3
(g7
S'\x9a\x99\x99\x99\x99\x99\xe9?'
p2642
tp2643
Rp2644
tp2645
F1.0
ssS'(-3.7, 6.9, 0.7), (-3.6, 6.9, 0.7), (-3.6, 7.0, 0.7)'
p2646
(dp2647
(g3
(g7
S'\xcd\xcc\xcc\xcc\xcc\xcc\x0c\xc0'
p2648
tp2649
Rp2650
g3
(g7
S'\x00\x00\x00\x00\x00\x00\x1c@'
p2651
tp2652
Rp2653
g3
(g7
S'\x9a\x99\x99\x99\x99\x99\xe9?'
p2654
tp2655
Rp2656
tp2657
F1.0
ssS'(-4.0, 1.5, 0.7), (-4.0, 1.6, 0.7), (-3.9, 1.6, 0.7)'
p2658
(dp2659
(g3
(g7
S'333333\x0f\xc0'
p2660
tp2661
Rp2662
g3
(g7
S'333333\xfb?'
p2663
tp2664
Rp2665
g3
(g7
S'ffffff\xe6?'
p2666
tp2667
Rp2668
tp2669
F1.0
ssS'(-3.9, 5.4, 0.7), (-3.9, 5.5, 0.7), (-3.8, 5.5, 0.7)'
p2670
(dp2671
(g3
(g7
S'ffffff\x0e\xc0'
p2672
tp2673
Rp2674
g3
(g7
S'ffffff\x16@'
p2675
tp2676
Rp2677
g3
(g7
S'ffffff\xe6?'
p2678
tp2679
Rp2680
tp2681
F1.0
ssS'(-4.1, 2.0, 0.7), (-4.1, 2.1, 0.7), (-4.0, 2.1, 0.7)'
p2682
(dp2683
(g3
(g7
S'\x00\x00\x00\x00\x00\x00\x10\xc0'
p2684
tp2685
Rp2686
g3
(g7
S'\x9a\x99\x99\x99\x99\x99\x01@'
p2687
tp2688
Rp2689
g3
(g7
S'ffffff\xe6?'
p2690
tp2691
Rp2692
tp2693
F1.0
ssS'(-3.6, 6.6, 0.8), (-3.6, 6.7, 0.8), (-3.6, 6.8, 0.8)'
p2694
(dp2695
(g3
(g7
S'\xcd\xcc\xcc\xcc\xcc\xcc\x0c\xc0'
p2696
tp2697
Rp2698
g3
(g7
S'\x9a\x99\x99\x99\x99\x99\x1b@'
p2699
tp2700
Rp2701
g3
(g7
S'\x9a\x99\x99\x99\x99\x99\xe9?'
p2702
tp2703
Rp2704
tp2705
F1.0
ssS'(-3.4, 7.9, 0.8), (-3.4, 8.0, 0.8), (-3.4, 8.1, 0.8)'
p2706
(dp2707
(g3
(g7
S'333333\x0b\xc0'
p2708
tp2709
Rp2710
g3
(g7
S'ffffff @'
p2711
tp2712
Rp2713
g3
(g7
S'\x9a\x99\x99\x99\x99\x99\xe9?'
p2714
tp2715
Rp2716
tp2717
F1.0
ssS'(-3.8, 6.6, 0.7), (-3.7, 6.6, 0.7), (-3.7, 6.7, 0.7)'
p2718
(dp2719
(g3
(g7
S'\x9a\x99\x99\x99\x99\x99\r\xc0'
p2720
tp2721
Rp2722
g3
(g7
S'\xcd\xcc\xcc\xcc\xcc\xcc\x1a@'
p2723
tp2724
Rp2725
g3
(g7
S'\x9a\x99\x99\x99\x99\x99\xe9?'
p2726
tp2727
Rp2728
tp2729
F1.0
ssS'(-3.6, 6.9, 0.8), (-3.5, 6.9, 0.8), (-3.5, 7.0, 0.8)'
p2730
(dp2731
(g3
(g7
S'\x00\x00\x00\x00\x00\x00\x0c\xc0'
p2732
tp2733
Rp2734
g3
(g7
S'ffffff\x1c@'
p2735
tp2736
Rp2737
g3
(g7
S'\x9a\x99\x99\x99\x99\x99\xe9?'
p2738
tp2739
Rp2740
tp2741
F1.0
ssS'(-3.4, 0.0, 1.0), (-3.4, -0.1, 1.0), (-3.5, -0.1, 1.0)'
p2742
(dp2743
(g3
(g7
S'\xcd\xcc\xcc\xcc\xcc\xcc\x0c\xc0'
p2744
tp2745
Rp2746
g3
(g7
S'\x9a\x99\x99\x99\x99\x99\xb9\xbf'
p2747
tp2748
Rp2749
g3
(g7
S'\x00\x00\x00\x00\x00\x00\xf0?'
p2750
tp2751
Rp2752
tp2753
F1.0
ssS'(-3.3, 8.2, 0.8), (-3.3, 8.3, 0.8), (-3.3, 8.4, 0.8)'
p2754
(dp2755
(g3
(g7
S'\x9a\x99\x99\x99\x99\x99\xb9\xbf'
p2756
tp2757
Rp2758
g3
(g7
S'\x00\x00\x00\x00\x00\x00\x00\x00'
p2759
tp2760
Rp2761
g3
(g7
S'\x00\x00\x00\x00\x00\x00\xf0?'
p2762
tp2763
Rp2764
tp2765
F1.0
ssS'(-3.1, -0.1, 1.0), (-3.2, -0.1, 1.0), (-3.3, -0.1, 1.0)'
p2766
(dp2767
(g3
(g7
S'333333\x0b\xc0'
p2768
tp2769
Rp2770
g3
(g7
S'\x9a\x99\x99\x99\x99\x99\xb9\xbf'
p2771
tp2772
Rp2773
g3
(g7
S'\x00\x00\x00\x00\x00\x00\xf0?'
p2774
tp2775
Rp2776
tp2777
F1.0
ssS'(-3.5, 7.6, 0.8), (-3.4, 7.6, 0.8), (-3.4, 7.7, 0.8)'
p2778
(dp2779
(g3
(g7
S'333333\x0b\xc0'
p2780
tp2781
Rp2782
g3
(g7
S'333333\x1f@'
p2783
tp2784
Rp2785
g3
(g7
S'\x9a\x99\x99\x99\x99\x99\xe9?'
p2786
tp2787
Rp2788
tp2789
F1.0
ssS'(-3.3, 8.3, 0.8), (-3.3, 8.4, 0.8), (-0.1, 0.0, 1.0)'
p2790
(dp2791
(g3
(g7
S'\x9a\x99\x99\x99\x99\x99\xc9\xbf'
p2792
tp2793
Rp2794
g3
(g7
S'\x00\x00\x00\x00\x00\x00\x00\x00'
p2795
tp2796
Rp2797
g3
(g7
S'\x00\x00\x00\x00\x00\x00\xf0?'
p2798
tp2799
Rp2800
tp2801
F1.0
ssS'(-3.1, 0.0, 1.0), (-3.2, 0.0, 1.0), (-3.3, 0.0, 1.0)'
p2802
(dp2803
(g3
(g7
S'333333\x0b\xc0'
p2804
tp2805
Rp2806
g3
(g7
S'\x00\x00\x00\x00\x00\x00\x00\x00'
p2807
tp2808
Rp2809
g3
(g7
S'\x00\x00\x00\x00\x00\x00\xf0?'
p2810
tp2811
Rp2812
tp2813
F0.9166666666666666
s(g3
(g7
S'ffffff\n\xc0'
p2814
tp2815
Rp2816
g3
(g7
S'\x9a\x99\x99\x99\x99\x99\xb9\xbf'
p2817
tp2818
Rp2819
g3
(g7
S'\x00\x00\x00\x00\x00\x00\xf0?'
p2820
tp2821
Rp2822
tp2823
F0.08333333333333333
ssS'(-3.7, 6.1, 0.7), (-3.7, 6.2, 0.7), (-3.6, 6.2, 0.7)'
p2824
(dp2825
(g3
(g7
S'\xcd\xcc\xcc\xcc\xcc\xcc\x0c\xc0'
p2826
tp2827
Rp2828
g3
(g7
S'333333\x19@'
p2829
tp2830
Rp2831
g3
(g7
S'ffffff\xe6?'
p2832
tp2833
Rp2834
tp2835
F1.0
ssS'(-3.6, 6.3, 0.8), (-3.6, 6.4, 0.8), (-3.6, 6.5, 0.8)'
p2836
(dp2837
(g3
(g7
S'\xcd\xcc\xcc\xcc\xcc\xcc\x0c\xc0'
p2838
tp2839
Rp2840
g3
(g7
S'ffffff\x1a@'
p2841
tp2842
Rp2843
g3
(g7
S'\x9a\x99\x99\x99\x99\x99\xe9?'
p2844
tp2845
Rp2846
tp2847
F1.0
ssS'(-3.4, 7.7, 0.8), (-3.4, 7.8, 0.8), (-3.4, 7.9, 0.8)'
p2848
(dp2849
(g3
(g7
S'333333\x0b\xc0'
p2850
tp2851
Rp2852
g3
(g7
S'\x00\x00\x00\x00\x00\x00 @'
p2853
tp2854
Rp2855
g3
(g7
S'\x9a\x99\x99\x99\x99\x99\xe9?'
p2856
tp2857
Rp2858
tp2859
F1.0
ssS'(-3.6, 7.6, 0.8), (-3.5, 7.6, 0.8), (-3.5, 7.7, 0.8)'
p2860
(dp2861
(g3
(g7
S'\x00\x00\x00\x00\x00\x00\x0c\xc0'
p2862
tp2863
Rp2864
g3
(g7
S'333333\x1f@'
p2865
tp2866
Rp2867
g3
(g7
S'\x9a\x99\x99\x99\x99\x99\xe9?'
p2868
tp2869
Rp2870
tp2871
F1.0
ssS'(-3.5, 7.6, 0.8), (-3.5, 7.7, 0.8), (-3.4, 7.7, 0.8)'
p2872
(dp2873
(g3
(g7
S'333333\x0b\xc0'
p2874
tp2875
Rp2876
g3
(g7
S'333333\x1f@'
p2877
tp2878
Rp2879
g3
(g7
S'\x9a\x99\x99\x99\x99\x99\xe9?'
p2880
tp2881
Rp2882
tp2883
F1.0
ssS'(-3.9, 5.0, 0.7), (-3.8, 5.0, 0.7), (-3.8, 5.1, 0.7)'
p2884
(dp2885
(g3
(g7
S'ffffff\x0e\xc0'
p2886
tp2887
Rp2888
g3
(g7
S'\xcd\xcc\xcc\xcc\xcc\xcc\x14@'
p2889
tp2890
Rp2891
g3
(g7
S'ffffff\xe6?'
p2892
tp2893
Rp2894
tp2895
F1.0
ssS'(-2.1, 0.0, 1.0), (-2.2, 0.0, 1.0), (-2.3, 0.0, 1.0)'
p2896
(dp2897
(g3
(g7
S'333333\x03\xc0'
p2898
tp2899
Rp2900
g3
(g7
S'\x00\x00\x00\x00\x00\x00\x00\x00'
p2901
tp2902
Rp2903
g3
(g7
S'\x00\x00\x00\x00\x00\x00\xf0?'
p2904
tp2905
Rp2906
tp2907
F1.0
ssS'(-3.9, 0.0, 1.0), (-3.9, 0.0, 0.9), (-3.9, 0.0, 0.8)'
p2908
(dp2909
(g3
(g7
S'333333\x0f\xc0'
p2910
tp2911
Rp2912
g3
(g7
S'\x00\x00\x00\x00\x00\x00\x00\x00'
p2913
tp2914
Rp2915
g3
(g7
S'ffffff\xe6?'
p2916
tp2917
Rp2918
tp2919
F1.0
ssS'(-3.6, 7.1, 0.7), (-3.6, 7.1, 0.8), (-3.6, 7.2, 0.8)'
p2920
(dp2921
(g3
(g7
S'\xcd\xcc\xcc\xcc\xcc\xcc\x0c\xc0'
p2922
tp2923
Rp2924
g3
(g7
S'333333\x1d@'
p2925
tp2926
Rp2927
g3
(g7
S'\x9a\x99\x99\x99\x99\x99\xe9?'
p2928
tp2929
Rp2930
tp2931
F1.0
ssS'(-1.9, 0.0, 1.0), (-2.0, 0.0, 1.0), (-2.1, 0.0, 1.0)'
p2932
(dp2933
(g3
(g7
S'\x9a\x99\x99\x99\x99\x99\x01\xc0'
p2934
tp2935
Rp2936
g3
(g7
S'\x00\x00\x00\x00\x00\x00\x00\x00'
p2937
tp2938
Rp2939
g3
(g7
S'\x00\x00\x00\x00\x00\x00\xf0?'
p2940
tp2941
Rp2942
tp2943
F1.0
ssS'(-3.5, 7.8, 0.8), (-3.5, 7.9, 0.8), (-3.5, 8.0, 0.8)'
p2944
(dp2945
(g3
(g7
S'\x00\x00\x00\x00\x00\x00\x0c\xc0'
p2946
tp2947
Rp2948
g3
(g7
S'333333 @'
p2949
tp2950
Rp2951
g3
(g7
S'\x9a\x99\x99\x99\x99\x99\xe9?'
p2952
tp2953
Rp2954
tp2955
F0.6
s(g3
(g7
S'333333\x0b\xc0'
p2956
tp2957
Rp2958
g3
(g7
S'\x00\x00\x00\x00\x00\x00 @'
p2959
tp2960
Rp2961
g3
(g7
S'\x9a\x99\x99\x99\x99\x99\xe9?'
p2962
tp2963
Rp2964
tp2965
F0.4
ssS'(-3.9, 1.5, 0.7), (-3.9, 1.6, 0.7), (-3.9, 1.7, 0.7)'
p2966
(dp2967
(g3
(g7
S'333333\x0f\xc0'
p2968
tp2969
Rp2970
g3
(g7
S'\xcd\xcc\xcc\xcc\xcc\xcc\xfc?'
p2971
tp2972
Rp2973
g3
(g7
S'ffffff\xe6?'
p2974
tp2975
Rp2976
tp2977
F1.0
ssS'(-3.9, 4.7, 0.7), (-3.9, 4.8, 0.7), (-3.9, 4.9, 0.7)'
p2978
(dp2979
(g3
(g7
S'333333\x0f\xc0'
p2980
tp2981
Rp2982
g3
(g7
S'\x00\x00\x00\x00\x00\x00\x14@'
p2983
tp2984
Rp2985
g3
(g7
S'ffffff\xe6?'
p2986
tp2987
Rp2988
tp2989
F1.0
ssS'(-3.9, 4.4, 0.7), (-3.9, 4.5, 0.7), (-3.9, 4.6, 0.7)'
p2990
(dp2991
(g3
(g7
S'ffffff\x0e\xc0'
p2992
tp2993
Rp2994
g3
(g7
S'ffffff\x12@'
p2995
tp2996
Rp2997
g3
(g7
S'ffffff\xe6?'
p2998
tp2999
Rp3000
tp3001
F0.4
s(g3
(g7
S'333333\x0f\xc0'
p3002
tp3003
Rp3004
g3
(g7
S'\xcd\xcc\xcc\xcc\xcc\xcc\x12@'
p3005
tp3006
Rp3007
g3
(g7
S'ffffff\xe6?'
p3008
tp3009
Rp3010
tp3011
F0.6
ssS'(-3.9, 2.1, 0.7), (-3.9, 2.2, 0.7), (-3.9, 2.3, 0.7)'
p3012
(dp3013
(g3
(g7
S'333333\x0f\xc0'
p3014
tp3015
Rp3016
g3
(g7
S'333333\x03@'
p3017
tp3018
Rp3019
g3
(g7
S'ffffff\xe6?'
p3020
tp3021
Rp3022
tp3023
F1.0
ssS'(-3.6, 7.5, 0.8), (-3.6, 7.6, 0.8), (-3.5, 7.6, 0.8)'
p3024
(dp3025
(g3
(g7
S'\x00\x00\x00\x00\x00\x00\x0c\xc0'
p3026
tp3027
Rp3028
g3
(g7
S'\xcd\xcc\xcc\xcc\xcc\xcc\x1e@'
p3029
tp3030
Rp3031
g3
(g7
S'\x9a\x99\x99\x99\x99\x99\xe9?'
p3032
tp3033
Rp3034
tp3035
F1.0
ssS'(-3.6, 6.8, 0.8), (-3.6, 6.9, 0.8), (-3.6, 7.0, 0.8)'
p3036
(dp3037
(g3
(g7
S'\x00\x00\x00\x00\x00\x00\x0c\xc0'
p3038
tp3039
Rp3040
g3
(g7
S'\x00\x00\x00\x00\x00\x00\x1c@'
p3041
tp3042
Rp3043
g3
(g7
S'\x9a\x99\x99\x99\x99\x99\xe9?'
p3044
tp3045
Rp3046
tp3047
F0.2222222222222222
s(g3
(g7
S'\xcd\xcc\xcc\xcc\xcc\xcc\x0c\xc0'
p3048
tp3049
Rp3050
g3
(g7
S'ffffff\x1c@'
p3051
tp3052
Rp3053
g3
(g7
S'\x9a\x99\x99\x99\x99\x99\xe9?'
p3054
tp3055
Rp3056
tp3057
F0.7777777777777778
ssS'(-3.6, -0.1, 1.0), (-3.7, -0.1, 1.0), (-3.8, -0.1, 1.0)'
p3058
(dp3059
(g3
(g7
S'333333\x0f\xc0'
p3060
tp3061
Rp3062
g3
(g7
S'\x9a\x99\x99\x99\x99\x99\xb9\xbf'
p3063
tp3064
Rp3065
g3
(g7
S'\x00\x00\x00\x00\x00\x00\xf0?'
p3066
tp3067
Rp3068
tp3069
F1.0
ssS'(-3.7, 6.7, 0.8), (-3.7, 6.8, 0.8), (-3.7, 6.9, 0.8)'
p3070
(dp3071
(g3
(g7
S'\x9a\x99\x99\x99\x99\x99\r\xc0'
p3072
tp3073
Rp3074
g3
(g7
S'\x00\x00\x00\x00\x00\x00\x1c@'
p3075
tp3076
Rp3077
g3
(g7
S'\x9a\x99\x99\x99\x99\x99\xe9?'
p3078
tp3079
Rp3080
tp3081
F1.0
ssS'(-3.7, 6.8, 0.8), (-3.7, 6.9, 0.8), (-3.7, 7.0, 0.8)'
p3082
(dp3083
(g3
(g7
S'\x9a\x99\x99\x99\x99\x99\r\xc0'
p3084
tp3085
Rp3086
g3
(g7
S'ffffff\x1c@'
p3087
tp3088
Rp3089
g3
(g7
S'\x9a\x99\x99\x99\x99\x99\xe9?'
p3090
tp3091
Rp3092
tp3093
F1.0
ssS'(-2.2, 0.0, 1.0), (-2.3, 0.0, 1.0), (-2.4, 0.0, 1.0)'
p3094
(dp3095
(g3
(g7
S'\x00\x00\x00\x00\x00\x00\x04\xc0'
p3096
tp3097
Rp3098
g3
(g7
S'\x00\x00\x00\x00\x00\x00\x00\x00'
p3099
tp3100
Rp3101
g3
(g7
S'\x00\x00\x00\x00\x00\x00\xf0?'
p3102
tp3103
Rp3104
tp3105
F1.0
ssS'(-3.9, 3.4, 0.7), (-3.9, 3.5, 0.7), (-3.9, 3.6, 0.7)'
p3106
(dp3107
(g3
(g7
S'333333\x0f\xc0'
p3108
tp3109
Rp3110
g3
(g7
S'\x9a\x99\x99\x99\x99\x99\r@'
p3111
tp3112
Rp3113
g3
(g7
S'ffffff\xe6?'
p3114
tp3115
Rp3116
tp3117
F1.0
ssS'(-3.7, 6.7, 0.7), (-3.7, 6.8, 0.7), (-3.7, 6.9, 0.7)'
p3118
(dp3119
(g3
(g7
S'\x9a\x99\x99\x99\x99\x99\r\xc0'
p3120
tp3121
Rp3122
g3
(g7
S'\x00\x00\x00\x00\x00\x00\x1c@'
p3123
tp3124
Rp3125
g3
(g7
S'ffffff\xe6?'
p3126
tp3127
Rp3128
tp3129
F0.5
s(g3
(g7
S'\xcd\xcc\xcc\xcc\xcc\xcc\x0c\xc0'
p3130
tp3131
Rp3132
g3
(g7
S'\x9a\x99\x99\x99\x99\x99\x1b@'
p3133
tp3134
Rp3135
g3
(g7
S'ffffff\xe6?'
p3136
tp3137
Rp3138
tp3139
F0.5
ssS'(-3.9, 0.2, 0.7), (-3.9, 0.3, 0.7), (-3.9, 0.4, 0.7)'
p3140
(dp3141
(g3
(g7
S'333333\x0f\xc0'
p3142
tp3143
Rp3144
g3
(g7
S'\x00\x00\x00\x00\x00\x00\xe0?'
p3145
tp3146
Rp3147
g3
(g7
S'ffffff\xe6?'
p3148
tp3149
Rp3150
tp3151
F1.0
ssS'(-3.9, 1.2, 0.7), (-4.0, 1.2, 0.7), (-4.0, 1.3, 0.7)'
p3152
(dp3153
(g3
(g7
S'\x00\x00\x00\x00\x00\x00\x10\xc0'
p3154
tp3155
Rp3156
g3
(g7
S'ffffff\xf6?'
p3157
tp3158
Rp3159
g3
(g7
S'ffffff\xe6?'
p3160
tp3161
Rp3162
tp3163
F1.0
ssS'(-3.8, 4.5, 0.7), (-3.8, 4.6, 0.7), (-3.8, 4.7, 0.7)'
p3164
(dp3165
(g3
(g7
S'ffffff\x0e\xc0'
p3166
tp3167
Rp3168
g3
(g7
S'333333\x13@'
p3169
tp3170
Rp3171
g3
(g7
S'ffffff\xe6?'
p3172
tp3173
Rp3174
tp3175
F1.0
ssS'(-3.9, 3.5, 0.7), (-3.9, 3.6, 0.7), (-3.9, 3.7, 0.7)'
p3176
(dp3177
(g3
(g7
S'333333\x0f\xc0'
p3178
tp3179
Rp3180
g3
(g7
S'ffffff\x0e@'
p3181
tp3182
Rp3183
g3
(g7
S'ffffff\xe6?'
p3184
tp3185
Rp3186
tp3187
F1.0
ssS'(-3.4, -0.1, 1.0), (-3.5, -0.1, 1.0), (-3.6, -0.1, 1.0)'
p3188
(dp3189
(g3
(g7
S'\x9a\x99\x99\x99\x99\x99\r\xc0'
p3190
tp3191
Rp3192
g3
(g7
S'\x9a\x99\x99\x99\x99\x99\xb9\xbf'
p3193
tp3194
Rp3195
g3
(g7
S'\x00\x00\x00\x00\x00\x00\xf0?'
p3196
tp3197
Rp3198
tp3199
F1.0
ssS'(-4.0, 2.9, 0.7), (-4.0, 3.0, 0.7), (-4.0, 3.1, 0.7)'
p3200
(dp3201
(g3
(g7
S'\x00\x00\x00\x00\x00\x00\x10\xc0'
p3202
tp3203
Rp3204
g3
(g7
S'\x9a\x99\x99\x99\x99\x99\t@'
p3205
tp3206
Rp3207
g3
(g7
S'ffffff\xe6?'
p3208
tp3209
Rp3210
tp3211
F1.0
ssS'(-4.0, 4.3, 0.7), (-4.0, 4.4, 0.7), (-4.0, 4.5, 0.7)'
p3212
(dp3213
(g3
(g7
S'333333\x0f\xc0'
p3214
tp3215
Rp3216
g3
(g7
S'\x00\x00\x00\x00\x00\x00\x12@'
p3217
tp3218
Rp3219
g3
(g7
S'ffffff\xe6?'
p3220
tp3221
Rp3222
tp3223
F1.0
ssS'(-2.8, 0.0, 1.0), (-2.9, 0.0, 1.0), (-3.0, 0.0, 1.0)'
p3224
(dp3225
(g3
(g7
S'\xcd\xcc\xcc\xcc\xcc\xcc\x08\xc0'
p3226
tp3227
Rp3228
g3
(g7
S'\x00\x00\x00\x00\x00\x00\x00\x00'
p3229
tp3230
Rp3231
g3
(g7
S'\x00\x00\x00\x00\x00\x00\xf0?'
p3232
tp3233
Rp3234
tp3235
F0.8571428571428571
s(g3
(g7
S'\x00\x00\x00\x00\x00\x00\x08\xc0'
p3236
tp3237
Rp3238
g3
(g7
S'\x9a\x99\x99\x99\x99\x99\xb9\xbf'
p3239
tp3240
Rp3241
g3
(g7
S'\x00\x00\x00\x00\x00\x00\xf0?'
p3242
tp3243
Rp3244
tp3245
F0.14285714285714285
ssS'(-0.8, 0.0, 1.0), (-0.9, 0.0, 1.0), (-1.0, 0.0, 1.0)'
p3246
(dp3247
(g3
(g7
S'\x9a\x99\x99\x99\x99\x99\xf1\xbf'
p3248
tp3249
Rp3250
g3
(g7
S'\x00\x00\x00\x00\x00\x00\x00\x00'
p3251
tp3252
Rp3253
g3
(g7
S'\x00\x00\x00\x00\x00\x00\xf0?'
p3254
tp3255
Rp3256
tp3257
F1.0
ssS'(-3.4, 0.0, 1.0), (-3.5, 0.0, 1.0), (-3.6, 0.0, 1.0)'
p3258
(dp3259
(g3
(g7
S'\xcd\xcc\xcc\xcc\xcc\xcc\x0c\xc0'
p3260
tp3261
Rp3262
g3
(g7
S'\x9a\x99\x99\x99\x99\x99\xb9\xbf'
p3263
tp3264
Rp3265
g3
(g7
S'\x00\x00\x00\x00\x00\x00\xf0?'
p3266
tp3267
Rp3268
tp3269
F0.125
s(g3
(g7
S'\x9a\x99\x99\x99\x99\x99\r\xc0'
p3270
tp3271
Rp3272
g3
(g7
S'\x00\x00\x00\x00\x00\x00\x00\x00'
p3273
tp3274
Rp3275
g3
(g7
S'\x00\x00\x00\x00\x00\x00\xf0?'
p3276
tp3277
Rp3278
tp3279
F0.875
ssS'(-4.0, 4.2, 0.7), (-4.0, 4.3, 0.7), (-4.0, 4.4, 0.7)'
p3280
(dp3281
(g3
(g7
S'\x00\x00\x00\x00\x00\x00\x10\xc0'
p3282
tp3283
Rp3284
g3
(g7
S'\x00\x00\x00\x00\x00\x00\x12@'
p3285
tp3286
Rp3287
g3
(g7
S'ffffff\xe6?'
p3288
tp3289
Rp3290
tp3291
F1.0
ssS'(-1.0, 0.0, 1.0), (-1.1, 0.0, 1.0), (-1.2, 0.0, 1.0)'
p3292
(dp3293
(g3
(g7
S'\xcd\xcc\xcc\xcc\xcc\xcc\xf4\xbf'
p3294
tp3295
Rp3296
g3
(g7
S'\x00\x00\x00\x00\x00\x00\x00\x00'
p3297
tp3298
Rp3299
g3
(g7
S'\x00\x00\x00\x00\x00\x00\xf0?'
p3300
tp3301
Rp3302
tp3303
F1.0
ssS'(-3.7, 6.0, 0.7), (-3.7, 6.1, 0.7), (-3.7, 6.2, 0.7)'
p3304
(dp3305
(g3
(g7
S'\xcd\xcc\xcc\xcc\xcc\xcc\x0c\xc0'
p3306
tp3307
Rp3308
g3
(g7
S'\xcd\xcc\xcc\xcc\xcc\xcc\x18@'
p3309
tp3310
Rp3311
g3
(g7
S'ffffff\xe6?'
p3312
tp3313
Rp3314
tp3315
F0.18181818181818182
s(g3
(g7
S'\x9a\x99\x99\x99\x99\x99\r\xc0'
p3316
tp3317
Rp3318
g3
(g7
S'333333\x19@'
p3319
tp3320
Rp3321
g3
(g7
S'ffffff\xe6?'
p3322
tp3323
Rp3324
tp3325
F0.8181818181818182
ssS'(-3.3, 8.4, 0.8), (-0.1, 0.0, 1.0), (-0.2, 0.0, 1.0)'
p3326
(dp3327
(g3
(g7
S'333333\xd3\xbf'
p3328
tp3329
Rp3330
g3
(g7
S'\x00\x00\x00\x00\x00\x00\x00\x00'
p3331
tp3332
Rp3333
g3
(g7
S'\x00\x00\x00\x00\x00\x00\xf0?'
p3334
tp3335
Rp3336
tp3337
F1.0
ssS'(-3.6, 6.2, 0.7), (-3.6, 6.3, 0.7), (-3.6, 6.4, 0.7)'
p3338
(dp3339
(g3
(g7
S'\xcd\xcc\xcc\xcc\xcc\xcc\x0c\xc0'
p3340
tp3341
Rp3342
g3
(g7
S'\x9a\x99\x99\x99\x99\x99\x19@'
p3343
tp3344
Rp3345
g3
(g7
S'\x9a\x99\x99\x99\x99\x99\xe9?'
p3346
tp3347
Rp3348
tp3349
F1.0
ssS'(-3.7, 6.8, 0.7), (-3.7, 6.9, 0.7), (-3.7, 7.0, 0.7)'
p3350
(dp3351
(g3
(g7
S'\xcd\xcc\xcc\xcc\xcc\xcc\x0c\xc0'
p3352
tp3353
Rp3354
g3
(g7
S'\x00\x00\x00\x00\x00\x00\x1c@'
p3355
tp3356
Rp3357
g3
(g7
S'ffffff\xe6?'
p3358
tp3359
Rp3360
tp3361
F1.0
ssS'(-3.8, 5.6, 0.7), (-3.8, 5.7, 0.7), (-3.8, 5.8, 0.7)'
p3362
(dp3363
(g3
(g7
S'ffffff\x0e\xc0'
p3364
tp3365
Rp3366
g3
(g7
S'\x9a\x99\x99\x99\x99\x99\x17@'
p3367
tp3368
Rp3369
g3
(g7
S'ffffff\xe6?'
p3370
tp3371
Rp3372
tp3373
F1.0
ssS'(-3.7, 0.0, 1.0), (-3.8, 0.0, 1.0), (-3.8, -0.1, 1.0)'
p3374
(dp3375
(g3
(g7
S'333333\x0f\xc0'
p3376
tp3377
Rp3378
g3
(g7
S'\x9a\x99\x99\x99\x99\x99\xb9\xbf'
p3379
tp3380
Rp3381
g3
(g7
S'\x00\x00\x00\x00\x00\x00\xf0?'
p3382
tp3383
Rp3384
tp3385
F1.0
ssS'(-3.9, 1.0, 0.7), (-4.0, 1.0, 0.7), (-4.0, 1.1, 0.7)'
p3386
(dp3387
(g3
(g7
S'\x00\x00\x00\x00\x00\x00\x10\xc0'
p3388
tp3389
Rp3390
g3
(g7
S'333333\xf3?'
p3391
tp3392
Rp3393
g3
(g7
S'ffffff\xe6?'
p3394
tp3395
Rp3396
tp3397
F1.0
ssS'(-3.9, 1.2, 0.7), (-3.9, 1.3, 0.7), (-3.9, 1.4, 0.7)'
p3398
(dp3399
(g3
(g7
S'333333\x0f\xc0'
p3400
tp3401
Rp3402
g3
(g7
S'\x00\x00\x00\x00\x00\x00\xf8?'
p3403
tp3404
Rp3405
g3
(g7
S'ffffff\xe6?'
p3406
tp3407
Rp3408
tp3409
F1.0
ssS'(-3.6, 7.3, 0.8), (-3.5, 7.3, 0.8), (-3.5, 7.4, 0.8)'
p3410
(dp3411
(g3
(g7
S'\x00\x00\x00\x00\x00\x00\x0c\xc0'
p3412
tp3413
Rp3414
g3
(g7
S'\x00\x00\x00\x00\x00\x00\x1e@'
p3415
tp3416
Rp3417
g3
(g7
S'\x9a\x99\x99\x99\x99\x99\xe9?'
p3418
tp3419
Rp3420
tp3421
F1.0
ssS'(-3.7, 5.9, 0.7), (-3.7, 6.0, 0.7), (-3.7, 6.1, 0.7)'
p3422
(dp3423
(g3
(g7
S'\x9a\x99\x99\x99\x99\x99\r\xc0'
p3424
tp3425
Rp3426
g3
(g7
S'\xcd\xcc\xcc\xcc\xcc\xcc\x18@'
p3427
tp3428
Rp3429
g3
(g7
S'ffffff\xe6?'
p3430
tp3431
Rp3432
tp3433
F1.0
ssS'(-3.9, 4.5, 0.7), (-3.9, 4.6, 0.7), (-3.9, 4.7, 0.7)'
p3434
(dp3435
(g3
(g7
S'333333\x0f\xc0'
p3436
tp3437
Rp3438
g3
(g7
S'333333\x13@'
p3439
tp3440
Rp3441
g3
(g7
S'ffffff\xe6?'
p3442
tp3443
Rp3444
tp3445
F1.0
ssS'(-4.0, 4.4, 0.7), (-4.0, 4.5, 0.7), (-3.9, 4.5, 0.7)'
p3446
(dp3447
(g3
(g7
S'333333\x0f\xc0'
p3448
tp3449
Rp3450
g3
(g7
S'ffffff\x12@'
p3451
tp3452
Rp3453
g3
(g7
S'ffffff\xe6?'
p3454
tp3455
Rp3456
tp3457
F1.0
ssS'(-4.0, 3.2, 0.7), (-4.0, 3.3, 0.7), (-4.0, 3.4, 0.7)'
p3458
(dp3459
(g3
(g7
S'\x00\x00\x00\x00\x00\x00\x10\xc0'
p3460
tp3461
Rp3462
g3
(g7
S'\x00\x00\x00\x00\x00\x00\x0c@'
p3463
tp3464
Rp3465
g3
(g7
S'ffffff\xe6?'
p3466
tp3467
Rp3468
tp3469
F1.0
ssS'(-3.5, 8.3, 0.8), (-3.4, 8.3, 0.8), (-3.4, 8.4, 0.8)'
p3470
(dp3471
(g3
(g7
S'\x9a\x99\x99\x99\x99\x99\xb9\xbf'
p3472
tp3473
Rp3474
g3
(g7
S'\x00\x00\x00\x00\x00\x00\x00\x00'
p3475
tp3476
Rp3477
g3
(g7
S'\x00\x00\x00\x00\x00\x00\xf0?'
p3478
tp3479
Rp3480
tp3481
F1.0
ssS'(-3.9, 4.6, 0.7), (-3.9, 4.7, 0.7), (-3.9, 4.8, 0.7)'
p3482
(dp3483
(g3
(g7
S'ffffff\x0e\xc0'
p3484
tp3485
Rp3486
g3
(g7
S'333333\x13@'
p3487
tp3488
Rp3489
g3
(g7
S'ffffff\xe6?'
p3490
tp3491
Rp3492
tp3493
F0.25
s(g3
(g7
S'333333\x0f\xc0'
p3494
tp3495
Rp3496
g3
(g7
S'\x9a\x99\x99\x99\x99\x99\x13@'
p3497
tp3498
Rp3499
g3
(g7
S'ffffff\xe6?'
p3500
tp3501
Rp3502
tp3503
F0.75
ssS'(-3.5, 6.9, 0.8), (-3.5, 7.0, 0.8), (-3.5, 7.1, 0.8)'
p3504
(dp3505
(g3
(g7
S'\x00\x00\x00\x00\x00\x00\x0c\xc0'
p3506
tp3507
Rp3508
g3
(g7
S'\xcd\xcc\xcc\xcc\xcc\xcc\x1c@'
p3509
tp3510
Rp3511
g3
(g7
S'\x9a\x99\x99\x99\x99\x99\xe9?'
p3512
tp3513
Rp3514
tp3515
F1.0
ssS'(-3.4, 0.0, 1.0), (-3.5, 0.0, 1.0), (-3.5, -0.1, 1.0)'
p3516
(dp3517
(g3
(g7
S'\xcd\xcc\xcc\xcc\xcc\xcc\x0c\xc0'
p3518
tp3519
Rp3520
g3
(g7
S'\x9a\x99\x99\x99\x99\x99\xb9\xbf'
p3521
tp3522
Rp3523
g3
(g7
S'\x00\x00\x00\x00\x00\x00\xf0?'
p3524
tp3525
Rp3526
tp3527
F1.0
ssS'(-3.7, 7.0, 0.7), (-3.6, 7.0, 0.7), (-3.6, 7.1, 0.7)'
p3528
(dp3529
(g3
(g7
S'\xcd\xcc\xcc\xcc\xcc\xcc\x0c\xc0'
p3530
tp3531
Rp3532
g3
(g7
S'ffffff\x1c@'
p3533
tp3534
Rp3535
g3
(g7
S'\x9a\x99\x99\x99\x99\x99\xe9?'
p3536
tp3537
Rp3538
tp3539
F1.0
ssS'(-3.7, 6.5, 0.7), (-3.7, 6.6, 0.7), (-3.6, 6.6, 0.7)'
p3540
(dp3541
(g3
(g7
S'\xcd\xcc\xcc\xcc\xcc\xcc\x0c\xc0'
p3542
tp3543
Rp3544
g3
(g7
S'\xcd\xcc\xcc\xcc\xcc\xcc\x1a@'
p3545
tp3546
Rp3547
g3
(g7
S'ffffff\xe6?'
p3548
tp3549
Rp3550
tp3551
F1.0
ssS'(-3.6, 7.7, 0.8), (-3.6, 7.8, 0.8), (-3.5, 7.8, 0.8)'
p3552
(dp3553
(g3
(g7
S'\x00\x00\x00\x00\x00\x00\x0c\xc0'
p3554
tp3555
Rp3556
g3
(g7
S'\x9a\x99\x99\x99\x99\x99\x1f@'
p3557
tp3558
Rp3559
g3
(g7
S'\x9a\x99\x99\x99\x99\x99\xe9?'
p3560
tp3561
Rp3562
tp3563
F1.0
ssS'(-3.9, 5.5, 0.7), (-3.9, 5.6, 0.7), (-3.9, 5.7, 0.7)'
p3564
(dp3565
(g3
(g7
S'ffffff\x0e\xc0'
p3566
tp3567
Rp3568
g3
(g7
S'\xcd\xcc\xcc\xcc\xcc\xcc\x16@'
p3569
tp3570
Rp3571
g3
(g7
S'ffffff\xe6?'
p3572
tp3573
Rp3574
tp3575
F1.0
ssS'(-4.0, 3.3, 0.7), (-4.0, 3.4, 0.7), (-4.0, 3.5, 0.7)'
p3576
(dp3577
(g3
(g7
S'\x00\x00\x00\x00\x00\x00\x10\xc0'
p3578
tp3579
Rp3580
g3
(g7
S'\xcd\xcc\xcc\xcc\xcc\xcc\x0c@'
p3581
tp3582
Rp3583
g3
(g7
S'ffffff\xe6?'
p3584
tp3585
Rp3586
tp3587
F1.0
ssS'(-3.5, 8.4, 0.8), (-0.1, 0.0, 1.0), (-0.2, 0.0, 1.0)'
p3588
(dp3589
(g3
(g7
S'333333\xd3\xbf'
p3590
tp3591
Rp3592
g3
(g7
S'\x00\x00\x00\x00\x00\x00\x00\x00'
p3593
tp3594
Rp3595
g3
(g7
S'\x00\x00\x00\x00\x00\x00\xf0?'
p3596
tp3597
Rp3598
tp3599
F1.0
ssS'(-3.8, 6.0, 0.7), (-3.7, 6.0, 0.7), (-3.7, 6.1, 0.7)'
p3600
(dp3601
(g3
(g7
S'\x9a\x99\x99\x99\x99\x99\r\xc0'
p3602
tp3603
Rp3604
g3
(g7
S'\xcd\xcc\xcc\xcc\xcc\xcc\x18@'
p3605
tp3606
Rp3607
g3
(g7
S'ffffff\xe6?'
p3608
tp3609
Rp3610
tp3611
F1.0
ssS'(-4.0, 1.3, 0.7), (-4.1, 1.3, 0.7), (-4.1, 1.4, 0.7)'
p3612
(dp3613
(g3
(g7
S'ffffff\x10\xc0'
p3614
tp3615
Rp3616
g3
(g7
S'\x00\x00\x00\x00\x00\x00\xf8?'
p3617
tp3618
Rp3619
g3
(g7
S'ffffff\xe6?'
p3620
tp3621
Rp3622
tp3623
F1.0
ssS'(-1.7, 0.0, 1.0), (-1.8, 0.0, 1.0), (-1.9, 0.0, 1.0)'
p3624
(dp3625
(g3
(g7
S'\x00\x00\x00\x00\x00\x00\x00\xc0'
p3626
tp3627
Rp3628
g3
(g7
S'\x00\x00\x00\x00\x00\x00\x00\x00'
p3629
tp3630
Rp3631
g3
(g7
S'\x00\x00\x00\x00\x00\x00\xf0?'
p3632
tp3633
Rp3634
tp3635
F1.0
ssS'(-3.9, 4.2, 0.7), (-3.8, 4.2, 0.7), (-3.8, 4.3, 0.7)'
p3636
(dp3637
(g3
(g7
S'ffffff\x0e\xc0'
p3638
tp3639
Rp3640
g3
(g7
S'\x9a\x99\x99\x99\x99\x99\x11@'
p3641
tp3642
Rp3643
g3
(g7
S'ffffff\xe6?'
p3644
tp3645
Rp3646
tp3647
F1.0
ssS'(-1.1, 0.0, 1.0), (-1.2, 0.0, 1.0), (-1.3, 0.0, 1.0)'
p3648
(dp3649
(g3
(g7
S'ffffff\xf6\xbf'
p3650
tp3651
Rp3652
g3
(g7
S'\x00\x00\x00\x00\x00\x00\x00\x00'
p3653
tp3654
Rp3655
g3
(g7
S'\x00\x00\x00\x00\x00\x00\xf0?'
p3656
tp3657
Rp3658
tp3659
F1.0
ssS'(-3.5, 7.4, 0.8), (-3.5, 7.5, 0.8), (-3.5, 7.6, 0.8)'
p3660
(dp3661
(g3
(g7
S'333333\x0b\xc0'
p3662
tp3663
Rp3664
g3
(g7
S'ffffff\x1e@'
p3665
tp3666
Rp3667
g3
(g7
S'\x9a\x99\x99\x99\x99\x99\xe9?'
p3668
tp3669
Rp3670
tp3671
F0.1
s(g3
(g7
S'\x00\x00\x00\x00\x00\x00\x0c\xc0'
p3672
tp3673
Rp3674
g3
(g7
S'\xcd\xcc\xcc\xcc\xcc\xcc\x1e@'
p3675
tp3676
Rp3677
g3
(g7
S'\x9a\x99\x99\x99\x99\x99\xe9?'
p3678
tp3679
Rp3680
tp3681
F0.9
ssS'(-4.1, 1.3, 0.7), (-4.1, 1.4, 0.7), (-4.1, 1.5, 0.7)'
p3682
(dp3683
(g3
(g7
S'ffffff\x10\xc0'
p3684
tp3685
Rp3686
g3
(g7
S'\x9a\x99\x99\x99\x99\x99\xf9?'
p3687
tp3688
Rp3689
g3
(g7
S'ffffff\xe6?'
p3690
tp3691
Rp3692
tp3693
F1.0
ssS'(-3.6, 7.9, 0.8), (-3.6, 8.0, 0.8), (-3.5, 8.0, 0.8)'
p3694
(dp3695
(g3
(g7
S'\x00\x00\x00\x00\x00\x00\x0c\xc0'
p3696
tp3697
Rp3698
g3
(g7
S'333333 @'
p3699
tp3700
Rp3701
g3
(g7
S'\x9a\x99\x99\x99\x99\x99\xe9?'
p3702
tp3703
Rp3704
tp3705
F1.0
ssS'(-3.8, 4.2, 0.7), (-3.8, 4.3, 0.7), (-3.8, 4.4, 0.7)'
p3706
(dp3707
(g3
(g7
S'ffffff\x0e\xc0'
p3708
tp3709
Rp3710
g3
(g7
S'\x00\x00\x00\x00\x00\x00\x12@'
p3711
tp3712
Rp3713
g3
(g7
S'ffffff\xe6?'
p3714
tp3715
Rp3716
tp3717
F1.0
ssS'(-3.9, 0.6, 0.7), (-3.9, 0.7, 0.7), (-3.9, 0.8, 0.7)'
p3718
(dp3719
(g3
(g7
S'333333\x0f\xc0'
p3720
tp3721
Rp3722
g3
(g7
S'\xcd\xcc\xcc\xcc\xcc\xcc\xec?'
p3723
tp3724
Rp3725
g3
(g7
S'ffffff\xe6?'
p3726
tp3727
Rp3728
tp3729
F1.0
ssS'(-3.7, 7.1, 0.8), (-3.6, 7.1, 0.8), (-3.6, 7.2, 0.8)'
p3730
(dp3731
(g3
(g7
S'\xcd\xcc\xcc\xcc\xcc\xcc\x0c\xc0'
p3732
tp3733
Rp3734
g3
(g7
S'333333\x1d@'
p3735
tp3736
Rp3737
g3
(g7
S'\x9a\x99\x99\x99\x99\x99\xe9?'
p3738
tp3739
Rp3740
tp3741
F1.0
ssS'(-3.7, 6.6, 0.8), (-3.7, 6.7, 0.8), (-3.7, 6.8, 0.8)'
p3742
(dp3743
(g3
(g7
S'\x9a\x99\x99\x99\x99\x99\r\xc0'
p3744
tp3745
Rp3746
g3
(g7
S'\x9a\x99\x99\x99\x99\x99\x1b@'
p3747
tp3748
Rp3749
g3
(g7
S'\x9a\x99\x99\x99\x99\x99\xe9?'
p3750
tp3751
Rp3752
tp3753
F1.0
ssS'(-3.5, 7.6, 0.8), (-3.5, 7.7, 0.8), (-3.5, 7.8, 0.8)'
p3754
(dp3755
(g3
(g7
S'333333\x0b\xc0'
p3756
tp3757
Rp3758
g3
(g7
S'333333\x1f@'
p3759
tp3760
Rp3761
g3
(g7
S'\x9a\x99\x99\x99\x99\x99\xe9?'
p3762
tp3763
Rp3764
tp3765
F0.42857142857142855
s(g3
(g7
S'\x00\x00\x00\x00\x00\x00\x0c\xc0'
p3766
tp3767
Rp3768
g3
(g7
S'\x9a\x99\x99\x99\x99\x99\x1f@'
p3769
tp3770
Rp3771
g3
(g7
S'\x9a\x99\x99\x99\x99\x99\xe9?'
p3772
tp3773
Rp3774
tp3775
F0.5714285714285714
ssS'(-2.3, 0.0, 1.0), (-2.4, 0.0, 1.0), (-2.5, 0.0, 1.0)'
p3776
(dp3777
(g3
(g7
S'\xcd\xcc\xcc\xcc\xcc\xcc\x04\xc0'
p3778
tp3779
Rp3780
g3
(g7
S'\x00\x00\x00\x00\x00\x00\x00\x00'
p3781
tp3782
Rp3783
g3
(g7
S'\x00\x00\x00\x00\x00\x00\xf0?'
p3784
tp3785
Rp3786
tp3787
F1.0
ssS'(-3.7, 6.7, 0.7), (-3.7, 6.7, 0.8), (-3.7, 6.8, 0.8)'
p3788
(dp3789
(g3
(g7
S'\x9a\x99\x99\x99\x99\x99\r\xc0'
p3790
tp3791
Rp3792
g3
(g7
S'\x9a\x99\x99\x99\x99\x99\x1b@'
p3793
tp3794
Rp3795
g3
(g7
S'\x9a\x99\x99\x99\x99\x99\xe9?'
p3796
tp3797
Rp3798
tp3799
F1.0
ssS'(-3.9, 1.1, 0.7), (-3.9, 1.2, 0.7), (-3.9, 1.3, 0.7)'
p3800
(dp3801
(g3
(g7
S'333333\x0f\xc0'
p3802
tp3803
Rp3804
g3
(g7
S'ffffff\xf6?'
p3805
tp3806
Rp3807
g3
(g7
S'ffffff\xe6?'
p3808
tp3809
Rp3810
tp3811
F1.0
ssS'(-3.8, 5.3, 0.7), (-3.7, 5.4, 0.7), (-3.7, 5.5, 0.7)'
p3812
(dp3813
(g3
(g7
S'\x9a\x99\x99\x99\x99\x99\r\xc0'
p3814
tp3815
Rp3816
g3
(g7
S'ffffff\x16@'
p3817
tp3818
Rp3819
g3
(g7
S'ffffff\xe6?'
p3820
tp3821
Rp3822
tp3823
F1.0
ssS'(-3.9, 2.7, 0.7), (-3.9, 2.8, 0.7), (-3.9, 2.9, 0.7)'
p3824
(dp3825
(g3
(g7
S'333333\x0f\xc0'
p3826
tp3827
Rp3828
g3
(g7
S'\x00\x00\x00\x00\x00\x00\x08@'
p3829
tp3830
Rp3831
g3
(g7
S'ffffff\xe6?'
p3832
tp3833
Rp3834
tp3835
F1.0
ssS'(-3.0, 0.0, 1.0), (-3.0, -0.1, 1.0), (-3.1, -0.1, 1.0)'
p3836
(dp3837
(g3
(g7
S'\x9a\x99\x99\x99\x99\x99\t\xc0'
p3838
tp3839
Rp3840
g3
(g7
S'\x9a\x99\x99\x99\x99\x99\xb9\xbf'
p3841
tp3842
Rp3843
g3
(g7
S'\x00\x00\x00\x00\x00\x00\xf0?'
p3844
tp3845
Rp3846
tp3847
F1.0
ssS'(-4.0, 0.8, 0.7), (-4.0, 0.9, 0.7), (-4.0, 1.0, 0.7)'
p3848
(dp3849
(g3
(g7
S'\x00\x00\x00\x00\x00\x00\x10\xc0'
p3850
tp3851
Rp3852
g3
(g7
S'\x9a\x99\x99\x99\x99\x99\xf1?'
p3853
tp3854
Rp3855
g3
(g7
S'ffffff\xe6?'
p3856
tp3857
Rp3858
tp3859
F1.0
ssS'(-3.9, -0.1, 1.0), (-4.0, -0.1, 1.0), (-4.0, -0.1, 0.9)'
p3860
(dp3861
(g3
(g7
S'\x00\x00\x00\x00\x00\x00\x10\xc0'
p3862
tp3863
Rp3864
g3
(g7
S'\x9a\x99\x99\x99\x99\x99\xb9\xbf'
p3865
tp3866
Rp3867
g3
(g7
S'\x9a\x99\x99\x99\x99\x99\xe9?'
p3868
tp3869
Rp3870
tp3871
F1.0
ssS'(-3.6, 6.3, 0.7), (-3.6, 6.4, 0.7), (-3.6, 6.4, 0.8)'
p3872
(dp3873
(g3
(g7
S'\xcd\xcc\xcc\xcc\xcc\xcc\x0c\xc0'
p3874
tp3875
Rp3876
g3
(g7
S'\x00\x00\x00\x00\x00\x00\x1a@'
p3877
tp3878
Rp3879
g3
(g7
S'\x9a\x99\x99\x99\x99\x99\xe9?'
p3880
tp3881
Rp3882
tp3883
F1.0
ssS'(-3.7, 6.4, 0.7), (-3.6, 6.4, 0.7), (-3.6, 6.5, 0.7)'
p3884
(dp3885
(g3
(g7
S'\xcd\xcc\xcc\xcc\xcc\xcc\x0c\xc0'
p3886
tp3887
Rp3888
g3
(g7
S'\x00\x00\x00\x00\x00\x00\x1a@'
p3889
tp3890
Rp3891
g3
(g7
S'\x9a\x99\x99\x99\x99\x99\xe9?'
p3892
tp3893
Rp3894
tp3895
F1.0
ssS'(-4.0, 2.3, 0.7), (-4.0, 2.4, 0.7), (-4.0, 2.5, 0.7)'
p3896
(dp3897
(g3
(g7
S'\x00\x00\x00\x00\x00\x00\x10\xc0'
p3898
tp3899
Rp3900
g3
(g7
S'\xcd\xcc\xcc\xcc\xcc\xcc\x04@'
p3901
tp3902
Rp3903
g3
(g7
S'ffffff\xe6?'
p3904
tp3905
Rp3906
tp3907
F1.0
ssS'(-3.7, 6.6, 0.7), (-3.6, 6.6, 0.7), (-3.6, 6.7, 0.7)'
p3908
(dp3909
(g3
(g7
S'\xcd\xcc\xcc\xcc\xcc\xcc\x0c\xc0'
p3910
tp3911
Rp3912
g3
(g7
S'\xcd\xcc\xcc\xcc\xcc\xcc\x1a@'
p3913
tp3914
Rp3915
g3
(g7
S'\x9a\x99\x99\x99\x99\x99\xe9?'
p3916
tp3917
Rp3918
tp3919
F1.0
ssS'(-3.9, -0.1, 0.9), (-3.9, -0.1, 0.8), (-3.9, -0.1, 0.7)'
p3920
(dp3921
(g3
(g7
S'333333\x0f\xc0'
p3922
tp3923
Rp3924
g3
(g7
S'\x00\x00\x00\x00\x00\x00\x00\x00'
p3925
tp3926
Rp3927
g3
(g7
S'ffffff\xe6?'
p3928
tp3929
Rp3930
tp3931
F1.0
ssS'(-3.7, 5.4, 0.7), (-3.7, 5.5, 0.7), (-3.7, 5.6, 0.7)'
p3932
(dp3933
(g3
(g7
S'\x9a\x99\x99\x99\x99\x99\r\xc0'
p3934
tp3935
Rp3936
g3
(g7
S'\xcd\xcc\xcc\xcc\xcc\xcc\x16@'
p3937
tp3938
Rp3939
g3
(g7
S'ffffff\xe6?'
p3940
tp3941
Rp3942
tp3943
F1.0
ssS'(-4.0, -0.1, 0.7), (-4.0, 0.0, 0.7), (-4.0, 0.1, 0.7)'
p3944
(dp3945
(g3
(g7
S'\x00\x00\x00\x00\x00\x00\x10\xc0'
p3946
tp3947
Rp3948
g3
(g7
S'\x9a\x99\x99\x99\x99\x99\xc9?'
p3949
tp3950
Rp3951
g3
(g7
S'ffffff\xe6?'
p3952
tp3953
Rp3954
tp3955
F1.0
ssS'(-4.0, 4.5, 0.7), (-3.9, 4.5, 0.7), (-3.9, 4.6, 0.7)'
p3956
(dp3957
(g3
(g7
S'333333\x0f\xc0'
p3958
tp3959
Rp3960
g3
(g7
S'\xcd\xcc\xcc\xcc\xcc\xcc\x12@'
p3961
tp3962
Rp3963
g3
(g7
S'ffffff\xe6?'
p3964
tp3965
Rp3966
tp3967
F1.0
ssS'(-3.6, 7.6, 0.8), (-3.6, 7.7, 0.8), (-3.5, 7.7, 0.8)'
p3968
(dp3969
(g3
(g7
S'\x00\x00\x00\x00\x00\x00\x0c\xc0'
p3970
tp3971
Rp3972
g3
(g7
S'333333\x1f@'
p3973
tp3974
Rp3975
g3
(g7
S'\x9a\x99\x99\x99\x99\x99\xe9?'
p3976
tp3977
Rp3978
tp3979
F1.0
ssS'(-3.9, 4.3, 0.7), (-3.8, 4.3, 0.7), (-3.8, 4.4, 0.7)'
p3980
(dp3981
(g3
(g7
S'ffffff\x0e\xc0'
p3982
tp3983
Rp3984
g3
(g7
S'\x00\x00\x00\x00\x00\x00\x12@'
p3985
tp3986
Rp3987
g3
(g7
S'ffffff\xe6?'
p3988
tp3989
Rp3990
tp3991
F1.0
ssS'(-3.8, 4.4, 0.7), (-3.8, 4.5, 0.7), (-3.8, 4.6, 0.7)'
p3992
(dp3993
(g3
(g7
S'ffffff\x0e\xc0'
p3994
tp3995
Rp3996
g3
(g7
S'\xcd\xcc\xcc\xcc\xcc\xcc\x12@'
p3997
tp3998
Rp3999
g3
(g7
S'ffffff\xe6?'
p4000
tp4001
Rp4002
tp4003
F1.0
ssS'(-1.5, 0.0, 1.0), (-1.6, 0.0, 1.0), (-1.7, 0.0, 1.0)'
p4004
(dp4005
(g3
(g7
S'\xcd\xcc\xcc\xcc\xcc\xcc\xfc\xbf'
p4006
tp4007
Rp4008
g3
(g7
S'\x00\x00\x00\x00\x00\x00\x00\x00'
p4009
tp4010
Rp4011
g3
(g7
S'\x00\x00\x00\x00\x00\x00\xf0?'
p4012
tp4013
Rp4014
tp4015
F1.0
ssS'(-4.1, 2.1, 0.7), (-4.0, 2.1, 0.7), (-4.0, 2.2, 0.7)'
p4016
(dp4017
(g3
(g7
S'\x00\x00\x00\x00\x00\x00\x10\xc0'
p4018
tp4019
Rp4020
g3
(g7
S'ffffff\x02@'
p4021
tp4022
Rp4023
g3
(g7
S'ffffff\xe6?'
p4024
tp4025
Rp4026
tp4027
F1.0
ssS'(-3.5, 7.5, 0.8), (-3.5, 7.6, 0.8), (-3.5, 7.7, 0.8)'
p4028
(dp4029
(g3
(g7
S'333333\x0b\xc0'
p4030
tp4031
Rp4032
g3
(g7
S'\xcd\xcc\xcc\xcc\xcc\xcc\x1e@'
p4033
tp4034
Rp4035
g3
(g7
S'\x9a\x99\x99\x99\x99\x99\xe9?'
p4036
tp4037
Rp4038
tp4039
F0.3333333333333333
s(g3
(g7
S'\x00\x00\x00\x00\x00\x00\x0c\xc0'
p4040
tp4041
Rp4042
g3
(g7
S'333333\x1f@'
p4043
tp4044
Rp4045
g3
(g7
S'\x9a\x99\x99\x99\x99\x99\xe9?'
p4046
tp4047
Rp4048
tp4049
F0.6666666666666666
ssS'(-3.6, 6.9, 0.8), (-3.6, 7.0, 0.8), (-3.5, 7.0, 0.8)'
p4050
(dp4051
(g3
(g7
S'\x00\x00\x00\x00\x00\x00\x0c\xc0'
p4052
tp4053
Rp4054
g3
(g7
S'ffffff\x1c@'
p4055
tp4056
Rp4057
g3
(g7
S'\x9a\x99\x99\x99\x99\x99\xe9?'
p4058
tp4059
Rp4060
tp4061
F1.0
ssS'(-3.9, 5.2, 0.7), (-3.9, 5.3, 0.7), (-3.9, 5.4, 0.7)'
p4062
(dp4063
(g3
(g7
S'333333\x0f\xc0'
p4064
tp4065
Rp4066
g3
(g7
S'\x00\x00\x00\x00\x00\x00\x16@'
p4067
tp4068
Rp4069
g3
(g7
S'ffffff\xe6?'
p4070
tp4071
Rp4072
tp4073
F1.0
ssS'(-3.9, 2.8, 0.7), (-3.9, 2.9, 0.7), (-3.9, 3.0, 0.7)'
p4074
(dp4075
(g3
(g7
S'333333\x0f\xc0'
p4076
tp4077
Rp4078
g3
(g7
S'\xcd\xcc\xcc\xcc\xcc\xcc\x08@'
p4079
tp4080
Rp4081
g3
(g7
S'ffffff\xe6?'
p4082
tp4083
Rp4084
tp4085
F1.0
ssS'(-4.0, 0.7, 0.7), (-4.0, 0.8, 0.7), (-4.0, 0.9, 0.7)'
p4086
(dp4087
(g3
(g7
S'\x00\x00\x00\x00\x00\x00\x10\xc0'
p4088
tp4089
Rp4090
g3
(g7
S'\x00\x00\x00\x00\x00\x00\xf0?'
p4091
tp4092
Rp4093
g3
(g7
S'ffffff\xe6?'
p4094
tp4095
Rp4096
tp4097
F1.0
ssS'(-3.9, 5.3, 0.7), (-3.9, 5.4, 0.7), (-3.9, 5.5, 0.7)'
p4098
(dp4099
(g3
(g7
S'ffffff\x0e\xc0'
p4100
tp4101
Rp4102
g3
(g7
S'\x00\x00\x00\x00\x00\x00\x16@'
p4103
tp4104
Rp4105
g3
(g7
S'ffffff\xe6?'
p4106
tp4107
Rp4108
tp4109
F0.5
s(g3
(g7
S'333333\x0f\xc0'
p4110
tp4111
Rp4112
g3
(g7
S'ffffff\x16@'
p4113
tp4114
Rp4115
g3
(g7
S'ffffff\xe6?'
p4116
tp4117
Rp4118
tp4119
F0.5
ssS'(-3.7, 6.5, 0.7), (-3.7, 6.6, 0.7), (-3.7, 6.7, 0.7)'
p4120
(dp4121
(g3
(g7
S'\x9a\x99\x99\x99\x99\x99\r\xc0'
p4122
tp4123
Rp4124
g3
(g7
S'333333\x1b@'
p4125
tp4126
Rp4127
g3
(g7
S'ffffff\xe6?'
p4128
tp4129
Rp4130
tp4131
F1.0
ssS'(-3.8, 5.2, 0.7), (-3.8, 5.3, 0.7), (-3.8, 5.4, 0.7)'
p4132
(dp4133
(g3
(g7
S'\x9a\x99\x99\x99\x99\x99\r\xc0'
p4134
tp4135
Rp4136
g3
(g7
S'\x9a\x99\x99\x99\x99\x99\x15@'
p4137
tp4138
Rp4139
g3
(g7
S'ffffff\xe6?'
p4140
tp4141
Rp4142
tp4143
F0.4
s(g3
(g7
S'ffffff\x0e\xc0'
p4144
tp4145
Rp4146
g3
(g7
S'\x00\x00\x00\x00\x00\x00\x16@'
p4147
tp4148
Rp4149
g3
(g7
S'ffffff\xe6?'
p4150
tp4151
Rp4152
tp4153
F0.6
ssS'(-3.6, 7.5, 0.8), (-3.6, 7.6, 0.8), (-3.6, 7.7, 0.8)'
p4154
(dp4155
(g3
(g7
S'\x00\x00\x00\x00\x00\x00\x0c\xc0'
p4156
tp4157
Rp4158
g3
(g7
S'\xcd\xcc\xcc\xcc\xcc\xcc\x1e@'
p4159
tp4160
Rp4161
g3
(g7
S'\x9a\x99\x99\x99\x99\x99\xe9?'
p4162
tp4163
Rp4164
tp4165
F0.3333333333333333
s(g3
(g7
S'\xcd\xcc\xcc\xcc\xcc\xcc\x0c\xc0'
p4166
tp4167
Rp4168
g3
(g7
S'333333\x1f@'
p4169
tp4170
Rp4171
g3
(g7
S'\x9a\x99\x99\x99\x99\x99\xe9?'
p4172
tp4173
Rp4174
tp4175
F0.6666666666666666
ssS'(-4.0, 2.3, 0.7), (-3.9, 2.3, 0.7), (-3.9, 2.4, 0.7)'
p4176
(dp4177
(g3
(g7
S'333333\x0f\xc0'
p4178
tp4179
Rp4180
g3
(g7
S'\x00\x00\x00\x00\x00\x00\x04@'
p4181
tp4182
Rp4183
g3
(g7
S'ffffff\xe6?'
p4184
tp4185
Rp4186
tp4187
F1.0
ssS'(-3.4, 8.3, 0.8), (-3.3, 8.3, 0.8), (-3.3, 8.4, 0.8)'
p4188
(dp4189
(g3
(g7
S'\x9a\x99\x99\x99\x99\x99\xb9\xbf'
p4190
tp4191
Rp4192
g3
(g7
S'\x00\x00\x00\x00\x00\x00\x00\x00'
p4193
tp4194
Rp4195
g3
(g7
S'\x00\x00\x00\x00\x00\x00\xf0?'
p4196
tp4197
Rp4198
tp4199
F1.0
ssS'(-4.0, 3.6, 0.7), (-4.0, 3.7, 0.7), (-4.0, 3.8, 0.7)'
p4200
(dp4201
(g3
(g7
S'\x00\x00\x00\x00\x00\x00\x10\xc0'
p4202
tp4203
Rp4204
g3
(g7
S'333333\x0f@'
p4205
tp4206
Rp4207
g3
(g7
S'ffffff\xe6?'
p4208
tp4209
Rp4210
tp4211
F1.0
ssS'(-3.9, 1.6, 0.7), (-3.9, 1.7, 0.7), (-3.9, 1.8, 0.7)'
p4212
(dp4213
(g3
(g7
S'333333\x0f\xc0'
p4214
tp4215
Rp4216
g3
(g7
S'ffffff\xfe?'
p4217
tp4218
Rp4219
g3
(g7
S'ffffff\xe6?'
p4220
tp4221
Rp4222
tp4223
F1.0
ssS'(-3.7, 6.3, 0.7), (-3.7, 6.4, 0.7), (-3.7, 6.5, 0.7)'
p4224
(dp4225
(g3
(g7
S'\x9a\x99\x99\x99\x99\x99\r\xc0'
p4226
tp4227
Rp4228
g3
(g7
S'ffffff\x1a@'
p4229
tp4230
Rp4231
g3
(g7
S'ffffff\xe6?'
p4232
tp4233
Rp4234
tp4235
F0.6
s(g3
(g7
S'\xcd\xcc\xcc\xcc\xcc\xcc\x0c\xc0'
p4236
tp4237
Rp4238
g3
(g7
S'\x00\x00\x00\x00\x00\x00\x1a@'
p4239
tp4240
Rp4241
g3
(g7
S'ffffff\xe6?'
p4242
tp4243
Rp4244
tp4245
F0.2
s(g3
(g7
S'\x9a\x99\x99\x99\x99\x99\r\xc0'
p4246
tp4247
Rp4248
g3
(g7
S'\x00\x00\x00\x00\x00\x00\x1a@'
p4249
tp4250
Rp4251
g3
(g7
S'\x9a\x99\x99\x99\x99\x99\xe9?'
p4252
tp4253
Rp4254
tp4255
F0.2
ssS'(-3.3, 0.0, 1.0), (-3.4, 0.0, 1.0), (-3.4, -0.1, 1.0)'
p4256
(dp4257
(g3
(g7
S'\x00\x00\x00\x00\x00\x00\x0c\xc0'
p4258
tp4259
Rp4260
g3
(g7
S'\x9a\x99\x99\x99\x99\x99\xb9\xbf'
p4261
tp4262
Rp4263
g3
(g7
S'\x00\x00\x00\x00\x00\x00\xf0?'
p4264
tp4265
Rp4266
tp4267
F1.0
ssS'(-3.9, -0.1, 0.7), (-3.9, 0.0, 0.7), (-3.9, 0.1, 0.7)'
p4268
(dp4269
(g3
(g7
S'\x00\x00\x00\x00\x00\x00\x10\xc0'
p4270
tp4271
Rp4272
g3
(g7
S'\x9a\x99\x99\x99\x99\x99\xb9?'
p4273
tp4274
Rp4275
g3
(g7
S'ffffff\xe6?'
p4276
tp4277
Rp4278
tp4279
F0.09090909090909091
s(g3
(g7
S'333333\x0f\xc0'
p4280
tp4281
Rp4282
g3
(g7
S'\x9a\x99\x99\x99\x99\x99\xc9?'
p4283
tp4284
Rp4285
g3
(g7
S'ffffff\xe6?'
p4286
tp4287
Rp4288
tp4289
F0.9090909090909091
ssS'(-2.9, 0.0, 1.0), (-3.0, 0.0, 1.0), (-3.1, 0.0, 1.0)'
p4290
(dp4291
(g3
(g7
S'\x9a\x99\x99\x99\x99\x99\t\xc0'
p4292
tp4293
Rp4294
g3
(g7
S'\x00\x00\x00\x00\x00\x00\x00\x00'
p4295
tp4296
Rp4297
g3
(g7
S'\x00\x00\x00\x00\x00\x00\xf0?'
p4298
tp4299
Rp4300
tp4301
F1.0
ssS'(-2.7, 0.0, 1.0), (-2.8, 0.0, 1.0), (-2.9, 0.0, 1.0)'
p4302
(dp4303
(g3
(g7
S'\x00\x00\x00\x00\x00\x00\x08\xc0'
p4304
tp4305
Rp4306
g3
(g7
S'\x00\x00\x00\x00\x00\x00\x00\x00'
p4307
tp4308
Rp4309
g3
(g7
S'\x00\x00\x00\x00\x00\x00\xf0?'
p4310
tp4311
Rp4312
tp4313
F1.0
ssS'(-3.9, 0.0, 0.7), (-3.9, 0.1, 0.7), (-4.0, 0.1, 0.7)'
p4314
(dp4315
(g3
(g7
S'\x00\x00\x00\x00\x00\x00\x10\xc0'
p4316
tp4317
Rp4318
g3
(g7
S'\x9a\x99\x99\x99\x99\x99\xc9?'
p4319
tp4320
Rp4321
g3
(g7
S'ffffff\xe6?'
p4322
tp4323
Rp4324
tp4325
F1.0
ssS'(-3.5, 7.9, 0.8), (-3.4, 7.9, 0.8), (-3.4, 8.0, 0.8)'
p4326
(dp4327
(g3
(g7
S'333333\x0b\xc0'
p4328
tp4329
Rp4330
g3
(g7
S'333333 @'
p4331
tp4332
Rp4333
g3
(g7
S'\x9a\x99\x99\x99\x99\x99\xe9?'
p4334
tp4335
Rp4336
tp4337
F1.0
ssS'(-3.9, 0.0, 0.8), (-3.9, 0.0, 0.7), (-3.9, 0.1, 0.7)'
p4338
(dp4339
(g3
(g7
S'333333\x0f\xc0'
p4340
tp4341
Rp4342
g3
(g7
S'\x9a\x99\x99\x99\x99\x99\xc9?'
p4343
tp4344
Rp4345
g3
(g7
S'ffffff\xe6?'
p4346
tp4347
Rp4348
tp4349
F1.0
ssS'(-3.8, 5.4, 0.7), (-3.8, 5.5, 0.7), (-3.7, 5.5, 0.7)'
p4350
(dp4351
(g3
(g7
S'\x9a\x99\x99\x99\x99\x99\r\xc0'
p4352
tp4353
Rp4354
g3
(g7
S'ffffff\x16@'
p4355
tp4356
Rp4357
g3
(g7
S'ffffff\xe6?'
p4358
tp4359
Rp4360
tp4361
F1.0
ssS'(-3.8, 5.9, 0.7), (-3.8, 6.0, 0.7), (-3.8, 6.1, 0.7)'
p4362
(dp4363
(g3
(g7
S'\x9a\x99\x99\x99\x99\x99\r\xc0'
p4364
tp4365
Rp4366
g3
(g7
S'ffffff\x18@'
p4367
tp4368
Rp4369
g3
(g7
S'ffffff\xe6?'
p4370
tp4371
Rp4372
tp4373
F0.3333333333333333
s(g3
(g7
S'ffffff\x0e\xc0'
p4374
tp4375
Rp4376
g3
(g7
S'\xcd\xcc\xcc\xcc\xcc\xcc\x18@'
p4377
tp4378
Rp4379
g3
(g7
S'ffffff\xe6?'
p4380
tp4381
Rp4382
tp4383
F0.6666666666666666
ssS'(-3.4, 8.2, 0.8), (-3.3, 8.2, 0.8), (-3.3, 8.3, 0.8)'
p4384
(dp4385
(g3
(g7
S'ffffff\n\xc0'
p4386
tp4387
Rp4388
g3
(g7
S'\xcd\xcc\xcc\xcc\xcc\xcc @'
p4389
tp4390
Rp4391
g3
(g7
S'\x9a\x99\x99\x99\x99\x99\xe9?'
p4392
tp4393
Rp4394
tp4395
F1.0
ssS'(-4.0, 2.8, 0.7), (-4.0, 2.9, 0.7), (-4.0, 3.0, 0.7)'
p4396
(dp4397
(g3
(g7
S'\x00\x00\x00\x00\x00\x00\x10\xc0'
p4398
tp4399
Rp4400
g3
(g7
S'\xcd\xcc\xcc\xcc\xcc\xcc\x08@'
p4401
tp4402
Rp4403
g3
(g7
S'ffffff\xe6?'
p4404
tp4405
Rp4406
tp4407
F1.0
ssS'(-3.9, 5.0, 0.7), (-3.9, 5.1, 0.7), (-3.9, 5.2, 0.7)'
p4408
(dp4409
(g3
(g7
S'333333\x0f\xc0'
p4410
tp4411
Rp4412
g3
(g7
S'333333\x15@'
p4413
tp4414
Rp4415
g3
(g7
S'ffffff\xe6?'
p4416
tp4417
Rp4418
tp4419
F1.0
ssS'(-3.7, 7.1, 0.8), (-3.7, 7.2, 0.8), (-3.7, 7.3, 0.8)'
p4420
(dp4421
(g3
(g7
S'\x9a\x99\x99\x99\x99\x99\r\xc0'
p4422
tp4423
Rp4424
g3
(g7
S'\x9a\x99\x99\x99\x99\x99\x1d@'
p4425
tp4426
Rp4427
g3
(g7
S'\x9a\x99\x99\x99\x99\x99\xe9?'
p4428
tp4429
Rp4430
tp4431
F1.0
ssS'(-3.9, 3.3, 0.7), (-3.9, 3.4, 0.7), (-3.9, 3.5, 0.7)'
p4432
(dp4433
(g3
(g7
S'333333\x0f\xc0'
p4434
tp4435
Rp4436
g3
(g7
S'\xcd\xcc\xcc\xcc\xcc\xcc\x0c@'
p4437
tp4438
Rp4439
g3
(g7
S'ffffff\xe6?'
p4440
tp4441
Rp4442
tp4443
F1.0
ssS'(-2.6, 0.0, 1.0), (-2.7, 0.0, 1.0), (-2.8, 0.0, 1.0)'
p4444
(dp4445
(g3
(g7
S'333333\x07\xc0'
p4446
tp4447
Rp4448
g3
(g7
S'\x00\x00\x00\x00\x00\x00\x00\x00'
p4449
tp4450
Rp4451
g3
(g7
S'\x00\x00\x00\x00\x00\x00\xf0?'
p4452
tp4453
Rp4454
tp4455
F1.0
ssS'(-3.9, -0.1, 1.0), (-3.9, -0.1, 0.9), (-3.9, -0.1, 0.8)'
p4456
(dp4457
(g3
(g7
S'333333\x0f\xc0'
p4458
tp4459
Rp4460
g3
(g7
S'\x9a\x99\x99\x99\x99\x99\xb9\xbf'
p4461
tp4462
Rp4463
g3
(g7
S'ffffff\xe6?'
p4464
tp4465
Rp4466
tp4467
F1.0
ssS'(-2.0, 0.0, 1.0), (-2.1, 0.0, 1.0), (-2.2, 0.0, 1.0)'
p4468
(dp4469
(g3
(g7
S'ffffff\x02\xc0'
p4470
tp4471
Rp4472
g3
(g7
S'\x00\x00\x00\x00\x00\x00\x00\x00'
p4473
tp4474
Rp4475
g3
(g7
S'\x00\x00\x00\x00\x00\x00\xf0?'
p4476
tp4477
Rp4478
tp4479
F1.0
ssS'(-3.9, 2.2, 0.7), (-3.9, 2.3, 0.7), (-3.9, 2.4, 0.7)'
p4480
(dp4481
(g3
(g7
S'333333\x0f\xc0'
p4482
tp4483
Rp4484
g3
(g7
S'\x00\x00\x00\x00\x00\x00\x04@'
p4485
tp4486
Rp4487
g3
(g7
S'ffffff\xe6?'
p4488
tp4489
Rp4490
tp4491
F1.0
ssS'(-3.9, 4.8, 0.7), (-3.8, 4.8, 0.7), (-3.8, 4.9, 0.7)'
p4492
(dp4493
(g3
(g7
S'ffffff\x0e\xc0'
p4494
tp4495
Rp4496
g3
(g7
S'\x00\x00\x00\x00\x00\x00\x14@'
p4497
tp4498
Rp4499
g3
(g7
S'ffffff\xe6?'
p4500
tp4501
Rp4502
tp4503
F1.0
ssS'(-3.8, 5.9, 0.7), (-3.8, 6.0, 0.7), (-3.7, 6.0, 0.7)'
p4504
(dp4505
(g3
(g7
S'\x9a\x99\x99\x99\x99\x99\r\xc0'
p4506
tp4507
Rp4508
g3
(g7
S'ffffff\x18@'
p4509
tp4510
Rp4511
g3
(g7
S'ffffff\xe6?'
p4512
tp4513
Rp4514
tp4515
F1.0
ssS'(-3.5, 0.0, 1.0), (-3.5, -0.1, 1.0), (-3.6, -0.1, 1.0)'
p4516
(dp4517
(g3
(g7
S'\x9a\x99\x99\x99\x99\x99\r\xc0'
p4518
tp4519
Rp4520
g3
(g7
S'\x9a\x99\x99\x99\x99\x99\xb9\xbf'
p4521
tp4522
Rp4523
g3
(g7
S'\x00\x00\x00\x00\x00\x00\xf0?'
p4524
tp4525
Rp4526
tp4527
F1.0
ssS'(-3.9, 0.0, 0.7), (-3.9, 0.1, 0.7), (-3.9, 0.2, 0.7)'
p4528
(dp4529
(g3
(g7
S'333333\x0f\xc0'
p4530
tp4531
Rp4532
g3
(g7
S'333333\xd3?'
p4533
tp4534
Rp4535
g3
(g7
S'ffffff\xe6?'
p4536
tp4537
Rp4538
tp4539
F1.0
ssS'(-3.9, 0.5, 0.7), (-3.9, 0.6, 0.7), (-3.9, 0.7, 0.7)'
p4540
(dp4541
(g3
(g7
S'333333\x0f\xc0'
p4542
tp4543
Rp4544
g3
(g7
S'\x9a\x99\x99\x99\x99\x99\xe9?'
p4545
tp4546
Rp4547
g3
(g7
S'ffffff\xe6?'
p4548
tp4549
Rp4550
tp4551
F1.0
ssS'(-3.6, 6.3, 0.7), (-3.6, 6.3, 0.8), (-3.6, 6.4, 0.8)'
p4552
(dp4553
(g3
(g7
S'\xcd\xcc\xcc\xcc\xcc\xcc\x0c\xc0'
p4554
tp4555
Rp4556
g3
(g7
S'\x00\x00\x00\x00\x00\x00\x1a@'
p4557
tp4558
Rp4559
g3
(g7
S'\x9a\x99\x99\x99\x99\x99\xe9?'
p4560
tp4561
Rp4562
tp4563
F1.0
ssS'(-3.4, 8.2, 0.8), (-3.4, 8.3, 0.8), (-3.3, 8.3, 0.8)'
p4564
(dp4565
(g3
(g7
S'ffffff\n\xc0'
p4566
tp4567
Rp4568
g3
(g7
S'\xcd\xcc\xcc\xcc\xcc\xcc @'
p4569
tp4570
Rp4571
g3
(g7
S'\x9a\x99\x99\x99\x99\x99\xe9?'
p4572
tp4573
Rp4574
tp4575
F1.0
ssS'(-3.5, 7.5, 0.8), (-3.5, 7.6, 0.8), (-3.4, 7.6, 0.8)'
p4576
(dp4577
(g3
(g7
S'333333\x0b\xc0'
p4578
tp4579
Rp4580
g3
(g7
S'\xcd\xcc\xcc\xcc\xcc\xcc\x1e@'
p4581
tp4582
Rp4583
g3
(g7
S'\x9a\x99\x99\x99\x99\x99\xe9?'
p4584
tp4585
Rp4586
tp4587
F1.0
ssS'(-3.6, 6.9, 0.7), (-3.6, 7.0, 0.7), (-3.6, 7.0, 0.8)'
p4588
(dp4589
(g3
(g7
S'\xcd\xcc\xcc\xcc\xcc\xcc\x0c\xc0'
p4590
tp4591
Rp4592
g3
(g7
S'ffffff\x1c@'
p4593
tp4594
Rp4595
g3
(g7
S'\x9a\x99\x99\x99\x99\x99\xe9?'
p4596
tp4597
Rp4598
tp4599
F1.0
ssS'(-3.7, 6.6, 0.8), (-3.6, 6.6, 0.8), (-3.6, 6.7, 0.8)'
p4600
(dp4601
(g3
(g7
S'\xcd\xcc\xcc\xcc\xcc\xcc\x0c\xc0'
p4602
tp4603
Rp4604
g3
(g7
S'333333\x1b@'
p4605
tp4606
Rp4607
g3
(g7
S'\x9a\x99\x99\x99\x99\x99\xe9?'
p4608
tp4609
Rp4610
tp4611
F1.0
ssS'(-3.6, 6.5, 0.7), (-3.6, 6.6, 0.7), (-3.6, 6.7, 0.7)'
p4612
(dp4613
(g3
(g7
S'\xcd\xcc\xcc\xcc\xcc\xcc\x0c\xc0'
p4614
tp4615
Rp4616
g3
(g7
S'\xcd\xcc\xcc\xcc\xcc\xcc\x1a@'
p4617
tp4618
Rp4619
g3
(g7
S'\x9a\x99\x99\x99\x99\x99\xe9?'
p4620
tp4621
Rp4622
tp4623
F1.0
ssS'(-3.9, 0.1, 0.7), (-3.9, 0.2, 0.7), (-3.9, 0.3, 0.7)'
p4624
(dp4625
(g3
(g7
S'333333\x0f\xc0'
p4626
tp4627
Rp4628
g3
(g7
S'\x9a\x99\x99\x99\x99\x99\xd9?'
p4629
tp4630
Rp4631
g3
(g7
S'ffffff\xe6?'
p4632
tp4633
Rp4634
tp4635
F1.0
ssS'(-4.0, 1.7, 0.7), (-3.9, 1.7, 0.7), (-3.9, 1.8, 0.7)'
p4636
(dp4637
(g3
(g7
S'333333\x0f\xc0'
p4638
tp4639
Rp4640
g3
(g7
S'ffffff\xfe?'
p4641
tp4642
Rp4643
g3
(g7
S'ffffff\xe6?'
p4644
tp4645
Rp4646
tp4647
F1.0
ssS'(-3.2, 0.0, 1.0), (-3.3, 0.0, 1.0), (-3.3, -0.1, 1.0)'
p4648
(dp4649
(g3
(g7
S'333333\x0b\xc0'
p4650
tp4651
Rp4652
g3
(g7
S'\x9a\x99\x99\x99\x99\x99\xb9\xbf'
p4653
tp4654
Rp4655
g3
(g7
S'\x00\x00\x00\x00\x00\x00\xf0?'
p4656
tp4657
Rp4658
tp4659
F1.0
ssS'(-4.0, -0.1, 1.0), (-4.0, -0.1, 0.9), (-4.0, -0.1, 0.8)'
p4660
(dp4661
(g3
(g7
S'\x00\x00\x00\x00\x00\x00\x10\xc0'
p4662
tp4663
Rp4664
g3
(g7
S'\x9a\x99\x99\x99\x99\x99\xb9\xbf'
p4665
tp4666
Rp4667
g3
(g7
S'ffffff\xe6?'
p4668
tp4669
Rp4670
tp4671
F1.0
ssS'(-4.0, 1.2, 0.7), (-4.0, 1.3, 0.7), (-4.0, 1.4, 0.7)'
p4672
(dp4673
(g3
(g7
S'\x00\x00\x00\x00\x00\x00\x10\xc0'
p4674
tp4675
Rp4676
g3
(g7
S'\x00\x00\x00\x00\x00\x00\xf8?'
p4677
tp4678
Rp4679
g3
(g7
S'ffffff\xe6?'
p4680
tp4681
Rp4682
tp4683
F1.0
ssS'(-3.8, 4.7, 0.7), (-3.8, 4.8, 0.7), (-3.8, 4.9, 0.7)'
p4684
(dp4685
(g3
(g7
S'ffffff\x0e\xc0'
p4686
tp4687
Rp4688
g3
(g7
S'\x00\x00\x00\x00\x00\x00\x14@'
p4689
tp4690
Rp4691
g3
(g7
S'ffffff\xe6?'
p4692
tp4693
Rp4694
tp4695
F1.0
ssS'(-3.4, 7.6, 0.8), (-3.4, 7.7, 0.8), (-3.4, 7.8, 0.8)'
p4696
(dp4697
(g3
(g7
S'333333\x0b\xc0'
p4698
tp4699
Rp4700
g3
(g7
S'\x9a\x99\x99\x99\x99\x99\x1f@'
p4701
tp4702
Rp4703
g3
(g7
S'\x9a\x99\x99\x99\x99\x99\xe9?'
p4704
tp4705
Rp4706
tp4707
F1.0
ssS'(-3.9, 4.5, 0.7), (-3.9, 4.6, 0.7), (-3.8, 4.6, 0.7)'
p4708
(dp4709
(g3
(g7
S'ffffff\x0e\xc0'
p4710
tp4711
Rp4712
g3
(g7
S'\xcd\xcc\xcc\xcc\xcc\xcc\x12@'
p4713
tp4714
Rp4715
g3
(g7
S'ffffff\xe6?'
p4716
tp4717
Rp4718
tp4719
F1.0
ssS'(-4.0, 2.9, 0.7), (-3.9, 2.9, 0.7), (-3.9, 3.0, 0.7)'
p4720
(dp4721
(g3
(g7
S'333333\x0f\xc0'
p4722
tp4723
Rp4724
g3
(g7
S'\xcd\xcc\xcc\xcc\xcc\xcc\x08@'
p4725
tp4726
Rp4727
g3
(g7
S'ffffff\xe6?'
p4728
tp4729
Rp4730
tp4731
F1.0
ssS'(-2.5, 0.0, 1.0), (-2.6, 0.0, 1.0), (-2.7, 0.0, 1.0)'
p4732
(dp4733
(g3
(g7
S'ffffff\x06\xc0'
p4734
tp4735
Rp4736
g3
(g7
S'\x00\x00\x00\x00\x00\x00\x00\x00'
p4737
tp4738
Rp4739
g3
(g7
S'\x00\x00\x00\x00\x00\x00\xf0?'
p4740
tp4741
Rp4742
tp4743
F1.0
ssS'(-4.1, 1.9, 0.7), (-4.1, 2.0, 0.7), (-4.1, 2.1, 0.7)'
p4744
(dp4745
(g3
(g7
S'\x00\x00\x00\x00\x00\x00\x10\xc0'
p4746
tp4747
Rp4748
g3
(g7
S'\xcd\xcc\xcc\xcc\xcc\xcc\x00@'
p4749
tp4750
Rp4751
g3
(g7
S'ffffff\xe6?'
p4752
tp4753
Rp4754
tp4755
F1.0
ssS'(-3.6, 0.0, 1.0), (-3.7, 0.0, 1.0), (-3.8, 0.0, 1.0)'
p4756
(dp4757
(g3
(g7
S'333333\x0f\xc0'
p4758
tp4759
Rp4760
g3
(g7
S'\x00\x00\x00\x00\x00\x00\x00\x00'
p4761
tp4762
Rp4763
g3
(g7
S'\x00\x00\x00\x00\x00\x00\xf0?'
p4764
tp4765
Rp4766
tp4767
F0.25
s(g3
(g7
S'ffffff\x0e\xc0'
p4768
tp4769
Rp4770
g3
(g7
S'\x9a\x99\x99\x99\x99\x99\xb9\xbf'
p4771
tp4772
Rp4773
g3
(g7
S'\x00\x00\x00\x00\x00\x00\xf0?'
p4774
tp4775
Rp4776
tp4777
F0.75
ssS'(-3.9, 4.0, 0.7), (-3.9, 4.1, 0.7), (-3.9, 4.2, 0.7)'
p4778
(dp4779
(g3
(g7
S'333333\x0f\xc0'
p4780
tp4781
Rp4782
g3
(g7
S'333333\x11@'
p4783
tp4784
Rp4785
g3
(g7
S'ffffff\xe6?'
p4786
tp4787
Rp4788
tp4789
F0.6
s(g3
(g7
S'ffffff\x0e\xc0'
p4790
tp4791
Rp4792
g3
(g7
S'\xcd\xcc\xcc\xcc\xcc\xcc\x10@'
p4793
tp4794
Rp4795
g3
(g7
S'ffffff\xe6?'
p4796
tp4797
Rp4798
tp4799
F0.4
ssS'(-2.9, 0.0, 1.0), (-3.0, 0.0, 1.0), (-3.0, -0.1, 1.0)'
p4800
(dp4801
(g3
(g7
S'\xcd\xcc\xcc\xcc\xcc\xcc\x08\xc0'
p4802
tp4803
Rp4804
g3
(g7
S'\x9a\x99\x99\x99\x99\x99\xb9\xbf'
p4805
tp4806
Rp4807
g3
(g7
S'\x00\x00\x00\x00\x00\x00\xf0?'
p4808
tp4809
Rp4810
tp4811
F1.0
ssS'(-3.9, 2.9, 0.7), (-3.9, 3.0, 0.7), (-3.9, 3.1, 0.7)'
p4812
(dp4813
(g3
(g7
S'333333\x0f\xc0'
p4814
tp4815
Rp4816
g3
(g7
S'\x9a\x99\x99\x99\x99\x99\t@'
p4817
tp4818
Rp4819
g3
(g7
S'ffffff\xe6?'
p4820
tp4821
Rp4822
tp4823
F1.0
ssS'(-3.7, 6.2, 0.7), (-3.7, 6.3, 0.7), (-3.6, 6.3, 0.7)'
p4824
(dp4825
(g3
(g7
S'\xcd\xcc\xcc\xcc\xcc\xcc\x0c\xc0'
p4826
tp4827
Rp4828
g3
(g7
S'\x9a\x99\x99\x99\x99\x99\x19@'
p4829
tp4830
Rp4831
g3
(g7
S'ffffff\xe6?'
p4832
tp4833
Rp4834
tp4835
F1.0
ssS'(-3.6, 7.4, 0.8), (-3.6, 7.5, 0.8), (-3.6, 7.6, 0.8)'
p4836
(dp4837
(g3
(g7
S'\x00\x00\x00\x00\x00\x00\x0c\xc0'
p4838
tp4839
Rp4840
g3
(g7
S'ffffff\x1e@'
p4841
tp4842
Rp4843
g3
(g7
S'\x9a\x99\x99\x99\x99\x99\xe9?'
p4844
tp4845
Rp4846
tp4847
F0.25
s(g3
(g7
S'\xcd\xcc\xcc\xcc\xcc\xcc\x0c\xc0'
p4848
tp4849
Rp4850
g3
(g7
S'\xcd\xcc\xcc\xcc\xcc\xcc\x1e@'
p4851
tp4852
Rp4853
g3
(g7
S'\x9a\x99\x99\x99\x99\x99\xe9?'
p4854
tp4855
Rp4856
tp4857
F0.75
ssS'(-3.6, 7.2, 0.8), (-3.6, 7.3, 0.8), (-3.6, 7.4, 0.8)'
p4858
(dp4859
(g3
(g7
S'\xcd\xcc\xcc\xcc\xcc\xcc\x0c\xc0'
p4860
tp4861
Rp4862
g3
(g7
S'\x00\x00\x00\x00\x00\x00\x1e@'
p4863
tp4864
Rp4865
g3
(g7
S'\x9a\x99\x99\x99\x99\x99\xe9?'
p4866
tp4867
Rp4868
tp4869
F0.75
s(g3
(g7
S'\x00\x00\x00\x00\x00\x00\x0c\xc0'
p4870
tp4871
Rp4872
g3
(g7
S'\x9a\x99\x99\x99\x99\x99\x1d@'
p4873
tp4874
Rp4875
g3
(g7
S'\x9a\x99\x99\x99\x99\x99\xe9?'
p4876
tp4877
Rp4878
tp4879
F0.25
ssS'(-3.9, 5.7, 0.7), (-3.8, 5.7, 0.7), (-3.8, 5.8, 0.7)'
p4880
(dp4881
(g3
(g7
S'ffffff\x0e\xc0'
p4882
tp4883
Rp4884
g3
(g7
S'\x9a\x99\x99\x99\x99\x99\x17@'
p4885
tp4886
Rp4887
g3
(g7
S'ffffff\xe6?'
p4888
tp4889
Rp4890
tp4891
F1.0
ssS'(-3.9, 0.1, 0.7), (-4.0, 0.1, 0.7), (-4.0, 0.2, 0.7)'
p4892
(dp4893
(g3
(g7
S'\x00\x00\x00\x00\x00\x00\x10\xc0'
p4894
tp4895
Rp4896
g3
(g7
S'333333\xd3?'
p4897
tp4898
Rp4899
g3
(g7
S'ffffff\xe6?'
p4900
tp4901
Rp4902
tp4903
F1.0
ssS'(-3.9, 4.6, 0.7), (-3.8, 4.6, 0.7), (-3.8, 4.7, 0.7)'
p4904
(dp4905
(g3
(g7
S'ffffff\x0e\xc0'
p4906
tp4907
Rp4908
g3
(g7
S'333333\x13@'
p4909
tp4910
Rp4911
g3
(g7
S'ffffff\xe6?'
p4912
tp4913
Rp4914
tp4915
F1.0
ssS'(-3.9, 1.4, 0.7), (-3.9, 1.5, 0.7), (-3.9, 1.6, 0.7)'
p4916
(dp4917
(g3
(g7
S'333333\x0f\xc0'
p4918
tp4919
Rp4920
g3
(g7
S'333333\xfb?'
p4921
tp4922
Rp4923
g3
(g7
S'ffffff\xe6?'
p4924
tp4925
Rp4926
tp4927
F1.0
ssS'(-3.8, 6.3, 0.7), (-3.8, 6.4, 0.7), (-3.7, 6.4, 0.7)'
p4928
(dp4929
(g3
(g7
S'\x9a\x99\x99\x99\x99\x99\r\xc0'
p4930
tp4931
Rp4932
g3
(g7
S'\x00\x00\x00\x00\x00\x00\x1a@'
p4933
tp4934
Rp4935
g3
(g7
S'ffffff\xe6?'
p4936
tp4937
Rp4938
tp4939
F1.0
ssS'(-3.6, 7.8, 0.8), (-3.5, 7.8, 0.8), (-3.5, 7.9, 0.8)'
p4940
(dp4941
(g3
(g7
S'\x00\x00\x00\x00\x00\x00\x0c\xc0'
p4942
tp4943
Rp4944
g3
(g7
S'\x00\x00\x00\x00\x00\x00 @'
p4945
tp4946
Rp4947
g3
(g7
S'\x9a\x99\x99\x99\x99\x99\xe9?'
p4948
tp4949
Rp4950
tp4951
F1.0
ssS'(-3.9, 4.9, 0.7), (-3.9, 5.0, 0.7), (-3.9, 5.1, 0.7)'
p4952
(dp4953
(g3
(g7
S'333333\x0f\xc0'
p4954
tp4955
Rp4956
g3
(g7
S'\xcd\xcc\xcc\xcc\xcc\xcc\x14@'
p4957
tp4958
Rp4959
g3
(g7
S'ffffff\xe6?'
p4960
tp4961
Rp4962
tp4963
F1.0
ssS'(-3.8, 4.3, 0.7), (-3.8, 4.4, 0.7), (-3.8, 4.5, 0.7)'
p4964
(dp4965
(g3
(g7
S'ffffff\x0e\xc0'
p4966
tp4967
Rp4968
g3
(g7
S'ffffff\x12@'
p4969
tp4970
Rp4971
g3
(g7
S'ffffff\xe6?'
p4972
tp4973
Rp4974
tp4975
F1.0
ssS'(-4.0, 4.0, 0.7), (-4.0, 4.1, 0.7), (-4.0, 4.2, 0.7)'
p4976
(dp4977
(g3
(g7
S'\x00\x00\x00\x00\x00\x00\x10\xc0'
p4978
tp4979
Rp4980
g3
(g7
S'333333\x11@'
p4981
tp4982
Rp4983
g3
(g7
S'ffffff\xe6?'
p4984
tp4985
Rp4986
tp4987
F1.0
ssS'(-3.8, 5.5, 0.7), (-3.7, 5.5, 0.7), (-3.7, 5.6, 0.7)'
p4988
(dp4989
(g3
(g7
S'\x9a\x99\x99\x99\x99\x99\r\xc0'
p4990
tp4991
Rp4992
g3
(g7
S'\xcd\xcc\xcc\xcc\xcc\xcc\x16@'
p4993
tp4994
Rp4995
g3
(g7
S'ffffff\xe6?'
p4996
tp4997
Rp4998
tp4999
F1.0
ssS'(-3.4, 7.8, 0.8), (-3.4, 7.9, 0.8), (-3.4, 8.0, 0.8)'
p5000
(dp5001
(g3
(g7
S'333333\x0b\xc0'
p5002
tp5003
Rp5004
g3
(g7
S'333333 @'
p5005
tp5006
Rp5007
g3
(g7
S'\x9a\x99\x99\x99\x99\x99\xe9?'
p5008
tp5009
Rp5010
tp5011
F1.0
ssS'(-3.7, 6.4, 0.7), (-3.7, 6.5, 0.7), (-3.6, 6.5, 0.7)'
p5012
(dp5013
(g3
(g7
S'\xcd\xcc\xcc\xcc\xcc\xcc\x0c\xc0'
p5014
tp5015
Rp5016
g3
(g7
S'ffffff\x1a@'
p5017
tp5018
Rp5019
g3
(g7
S'ffffff\xe6?'
p5020
tp5021
Rp5022
tp5023
F1.0
ssS'(-4.0, 3.8, 0.7), (-4.0, 3.9, 0.7), (-4.0, 4.0, 0.7)'
p5024
(dp5025
(g3
(g7
S'\x00\x00\x00\x00\x00\x00\x10\xc0'
p5026
tp5027
Rp5028
g3
(g7
S'ffffff\x10@'
p5029
tp5030
Rp5031
g3
(g7
S'ffffff\xe6?'
p5032
tp5033
Rp5034
tp5035
F1.0
ssS'(-3.9, 0.3, 0.7), (-3.9, 0.4, 0.7), (-3.9, 0.5, 0.7)'
p5036
(dp5037
(g3
(g7
S'333333\x0f\xc0'
p5038
tp5039
Rp5040
g3
(g7
S'333333\xe3?'
p5041
tp5042
Rp5043
g3
(g7
S'ffffff\xe6?'
p5044
tp5045
Rp5046
tp5047
F1.0
ssS'(-3.3, -0.1, 1.0), (-3.4, -0.1, 1.0), (-3.5, -0.1, 1.0)'
p5048
(dp5049
(g3
(g7
S'\xcd\xcc\xcc\xcc\xcc\xcc\x0c\xc0'
p5050
tp5051
Rp5052
g3
(g7
S'\x9a\x99\x99\x99\x99\x99\xb9\xbf'
p5053
tp5054
Rp5055
g3
(g7
S'\x00\x00\x00\x00\x00\x00\xf0?'
p5056
tp5057
Rp5058
tp5059
F1.0
ssS'(-4.0, 0.3, 0.7), (-4.0, 0.4, 0.7), (-4.0, 0.5, 0.7)'
p5060
(dp5061
(g3
(g7
S'\x00\x00\x00\x00\x00\x00\x10\xc0'
p5062
tp5063
Rp5064
g3
(g7
S'333333\xe3?'
p5065
tp5066
Rp5067
g3
(g7
S'ffffff\xe6?'
p5068
tp5069
Rp5070
tp5071
F1.0
ssS'(-3.6, 6.5, 0.8), (-3.6, 6.6, 0.8), (-3.6, 6.7, 0.8)'
p5072
(dp5073
(g3
(g7
S'\xcd\xcc\xcc\xcc\xcc\xcc\x0c\xc0'
p5074
tp5075
Rp5076
g3
(g7
S'333333\x1b@'
p5077
tp5078
Rp5079
g3
(g7
S'\x9a\x99\x99\x99\x99\x99\xe9?'
p5080
tp5081
Rp5082
tp5083
F1.0
ssS'(-4.0, 1.8, 0.7), (-4.0, 1.9, 0.7), (-4.0, 2.0, 0.7)'
p5084
(dp5085
(g3
(g7
S'\x00\x00\x00\x00\x00\x00\x10\xc0'
p5086
tp5087
Rp5088
g3
(g7
S'\xcd\xcc\xcc\xcc\xcc\xcc\x00@'
p5089
tp5090
Rp5091
g3
(g7
S'ffffff\xe6?'
p5092
tp5093
Rp5094
tp5095
F0.8
s(g3
(g7
S'333333\x0f\xc0'
p5096
tp5097
Rp5098
g3
(g7
S'\x00\x00\x00\x00\x00\x00\x00@'
p5099
tp5100
Rp5101
g3
(g7
S'ffffff\xe6?'
p5102
tp5103
Rp5104
tp5105
F0.2
ssS'(-3.9, 4.9, 0.7), (-3.9, 5.0, 0.7), (-3.8, 5.0, 0.7)'
p5106
(dp5107
(g3
(g7
S'ffffff\x0e\xc0'
p5108
tp5109
Rp5110
g3
(g7
S'ffffff\x14@'
p5111
tp5112
Rp5113
g3
(g7
S'ffffff\xe6?'
p5114
tp5115
Rp5116
tp5117
F1.0
ssS'(-3.9, 3.8, 0.7), (-3.9, 3.9, 0.7), (-3.9, 4.0, 0.7)'
p5118
(dp5119
(g3
(g7
S'333333\x0f\xc0'
p5120
tp5121
Rp5122
g3
(g7
S'ffffff\x10@'
p5123
tp5124
Rp5125
g3
(g7
S'ffffff\xe6?'
p5126
tp5127
Rp5128
tp5129
F1.0
ssS'(-3.6, 7.7, 0.8), (-3.6, 7.8, 0.8), (-3.6, 7.9, 0.8)'
p5130
(dp5131
(g3
(g7
S'\xcd\xcc\xcc\xcc\xcc\xcc\x0c\xc0'
p5132
tp5133
Rp5134
g3
(g7
S'\x00\x00\x00\x00\x00\x00 @'
p5135
tp5136
Rp5137
g3
(g7
S'\x9a\x99\x99\x99\x99\x99\xe9?'
p5138
tp5139
Rp5140
tp5141
F1.0
ssS'(-3.6, 7.4, 0.8), (-3.5, 7.4, 0.8), (-3.5, 7.5, 0.8)'
p5142
(dp5143
(g3
(g7
S'\x00\x00\x00\x00\x00\x00\x0c\xc0'
p5144
tp5145
Rp5146
g3
(g7
S'ffffff\x1e@'
p5147
tp5148
Rp5149
g3
(g7
S'\x9a\x99\x99\x99\x99\x99\xe9?'
p5150
tp5151
Rp5152
tp5153
F1.0
ssS'(-3.7, -0.1, 1.0), (-3.8, -0.1, 1.0), (-3.9, -0.1, 1.0)'
p5154
(dp5155
(g3
(g7
S'333333\x0f\xc0'
p5156
tp5157
Rp5158
g3
(g7
S'\x9a\x99\x99\x99\x99\x99\xb9\xbf'
p5159
tp5160
Rp5161
g3
(g7
S'\xcd\xcc\xcc\xcc\xcc\xcc\xec?'
p5162
tp5163
Rp5164
tp5165
F0.9
s(g3
(g7
S'\x00\x00\x00\x00\x00\x00\x10\xc0'
p5166
tp5167
Rp5168
g3
(g7
S'\x9a\x99\x99\x99\x99\x99\xb9\xbf'
p5169
tp5170
Rp5171
g3
(g7
S'\x00\x00\x00\x00\x00\x00\xf0?'
p5172
tp5173
Rp5174
tp5175
F0.1
ssS'(-3.4, 8.3, 0.8), (-3.4, 8.4, 0.8), (-0.1, 0.0, 1.0)'
p5176
(dp5177
(g3
(g7
S'\x9a\x99\x99\x99\x99\x99\xc9\xbf'
p5178
tp5179
Rp5180
g3
(g7
S'\x00\x00\x00\x00\x00\x00\x00\x00'
p5181
tp5182
Rp5183
g3
(g7
S'\x00\x00\x00\x00\x00\x00\xf0?'
p5184
tp5185
Rp5186
tp5187
F1.0
ssS'(-3.6, 6.2, 0.7), (-3.6, 6.3, 0.7), (-3.6, 6.3, 0.8)'
p5188
(dp5189
(g3
(g7
S'\xcd\xcc\xcc\xcc\xcc\xcc\x0c\xc0'
p5190
tp5191
Rp5192
g3
(g7
S'\x9a\x99\x99\x99\x99\x99\x19@'
p5193
tp5194
Rp5195
g3
(g7
S'\x9a\x99\x99\x99\x99\x99\xe9?'
p5196
tp5197
Rp5198
tp5199
F1.0
ssS'(-3.7, 5.3, 0.7), (-3.7, 5.4, 0.7), (-3.7, 5.5, 0.7)'
p5200
(dp5201
(g3
(g7
S'\x9a\x99\x99\x99\x99\x99\r\xc0'
p5202
tp5203
Rp5204
g3
(g7
S'ffffff\x16@'
p5205
tp5206
Rp5207
g3
(g7
S'ffffff\xe6?'
p5208
tp5209
Rp5210
tp5211
F1.0
ssS'(-4.0, 2.0, 0.7), (-4.0, 2.1, 0.7), (-4.0, 2.2, 0.7)'
p5212
(dp5213
(g3
(g7
S'\x00\x00\x00\x00\x00\x00\x10\xc0'
p5214
tp5215
Rp5216
g3
(g7
S'ffffff\x02@'
p5217
tp5218
Rp5219
g3
(g7
S'ffffff\xe6?'
p5220
tp5221
Rp5222
tp5223
F1.0
ssS'(-3.9, 4.0, 0.7), (-3.9, 4.1, 0.7), (-3.8, 4.1, 0.7)'
p5224
(dp5225
(g3
(g7
S'ffffff\x0e\xc0'
p5226
tp5227
Rp5228
g3
(g7
S'\xcd\xcc\xcc\xcc\xcc\xcc\x10@'
p5229
tp5230
Rp5231
g3
(g7
S'ffffff\xe6?'
p5232
tp5233
Rp5234
tp5235
F1.0
ssS'(-3.8, 5.2, 0.7), (-3.8, 5.3, 0.7), (-3.7, 5.4, 0.7)'
p5236
(dp5237
(g3
(g7
S'\x9a\x99\x99\x99\x99\x99\r\xc0'
p5238
tp5239
Rp5240
g3
(g7
S'\x00\x00\x00\x00\x00\x00\x16@'
p5241
tp5242
Rp5243
g3
(g7
S'ffffff\xe6?'
p5244
tp5245
Rp5246
tp5247
F1.0
ssS'(-3.5, 7.0, 0.8), (-3.5, 7.1, 0.8), (-3.5, 7.2, 0.8)'
p5248
(dp5249
(g3
(g7
S'\x00\x00\x00\x00\x00\x00\x0c\xc0'
p5250
tp5251
Rp5252
g3
(g7
S'333333\x1d@'
p5253
tp5254
Rp5255
g3
(g7
S'\x9a\x99\x99\x99\x99\x99\xe9?'
p5256
tp5257
Rp5258
tp5259
F1.0
ssS'(-1.4, 0.0, 1.0), (-1.5, 0.0, 1.0), (-1.6, 0.0, 1.0)'
p5260
(dp5261
(g3
(g7
S'333333\xfb\xbf'
p5262
tp5263
Rp5264
g3
(g7
S'\x00\x00\x00\x00\x00\x00\x00\x00'
p5265
tp5266
Rp5267
g3
(g7
S'\x00\x00\x00\x00\x00\x00\xf0?'
p5268
tp5269
Rp5270
tp5271
F1.0
ssS'(-3.9, 1.9, 0.7), (-3.9, 2.0, 0.7), (-3.9, 2.1, 0.7)'
p5272
(dp5273
(g3
(g7
S'333333\x0f\xc0'
p5274
tp5275
Rp5276
g3
(g7
S'\x9a\x99\x99\x99\x99\x99\x01@'
p5277
tp5278
Rp5279
g3
(g7
S'ffffff\xe6?'
p5280
tp5281
Rp5282
tp5283
F1.0
ssS'(-3.9, 4.1, 0.7), (-3.8, 4.1, 0.7), (-3.8, 4.2, 0.7)'
p5284
(dp5285
(g3
(g7
S'ffffff\x0e\xc0'
p5286
tp5287
Rp5288
g3
(g7
S'333333\x11@'
p5289
tp5290
Rp5291
g3
(g7
S'ffffff\xe6?'
p5292
tp5293
Rp5294
tp5295
F1.0
ssS'(-3.8, 6.5, 0.7), (-3.8, 6.6, 0.7), (-3.7, 6.6, 0.7)'
p5296
(dp5297
(g3
(g7
S'\x9a\x99\x99\x99\x99\x99\r\xc0'
p5298
tp5299
Rp5300
g3
(g7
S'\xcd\xcc\xcc\xcc\xcc\xcc\x1a@'
p5301
tp5302
Rp5303
g3
(g7
S'ffffff\xe6?'
p5304
tp5305
Rp5306
tp5307
F1.0
ssS'(-3.7, 0.0, 1.0), (-3.8, 0.0, 1.0), (-3.9, 0.0, 1.0)'
p5308
(dp5309
(g3
(g7
S'333333\x0f\xc0'
p5310
tp5311
Rp5312
g3
(g7
S'\x00\x00\x00\x00\x00\x00\x00\x00'
p5313
tp5314
Rp5315
g3
(g7
S'\xcd\xcc\xcc\xcc\xcc\xcc\xec?'
p5316
tp5317
Rp5318
tp5319
F1.0
ssS'(-4.0, 3.0, 0.7), (-4.0, 3.1, 0.7), (-4.0, 3.2, 0.7)'
p5320
(dp5321
(g3
(g7
S'\x00\x00\x00\x00\x00\x00\x10\xc0'
p5322
tp5323
Rp5324
g3
(g7
S'ffffff\n@'
p5325
tp5326
Rp5327
g3
(g7
S'ffffff\xe6?'
p5328
tp5329
Rp5330
tp5331
F1.0
ssS'(-3.8, 5.1, 0.7), (-3.8, 5.2, 0.7), (-3.8, 5.3, 0.7)'
p5332
(dp5333
(g3
(g7
S'\x9a\x99\x99\x99\x99\x99\r\xc0'
p5334
tp5335
Rp5336
g3
(g7
S'333333\x15@'
p5337
tp5338
Rp5339
g3
(g7
S'ffffff\xe6?'
p5340
tp5341
Rp5342
tp5343
F0.08333333333333333
s(g3
(g7
S'\x9a\x99\x99\x99\x99\x99\r\xc0'
p5344
tp5345
Rp5346
g3
(g7
S'\x9a\x99\x99\x99\x99\x99\x15@'
p5347
tp5348
Rp5349
g3
(g7
S'ffffff\xe6?'
p5350
tp5351
Rp5352
tp5353
F0.08333333333333333
s(g3
(g7
S'ffffff\x0e\xc0'
p5354
tp5355
Rp5356
g3
(g7
S'\x9a\x99\x99\x99\x99\x99\x15@'
p5357
tp5358
Rp5359
g3
(g7
S'ffffff\xe6?'
p5360
tp5361
Rp5362
tp5363
F0.8333333333333334
ssS'(-3.9, 4.2, 0.7), (-3.9, 4.3, 0.7), (-3.9, 4.4, 0.7)'
p5364
(dp5365
(g3
(g7
S'333333\x0f\xc0'
p5366
tp5367
Rp5368
g3
(g7
S'\x00\x00\x00\x00\x00\x00\x12@'
p5369
tp5370
Rp5371
g3
(g7
S'ffffff\xe6?'
p5372
tp5373
Rp5374
tp5375
F0.8
s(g3
(g7
S'ffffff\x0e\xc0'
p5376
tp5377
Rp5378
g3
(g7
S'\x9a\x99\x99\x99\x99\x99\x11@'
p5379
tp5380
Rp5381
g3
(g7
S'ffffff\xe6?'
p5382
tp5383
Rp5384
tp5385
F0.2
ssS'(-4.0, 0.5, 0.7), (-4.0, 0.6, 0.7), (-4.0, 0.7, 0.7)'
p5386
(dp5387
(g3
(g7
S'\x00\x00\x00\x00\x00\x00\x10\xc0'
p5388
tp5389
Rp5390
g3
(g7
S'\x9a\x99\x99\x99\x99\x99\xe9?'
p5391
tp5392
Rp5393
g3
(g7
S'ffffff\xe6?'
p5394
tp5395
Rp5396
tp5397
F1.0
ssS'(-3.8, 5.4, 0.7), (-3.7, 5.4, 0.7), (-3.7, 5.5, 0.7)'
p5398
(dp5399
(g3
(g7
S'\x9a\x99\x99\x99\x99\x99\r\xc0'
p5400
tp5401
Rp5402
g3
(g7
S'ffffff\x16@'
p5403
tp5404
Rp5405
g3
(g7
S'ffffff\xe6?'
p5406
tp5407
Rp5408
tp5409
F1.0
ssS'(-3.6, 7.0, 0.7), (-3.6, 7.0, 0.8), (-3.6, 7.1, 0.8)'
p5410
(dp5411
(g3
(g7
S'\xcd\xcc\xcc\xcc\xcc\xcc\x0c\xc0'
p5412
tp5413
Rp5414
g3
(g7
S'\xcd\xcc\xcc\xcc\xcc\xcc\x1c@'
p5415
tp5416
Rp5417
g3
(g7
S'\x9a\x99\x99\x99\x99\x99\xe9?'
p5418
tp5419
Rp5420
tp5421
F1.0
ssS'(-3.0, -0.1, 1.0), (-3.1, -0.1, 1.0), (-3.2, -0.1, 1.0)'
p5422
(dp5423
(g3
(g7
S'ffffff\n\xc0'
p5424
tp5425
Rp5426
g3
(g7
S'\x9a\x99\x99\x99\x99\x99\xb9\xbf'
p5427
tp5428
Rp5429
g3
(g7
S'\x00\x00\x00\x00\x00\x00\xf0?'
p5430
tp5431
Rp5432
tp5433
F1.0
ssS'(-0.7, 0.0, 1.0), (-0.8, 0.0, 1.0), (-0.9, 0.0, 1.0)'
p5434
(dp5435
(g3
(g7
S'\x00\x00\x00\x00\x00\x00\xf0\xbf'
p5436
tp5437
Rp5438
g3
(g7
S'\x00\x00\x00\x00\x00\x00\x00\x00'
p5439
tp5440
Rp5441
g3
(g7
S'\x00\x00\x00\x00\x00\x00\xf0?'
p5442
tp5443
Rp5444
tp5445
F1.0
ssS'(-4.0, 2.6, 0.7), (-4.0, 2.7, 0.7), (-4.0, 2.8, 0.7)'
p5446
(dp5447
(g3
(g7
S'\x00\x00\x00\x00\x00\x00\x10\xc0'
p5448
tp5449
Rp5450
g3
(g7
S'333333\x07@'
p5451
tp5452
Rp5453
g3
(g7
S'ffffff\xe6?'
p5454
tp5455
Rp5456
tp5457
F0.75
s(g3
(g7
S'333333\x0f\xc0'
p5458
tp5459
Rp5460
g3
(g7
S'ffffff\x06@'
p5461
tp5462
Rp5463
g3
(g7
S'ffffff\xe6?'
p5464
tp5465
Rp5466
tp5467
F0.25
ssS'(-3.6, 6.4, 0.7), (-3.6, 6.5, 0.7), (-3.6, 6.5, 0.8)'
p5468
(dp5469
(g3
(g7
S'\xcd\xcc\xcc\xcc\xcc\xcc\x0c\xc0'
p5470
tp5471
Rp5472
g3
(g7
S'ffffff\x1a@'
p5473
tp5474
Rp5475
g3
(g7
S'\x9a\x99\x99\x99\x99\x99\xe9?'
p5476
tp5477
Rp5478
tp5479
F1.0
ssS'(-3.8, 4.1, 0.7), (-3.8, 4.2, 0.7), (-3.8, 4.3, 0.7)'
p5480
(dp5481
(g3
(g7
S'ffffff\x0e\xc0'
p5482
tp5483
Rp5484
g3
(g7
S'\x9a\x99\x99\x99\x99\x99\x11@'
p5485
tp5486
Rp5487
g3
(g7
S'ffffff\xe6?'
p5488
tp5489
Rp5490
tp5491
F1.0
ssS'(-4.0, 2.1, 0.7), (-4.0, 2.2, 0.7), (-4.0, 2.3, 0.7)'
p5492
(dp5493
(g3
(g7
S'\x00\x00\x00\x00\x00\x00\x10\xc0'
p5494
tp5495
Rp5496
g3
(g7
S'333333\x03@'
p5497
tp5498
Rp5499
g3
(g7
S'ffffff\xe6?'
p5500
tp5501
Rp5502
tp5503
F0.8
s(g3
(g7
S'333333\x0f\xc0'
p5504
tp5505
Rp5506
g3
(g7
S'ffffff\x02@'
p5507
tp5508
Rp5509
g3
(g7
S'ffffff\xe6?'
p5510
tp5511
Rp5512
tp5513
F0.2
ssS'(-3.9, 0.4, 0.7), (-3.9, 0.5, 0.7), (-3.9, 0.6, 0.7)'
p5514
(dp5515
(g3
(g7
S'333333\x0f\xc0'
p5516
tp5517
Rp5518
g3
(g7
S'ffffff\xe6?'
p5519
tp5520
Rp5521
g3
(g7
S'ffffff\xe6?'
p5522
tp5523
Rp5524
tp5525
F1.0
ssS'(-3.6, 6.6, 0.7), (-3.6, 6.7, 0.7), (-3.6, 6.7, 0.8)'
p5526
(dp5527
(g3
(g7
S'\xcd\xcc\xcc\xcc\xcc\xcc\x0c\xc0'
p5528
tp5529
Rp5530
g3
(g7
S'333333\x1b@'
p5531
tp5532
Rp5533
g3
(g7
S'\x9a\x99\x99\x99\x99\x99\xe9?'
p5534
tp5535
Rp5536
tp5537
F1.0
ssS'(-3.6, 6.4, 0.7), (-3.6, 6.5, 0.7), (-3.6, 6.6, 0.7)'
p5538
(dp5539
(g3
(g7
S'\xcd\xcc\xcc\xcc\xcc\xcc\x0c\xc0'
p5540
tp5541
Rp5542
g3
(g7
S'ffffff\x1a@'
p5543
tp5544
Rp5545
g3
(g7
S'\x9a\x99\x99\x99\x99\x99\xe9?'
p5546
tp5547
Rp5548
tp5549
F1.0
ssS'(-3.9, 5.1, 0.7), (-3.9, 5.2, 0.7), (-3.9, 5.3, 0.7)'
p5550
(dp5551
(g3
(g7
S'333333\x0f\xc0'
p5552
tp5553
Rp5554
g3
(g7
S'\x9a\x99\x99\x99\x99\x99\x15@'
p5555
tp5556
Rp5557
g3
(g7
S'ffffff\xe6?'
p5558
tp5559
Rp5560
tp5561
F1.0
ssS'(-3.9, 1.8, 0.7), (-3.9, 1.9, 0.7), (-3.9, 2.0, 0.7)'
p5562
(dp5563
(g3
(g7
S'333333\x0f\xc0'
p5564
tp5565
Rp5566
g3
(g7
S'\xcd\xcc\xcc\xcc\xcc\xcc\x00@'
p5567
tp5568
Rp5569
g3
(g7
S'ffffff\xe6?'
p5570
tp5571
Rp5572
tp5573
F1.0
ssS'(-3.0, 0.0, 1.0), (-3.1, 0.0, 1.0), (-3.2, 0.0, 1.0)'
p5574
(dp5575
(g3
(g7
S'ffffff\n\xc0'
p5576
tp5577
Rp5578
g3
(g7
S'\x00\x00\x00\x00\x00\x00\x00\x00'
p5579
tp5580
Rp5581
g3
(g7
S'\x00\x00\x00\x00\x00\x00\xf0?'
p5582
tp5583
Rp5584
tp5585
F1.0
ssS'(-3.9, 3.6, 0.7), (-3.9, 3.7, 0.7), (-3.9, 3.8, 0.7)'
p5586
(dp5587
(g3
(g7
S'333333\x0f\xc0'
p5588
tp5589
Rp5590
g3
(g7
S'333333\x0f@'
p5591
tp5592
Rp5593
g3
(g7
S'ffffff\xe6?'
p5594
tp5595
Rp5596
tp5597
F1.0
ssS'(-4.0, 2.8, 0.7), (-3.9, 2.8, 0.7), (-3.9, 2.9, 0.7)'
p5598
(dp5599
(g3
(g7
S'333333\x0f\xc0'
p5600
tp5601
Rp5602
g3
(g7
S'\x00\x00\x00\x00\x00\x00\x08@'
p5603
tp5604
Rp5605
g3
(g7
S'ffffff\xe6?'
p5606
tp5607
Rp5608
tp5609
F1.0
ssS'(-3.7, 6.6, 0.7), (-3.7, 6.7, 0.7), (-3.7, 6.7, 0.8)'
p5610
(dp5611
(g3
(g7
S'\x9a\x99\x99\x99\x99\x99\r\xc0'
p5612
tp5613
Rp5614
g3
(g7
S'333333\x1b@'
p5615
tp5616
Rp5617
g3
(g7
S'\x9a\x99\x99\x99\x99\x99\xe9?'
p5618
tp5619
Rp5620
tp5621
F1.0
ssS'(-3.5, 7.9, 0.8), (-3.5, 8.0, 0.8), (-3.5, 8.1, 0.8)'
p5622
(dp5623
(g3
(g7
S'\x00\x00\x00\x00\x00\x00\x0c\xc0'
p5624
tp5625
Rp5626
g3
(g7
S'ffffff @'
p5627
tp5628
Rp5629
g3
(g7
S'\x9a\x99\x99\x99\x99\x99\xe9?'
p5630
tp5631
Rp5632
tp5633
F1.0
ssS'(-3.6, 0.0, 1.0), (-3.6, -0.1, 1.0), (-3.7, -0.1, 1.0)'
p5634
(dp5635
(g3
(g7
S'ffffff\x0e\xc0'
p5636
tp5637
Rp5638
g3
(g7
S'\x9a\x99\x99\x99\x99\x99\xb9\xbf'
p5639
tp5640
Rp5641
g3
(g7
S'\x00\x00\x00\x00\x00\x00\xf0?'
p5642
tp5643
Rp5644
tp5645
F1.0
ssS'(-4.0, 4.1, 0.7), (-4.0, 4.2, 0.7), (-4.0, 4.3, 0.7)'
p5646
(dp5647
(g3
(g7
S'\x00\x00\x00\x00\x00\x00\x10\xc0'
p5648
tp5649
Rp5650
g3
(g7
S'\x9a\x99\x99\x99\x99\x99\x11@'
p5651
tp5652
Rp5653
g3
(g7
S'ffffff\xe6?'
p5654
tp5655
Rp5656
tp5657
F0.5
s(g3
(g7
S'333333\x0f\xc0'
p5658
tp5659
Rp5660
g3
(g7
S'333333\x11@'
p5661
tp5662
Rp5663
g3
(g7
S'ffffff\xe6?'
p5664
tp5665
Rp5666
tp5667
F0.5
ssS'(-3.7, 7.0, 0.8), (-3.7, 7.1, 0.8), (-3.6, 7.1, 0.8)'
p5668
(dp5669
(g3
(g7
S'\xcd\xcc\xcc\xcc\xcc\xcc\x0c\xc0'
p5670
tp5671
Rp5672
g3
(g7
S'\xcd\xcc\xcc\xcc\xcc\xcc\x1c@'
p5673
tp5674
Rp5675
g3
(g7
S'\x9a\x99\x99\x99\x99\x99\xe9?'
p5676
tp5677
Rp5678
tp5679
F1.0
ssS'(-3.9, 4.3, 0.7), (-3.9, 4.4, 0.7), (-3.8, 4.4, 0.7)'
p5680
(dp5681
(g3
(g7
S'ffffff\x0e\xc0'
p5682
tp5683
Rp5684
g3
(g7
S'\x00\x00\x00\x00\x00\x00\x12@'
p5685
tp5686
Rp5687
g3
(g7
S'ffffff\xe6?'
p5688
tp5689
Rp5690
tp5691
F1.0
ssS'(-3.6, 7.0, 0.8), (-3.6, 7.1, 0.8), (-3.6, 7.2, 0.8)'
p5692
(dp5693
(g3
(g7
S'\xcd\xcc\xcc\xcc\xcc\xcc\x0c\xc0'
p5694
tp5695
Rp5696
g3
(g7
S'333333\x1d@'
p5697
tp5698
Rp5699
g3
(g7
S'\x9a\x99\x99\x99\x99\x99\xe9?'
p5700
tp5701
Rp5702
tp5703
F1.0
ssS'(-4.0, 0.2, 0.7), (-4.0, 0.3, 0.7), (-4.0, 0.4, 0.7)'
p5704
(dp5705
(g3
(g7
S'\x00\x00\x00\x00\x00\x00\x10\xc0'
p5706
tp5707
Rp5708
g3
(g7
S'\x00\x00\x00\x00\x00\x00\xe0?'
p5709
tp5710
Rp5711
g3
(g7
S'ffffff\xe6?'
p5712
tp5713
Rp5714
tp5715
F1.0
ssS'(-3.6, 7.2, 0.8), (-3.6, 7.3, 0.8), (-3.5, 7.3, 0.8)'
p5716
(dp5717
(g3
(g7
S'\x00\x00\x00\x00\x00\x00\x0c\xc0'
p5718
tp5719
Rp5720
g3
(g7
S'\x9a\x99\x99\x99\x99\x99\x1d@'
p5721
tp5722
Rp5723
g3
(g7
S'\x9a\x99\x99\x99\x99\x99\xe9?'
p5724
tp5725
Rp5726
tp5727
F1.0
ss.