(dp0
S'(-4.1, 0.9, 0.7), (-4.1, 1.0, 0.7), (-4.1, 1.1, 0.7)'
p1
(dp2
(F-0.1
F0.0
F1.0
tp3
F1.0
ssS'(-3.5, 8.2, 0.8), (-3.5, 8.3, 0.8), (-3.5, 8.4, 0.8)'
p4
(dp5
(F-0.1
F0.0
F1.0
tp6
F1.0
ssS'(-4.0, -0.2, 1.0), (-4.0, -0.2, 0.9), (-4.0, -0.2, 0.8)'
p7
(dp8
(F-4.0
F-0.2
F0.7
tp9
F1.0
ssS'(-3.7, 7.4, 0.8), (-3.6, 7.4, 0.8), (-3.6, 7.5, 0.8)'
p10
(dp11
(F-3.6
F7.6
F0.8
tp12
F1.0
ssS'(-4.0, 3.5, 0.7), (-4.0, 3.6, 0.7), (-4.0, 3.7, 0.7)'
p13
(dp14
(F-4.0
F3.8
F0.7
tp15
F1.0
ssS'(-3.6, 6.8, 0.8), (-3.6, 6.9, 0.8), (-3.5, 6.9, 0.8)'
p16
(dp17
(F-3.5
F7.0
F0.8
tp18
F1.0
ssS'(-3.9, 2.9, 0.7), (-3.9, 3.0, 0.7), (-3.9, 3.1, 0.7)'
p19
(dp20
(F-3.9
F3.2
F0.7
tp21
F1.0
ssS'(-0.6, 0.0, 1.0), (-0.7, 0.0, 1.0), (-0.8, 0.0, 1.0)'
p22
(dp23
(F-0.9
F0.0
F1.0
tp24
F1.0
ssS'(-3.7, -0.0, 1.0), (-3.8, -0.0, 1.0), (-3.9, -0.0, 1.0)'
p25
(dp26
(F-3.9
F-0.0
F0.9
tp27
F1.0
ssS'(-2.4, -0.0, 1.0), (-2.5, -0.0, 1.0), (-2.5, -0.1, 1.0)'
p28
(dp29
(F-2.6
F-0.1
F1.0
tp30
F1.0
ssS'(-3.6, 7.0, 0.8), (-3.5, 7.0, 0.8), (-3.5, 7.1, 0.8)'
p31
(dp32
(F-3.5
F7.2
F0.8
tp33
F1.0
ssS'(-3.8, 5.0, 0.7), (-3.8, 5.1, 0.7), (-3.8, 5.2, 0.7)'
p34
(dp35
(F-3.8
F5.3
F0.7
tp36
F1.0
ssS'(-3.8, 6.0, 0.7), (-3.8, 6.1, 0.7), (-3.7, 6.1, 0.7)'
p37
(dp38
(F-3.7
F6.2
F0.7
tp39
F1.0
ssS'(-3.8, 6.1, 0.7), (-3.8, 6.2, 0.7), (-3.8, 6.3, 0.7)'
p40
(dp41
(F-3.8
F6.4
F0.7
tp42
F1.0
ssS'(-4.0, 1.6, 0.7), (-4.0, 1.7, 0.7), (-3.9, 1.7, 0.7)'
p43
(dp44
(F-3.9
F1.8
F0.7
tp45
F1.0
ssS'(-2.8, -0.0, 1.0), (-2.9, -0.0, 1.0), (-3.0, -0.0, 1.0)'
p46
(dp47
(F-3.1
F-0.0
F1.0
tp48
F0.8
s(F-3.0
F-0.1
F1.0
tp49
F0.2
ssS'(-3.8, 5.3, 0.7), (-3.7, 5.3, 0.7), (-3.7, 5.4, 0.7)'
p50
(dp51
(F-3.7
F5.5
F0.7
tp52
F1.0
ssS'(-3.9, 0.9, 0.7), (-3.9, 1.0, 0.7), (-3.9, 1.1, 0.7)'
p53
(dp54
(F-4.0
F1.1
F0.7
tp55
F0.14285714285714285
s(F-3.9
F1.2
F0.7
tp56
F0.8571428571428571
ssS'(-4.0, 2.2, 0.7), (-4.0, 2.3, 0.7), (-4.0, 2.4, 0.7)'
p57
(dp58
(F-4.0
F2.5
F0.7
tp59
F1.0
ssS'(-3.7, 6.6, 0.7), (-3.7, 6.6, 0.8), (-3.7, 6.7, 0.8)'
p60
(dp61
(F-3.7
F6.8
F0.8
tp62
F1.0
ssS'(-3.9, 0.7, 0.7), (-3.9, 0.8, 0.7), (-3.9, 0.9, 0.7)'
p63
(dp64
(F-4.0
F0.9
F0.7
tp65
F0.18181818181818182
s(F-3.9
F1.0
F0.7
tp66
F0.8181818181818182
ssS'(-3.7, 6.6, 0.7), (-3.7, 6.7, 0.7), (-3.7, 6.8, 0.7)'
p67
(dp68
(F-3.7
F6.9
F0.7
tp69
F1.0
ssS'(-3.8, 5.5, 0.7), (-3.8, 5.6, 0.7), (-3.8, 5.7, 0.7)'
p70
(dp71
(F-3.8
F5.8
F0.7
tp72
F0.6
s(F-3.7
F5.7
F0.7
tp73
F0.4
ssS'(-1.0, 0.0, 1.0), (-1.1, 0.0, 1.0), (-1.2, -0.0, 1.0)'
p74
(dp75
(F-1.3
F-0.0
F1.0
tp76
F1.0
ssS'(-3.9, 1.0, 0.7), (-3.9, 1.1, 0.7), (-4.0, 1.1, 0.7)'
p77
(dp78
(F-4.0
F1.2
F0.7
tp79
F1.0
ssS'(-3.8, 6.4, 0.7), (-3.8, 6.5, 0.7), (-3.8, 6.6, 0.7)'
p80
(dp81
(F-3.7
F6.6
F0.7
tp82
F1.0
ssS'(-3.6, 7.3, 0.8), (-3.6, 7.4, 0.8), (-3.5, 7.4, 0.8)'
p83
(dp84
(F-3.5
F7.5
F0.8
tp85
F1.0
ssS'(-4.0, 3.9, 0.7), (-4.0, 4.0, 0.7), (-4.0, 4.1, 0.7)'
p86
(dp87
(F-4.0
F4.2
F0.7
tp88
F1.0
ssS'(-3.7, 6.9, 0.8), (-3.7, 7.0, 0.8), (-3.7, 7.1, 0.8)'
p89
(dp90
(F-3.7
F7.2
F0.8
tp91
F0.5
s(F-3.6
F7.1
F0.8
tp92
F0.5
ssS'(-3.9, 3.2, 0.7), (-3.9, 3.3, 0.7), (-3.9, 3.4, 0.7)'
p93
(dp94
(F-3.9
F3.5
F0.7
tp95
F1.0
ssS'(-3.5, -0.1, 1.0), (-3.6, -0.1, 1.0), (-3.7, -0.1, 1.0)'
p96
(dp97
(F-3.8
F-0.1
F1.0
tp98
F1.0
ssS'(-3.7, 6.4, 0.7), (-3.7, 6.5, 0.7), (-3.7, 6.6, 0.7)'
p99
(dp100
(F-3.7
F6.6
F0.8
tp101
F0.25
s(F-3.7
F6.7
F0.7
tp102
F0.5
s(F-3.6
F6.6
F0.7
tp103
F0.25
ssS'(-3.4, 8.4, 0.8), (-3.3, 8.4, 0.8), (-0.1, 0.0, 1.0)'
p104
(dp105
(F-0.2
F0.0
F1.0
tp106
F1.0
ssS'(-3.8, 5.6, 0.7), (-3.8, 5.7, 0.7), (-3.7, 5.7, 0.7)'
p107
(dp108
(F-3.7
F5.8
F0.7
tp109
F1.0
ssS'(-3.7, 6.5, 0.7), (-3.7, 6.6, 0.7), (-3.7, 6.6, 0.8)'
p110
(dp111
(F-3.7
F6.7
F0.8
tp112
F1.0
ssS'(-3.9, 0.8, 0.7), (-3.9, 0.9, 0.7), (-4.0, 0.9, 0.7)'
p113
(dp114
(F-4.0
F1.0
F0.7
tp115
F1.0
ssS'(-3.9, 2.3, 0.7), (-3.9, 2.4, 0.7), (-3.9, 2.5, 0.7)'
p116
(dp117
(F-3.9
F2.6
F0.7
tp118
F1.0
ssS'(-4.1, 1.4, 0.7), (-4.1, 1.5, 0.7), (-4.1, 1.6, 0.7)'
p119
(dp120
(F-4.1
F1.7
F0.7
tp121
F1.0
ssS'(-3.7, 5.4, 0.7), (-3.7, 5.5, 0.7), (-3.7, 5.6, 0.7)'
p122
(dp123
(F-3.7
F5.7
F0.7
tp124
F1.0
ssS'(-3.9, 3.7, 0.7), (-3.9, 3.8, 0.7), (-3.9, 3.9, 0.7)'
p125
(dp126
(F-3.9
F4.0
F0.7
tp127
F1.0
ssS'(-3.7, 5.5, 0.7), (-3.7, 5.6, 0.7), (-3.7, 5.7, 0.7)'
p128
(dp129
(F-3.7
F5.8
F0.7
tp130
F1.0
ssS'(-3.7, 6.5, 0.7), (-3.7, 6.5, 0.8), (-3.7, 6.6, 0.8)'
p131
(dp132
(F-3.6
F6.6
F0.8
tp133
F1.0
ssS'(-2.8, 0.0, 1.0), (-2.9, -0.0, 1.0), (-3.0, -0.0, 1.0)'
p134
(dp135
(F-3.1
F-0.0
F1.0
tp136
F1.0
ssS'(-3.4, 8.0, 0.8), (-3.4, 8.1, 0.8), (-3.4, 8.2, 0.8)'
p137
(dp138
(F-3.4
F8.3
F0.8
tp139
F0.9
s(F-3.3
F8.2
F0.8
tp140
F0.1
ssS'(-4.0, 2.5, 0.7), (-4.0, 2.6, 0.7), (-4.0, 2.7, 0.7)'
p141
(dp142
(F-4.0
F2.8
F0.7
tp143
F1.0
ssS'(-3.8, 5.5, 0.7), (-3.8, 5.6, 0.7), (-3.7, 5.6, 0.7)'
p144
(dp145
(F-3.7
F5.7
F0.7
tp146
F1.0
ssS'(-4.0, 0.4, 0.7), (-4.1, 0.4, 0.7), (-4.1, 0.5, 0.7)'
p147
(dp148
(F-4.1
F0.6
F0.7
tp149
F1.0
ssS'(-3.9, -0.2, 1.0), (-4.0, -0.2, 1.0), (-4.0, -0.2, 0.9)'
p150
(dp151
(F-4.0
F-0.2
F0.8
tp152
F1.0
ssS'(-3.8, -0.1, 1.0), (-3.9, -0.1, 1.0), (-3.9, -0.2, 1.0)'
p153
(dp154
(F-4.0
F-0.2
F1.0
tp155
F1.0
ssS'(-0.9, 0.0, 1.0), (-1.0, 0.0, 1.0), (-1.1, 0.0, 1.0)'
p156
(dp157
(F-1.2
F0.0
F1.0
tp158
F1.0
ssS'(-3.5, 7.2, 0.8), (-3.5, 7.3, 0.8), (-3.5, 7.4, 0.8)'
p159
(dp160
(F-3.5
F7.5
F0.8
tp161
F1.0
ssS'(-3.7, 5.6, 0.7), (-3.7, 5.7, 0.7), (-3.7, 5.8, 0.7)'
p162
(dp163
(F-3.7
F5.9
F0.7
tp164
F1.0
ssS'(-3.9, 4.1, 0.7), (-3.9, 4.2, 0.7), (-3.9, 4.3, 0.7)'
p165
(dp166
(F-3.8
F4.3
F0.7
tp167
F0.16666666666666666
s(F-3.9
F4.4
F0.7
tp168
F0.8333333333333334
ssS'(-3.7, 6.5, 0.8), (-3.7, 6.6, 0.8), (-3.6, 6.6, 0.8)'
p169
(dp170
(F-3.6
F6.7
F0.8
tp171
F1.0
ssS'(-3.7, 6.2, 0.7), (-3.7, 6.3, 0.7), (-3.7, 6.4, 0.7)'
p172
(dp173
(F-3.6
F6.4
F0.7
tp174
F0.16666666666666666
s(F-3.7
F6.5
F0.7
tp175
F0.8333333333333334
ssS'(-3.6, 7.8, 0.8), (-3.6, 7.9, 0.8), (-3.6, 8.0, 0.8)'
p176
(dp177
(F-3.5
F8.0
F0.8
tp178
F1.0
ssS'(-3.6, 7.7, 0.8), (-3.5, 7.7, 0.8), (-3.5, 7.8, 0.8)'
p179
(dp180
(F-3.5
F7.9
F0.8
tp181
F1.0
ssS'(-3.6, 8.0, 0.8), (-3.5, 8.0, 0.8), (-3.5, 8.1, 0.8)'
p182
(dp183
(F-3.5
F8.2
F0.8
tp184
F1.0
ssS'(-4.0, 1.9, 0.7), (-4.0, 2.0, 0.7), (-4.0, 2.1, 0.7)'
p185
(dp186
(F-4.0
F2.2
F0.7
tp187
F1.0
ssS'(-3.9, 4.1, 0.7), (-3.9, 4.2, 0.7), (-3.8, 4.2, 0.7)'
p188
(dp189
(F-3.8
F4.3
F0.7
tp190
F1.0
ssS'(-4.0, 1.7, 0.7), (-4.0, 1.8, 0.7), (-4.0, 1.9, 0.7)'
p191
(dp192
(F-4.0
F2.0
F0.7
tp193
F1.0
ssS'(-3.7, 6.5, 0.7), (-3.6, 6.5, 0.7), (-3.6, 6.6, 0.7)'
p194
(dp195
(F-3.6
F6.7
F0.7
tp196
F1.0
ssS'(-4.0, 3.4, 0.7), (-4.0, 3.5, 0.7), (-4.0, 3.6, 0.7)'
p197
(dp198
(F-4.0
F3.7
F0.7
tp199
F1.0
ssS'(-1.6, 0.0, 1.0), (-1.7, 0.0, 1.0), (-1.8, 0.0, 1.0)'
p200
(dp201
(F-1.9
F0.0
F1.0
tp202
F1.0
ssS'(-3.8, 5.2, 0.7), (-3.8, 5.3, 0.7), (-3.7, 5.3, 0.7)'
p203
(dp204
(F-3.7
F5.4
F0.7
tp205
F1.0
ssS'(-3.5, 7.9, 0.8), (-3.5, 8.0, 0.8), (-3.4, 8.0, 0.8)'
p206
(dp207
(F-3.4
F8.1
F0.8
tp208
F1.0
ssS'(-4.0, 0.4, 0.7), (-4.0, 0.5, 0.7), (-4.0, 0.6, 0.7)'
p209
(dp210
(F-4.0
F0.7
F0.7
tp211
F1.0
ssS'(-3.5, 7.3, 0.8), (-3.5, 7.4, 0.8), (-3.5, 7.5, 0.8)'
p212
(dp213
(F-3.5
F7.6
F0.8
tp214
F1.0
ssS'(-3.9, 4.4, 0.7), (-3.8, 4.4, 0.7), (-3.8, 4.5, 0.7)'
p215
(dp216
(F-3.8
F4.6
F0.7
tp217
F1.0
ssS'(-3.8, 6.1, 0.7), (-3.7, 6.1, 0.7), (-3.7, 6.2, 0.7)'
p218
(dp219
(F-3.7
F6.3
F0.7
tp220
F1.0
ssS'(-3.7, 6.8, 0.7), (-3.7, 6.9, 0.7), (-3.6, 6.9, 0.7)'
p221
(dp222
(F-3.6
F7.0
F0.7
tp223
F1.0
ssS'(-4.0, 0.9, 0.7), (-4.0, 1.0, 0.7), (-4.0, 1.1, 0.7)'
p224
(dp225
(F-4.0
F1.2
F0.7
tp226
F1.0
ssS'(-2.4, 0.0, 1.0), (-2.5, 0.0, 1.0), (-2.6, 0.0, 1.0)'
p227
(dp228
(F-2.7
F-0.0
F1.0
tp229
F1.0
ssS'(-4.0, 1.3, 0.7), (-4.0, 1.4, 0.7), (-4.0, 1.5, 0.7)'
p230
(dp231
(F-4.0
F1.6
F0.7
tp232
F1.0
ssS'(-2.9, -0.0, 1.0), (-3.0, -0.0, 1.0), (-3.1, -0.0, 1.0)'
p233
(dp234
(F-3.2
F-0.0
F1.0
tp235
F1.0
ssS'(-3.8, 4.6, 0.7), (-3.8, 4.7, 0.7), (-3.8, 4.8, 0.7)'
p236
(dp237
(F-3.8
F4.9
F0.7
tp238
F1.0
ssS'(-4.0, 1.9, 0.7), (-4.0, 2.0, 0.7), (-3.9, 2.0, 0.7)'
p239
(dp240
(F-3.9
F2.1
F0.7
tp241
F1.0
ssS'(-3.8, 5.3, 0.7), (-3.8, 5.4, 0.7), (-3.8, 5.5, 0.7)'
p242
(dp243
(F-3.8
F5.6
F0.7
tp244
F0.8333333333333334
s(F-3.7
F5.5
F0.7
tp245
F0.16666666666666666
ssS'(-3.9, 1.7, 0.7), (-3.9, 1.8, 0.7), (-3.9, 1.9, 0.7)'
p246
(dp247
(F-3.9
F2.0
F0.7
tp248
F1.0
ssS'(-3.9, 4.2, 0.7), (-3.9, 4.3, 0.7), (-3.9, 4.4, 0.7)'
p249
(dp250
(F-3.9
F4.5
F0.7
tp251
F0.8
s(F-3.8
F4.4
F0.7
tp252
F0.2
ssS'(-4.0, 1.6, 0.7), (-3.9, 1.6, 0.7), (-3.9, 1.7, 0.7)'
p253
(dp254
(F-3.9
F1.8
F0.7
tp255
F1.0
ssS'(-3.9, 1.1, 0.7), (-4.0, 1.1, 0.7), (-4.0, 1.2, 0.7)'
p256
(dp257
(F-4.0
F1.3
F0.7
tp258
F1.0
ssS'(-3.5, 7.7, 0.8), (-3.5, 7.8, 0.8), (-3.5, 7.9, 0.8)'
p259
(dp260
(F-3.5
F8.0
F0.8
tp261
F0.8
s(F-3.4
F7.9
F0.8
tp262
F0.2
ssS'(-3.6, 6.7, 0.7), (-3.6, 6.7, 0.8), (-3.6, 6.8, 0.8)'
p263
(dp264
(F-3.6
F6.9
F0.8
tp265
F1.0
ssS'(-4.0, 4.2, 0.7), (-4.0, 4.3, 0.7), (-3.9, 4.3, 0.7)'
p266
(dp267
(F-3.9
F4.4
F0.7
tp268
F1.0
ssS'(-3.5, 7.1, 0.8), (-3.5, 7.2, 0.8), (-3.5, 7.3, 0.8)'
p269
(dp270
(F-3.5
F7.4
F0.8
tp271
F1.0
ssS'(-4.0, -0.1, 0.9), (-4.0, -0.1, 0.8), (-4.0, -0.1, 0.7)'
p272
(dp273
(F-4.0
F-0.0
F0.7
tp274
F1.0
ssS'(-3.7, 5.8, 0.7), (-3.7, 5.9, 0.7), (-3.7, 6.0, 0.7)'
p275
(dp276
(F-3.7
F6.1
F0.7
tp277
F1.0
ssS'(-3.4, 8.3, 0.8), (-3.4, 8.4, 0.8), (-3.3, 8.4, 0.8)'
p278
(dp279
(F-0.1
F0.0
F1.0
tp280
F1.0
ssS'(-0.2, 0.0, 1.0), (-0.3, 0.0, 1.0), (-0.4, 0.0, 1.0)'
p281
(dp282
(F-0.5
F0.0
F1.0
tp283
F1.0
ssS'(-3.8, -0.0, 1.0), (-3.9, -0.0, 1.0), (-3.9, -0.0, 0.9)'
p284
(dp285
(F-3.9
F-0.0
F0.8
tp286
F1.0
ssS'(-3.1, -0.0, 1.0), (-3.2, -0.0, 1.0), (-3.3, -0.0, 1.0)'
p287
(dp288
(F-3.4
F-0.0
F1.0
tp289
F0.9090909090909091
s(F-3.3
F-0.1
F1.0
tp290
F0.09090909090909091
ssS'(-3.8, 4.3, 0.7), (-3.8, 4.4, 0.7), (-3.8, 4.5, 0.7)'
p291
(dp292
(F-3.8
F4.6
F0.7
tp293
F1.0
ssS'(-2.3, -0.0, 1.0), (-2.4, -0.0, 1.0), (-2.5, -0.0, 1.0)'
p294
(dp295
(F-2.5
F-0.1
F1.0
tp296
F0.2
s(F-2.6
F-0.0
F1.0
tp297
F0.8
ssS'(-3.6, 6.6, 0.7), (-3.6, 6.6, 0.8), (-3.6, 6.7, 0.8)'
p298
(dp299
(F-3.6
F6.8
F0.8
tp300
F1.0
ssS'(-4.0, 0.6, 0.7), (-4.0, 0.7, 0.7), (-4.0, 0.8, 0.7)'
p301
(dp302
(F-4.0
F0.9
F0.7
tp303
F1.0
ssS'(-3.9, 2.5, 0.7), (-3.9, 2.6, 0.7), (-3.9, 2.7, 0.7)'
p304
(dp305
(F-3.9
F2.8
F0.7
tp306
F1.0
ssS'(-3.8, 5.7, 0.7), (-3.8, 5.8, 0.7), (-3.8, 5.9, 0.7)'
p307
(dp308
(F-3.8
F6.0
F0.7
tp309
F1.0
ssS'(-3.6, -0.0, 1.0), (-3.7, -0.0, 1.0), (-3.7, -0.1, 1.0)'
p310
(dp311
(F-3.8
F-0.1
F1.0
tp312
F1.0
ssS'(-1.3, 0.0, 1.0), (-1.4, 0.0, 1.0), (-1.5, 0.0, 1.0)'
p313
(dp314
(F-1.6
F0.0
F1.0
tp315
F1.0
ssS'(-3.8, 6.2, 0.7), (-3.8, 6.3, 0.7), (-3.8, 6.4, 0.7)'
p316
(dp317
(F-3.7
F6.4
F0.7
tp318
F0.5
s(F-3.8
F6.5
F0.7
tp319
F0.5
ssS'(-3.6, 7.1, 0.8), (-3.6, 7.2, 0.8), (-3.6, 7.3, 0.8)'
p320
(dp321
(F-3.6
F7.4
F0.8
tp322
F0.6666666666666666
s(F-3.5
F7.3
F0.8
tp323
F0.3333333333333333
ssS'(-4.0, 2.7, 0.7), (-4.0, 2.8, 0.7), (-4.0, 2.9, 0.7)'
p324
(dp325
(F-4.0
F3.0
F0.7
tp326
F0.6666666666666666
s(F-3.9
F2.9
F0.7
tp327
F0.3333333333333333
ssS'(-3.7, 7.0, 0.8), (-3.7, 7.1, 0.8), (-3.7, 7.2, 0.8)'
p328
(dp329
(F-3.7
F7.3
F0.8
tp330
F1.0
ssS'(-4.1, 1.8, 0.7), (-4.1, 1.9, 0.7), (-4.1, 2.0, 0.7)'
p331
(dp332
(F-4.1
F2.1
F0.7
tp333
F1.0
ssS'(-3.9, 3.0, 0.7), (-3.9, 3.1, 0.7), (-3.9, 3.2, 0.7)'
p334
(dp335
(F-3.9
F3.3
F0.7
tp336
F1.0
ssS'(-4.1, 1.6, 0.7), (-4.1, 1.7, 0.7), (-4.1, 1.8, 0.7)'
p337
(dp338
(F-4.1
F1.9
F0.7
tp339
F1.0
ssS'(-3.7, 5.7, 0.7), (-3.7, 5.8, 0.7), (-3.7, 5.9, 0.7)'
p340
(dp341
(F-3.7
F6.0
F0.7
tp342
F1.0
ssS'(-3.9, 4.8, 0.7), (-3.9, 4.9, 0.7), (-3.9, 5.0, 0.7)'
p343
(dp344
(F-3.8
F5.0
F0.7
tp345
F0.3333333333333333
s(F-3.9
F5.1
F0.7
tp346
F0.6666666666666666
ssS'(-3.5, 8.1, 0.8), (-3.5, 8.2, 0.8), (-3.5, 8.3, 0.8)'
p347
(dp348
(F-3.4
F8.3
F0.8
tp349
F0.25
s(F-3.5
F8.4
F0.8
tp350
F0.75
ssS'(-3.5, 7.8, 0.8), (-3.4, 7.8, 0.8), (-3.4, 7.9, 0.8)'
p351
(dp352
(F-3.4
F8.0
F0.8
tp353
F1.0
ssS'(-4.1, 1.7, 0.7), (-4.1, 1.8, 0.7), (-4.1, 1.9, 0.7)'
p354
(dp355
(F-4.1
F2.0
F0.7
tp356
F1.0
ssS'(-3.8, 6.3, 0.7), (-3.8, 6.4, 0.7), (-3.8, 6.5, 0.7)'
p357
(dp358
(F-3.8
F6.6
F0.7
tp359
F1.0
ssS'(-3.8, 5.7, 0.7), (-3.7, 5.7, 0.7), (-3.7, 5.8, 0.7)'
p360
(dp361
(F-3.7
F5.9
F0.7
tp362
F1.0
ssS'(-2.3, 0.0, 1.0), (-2.4, 0.0, 1.0), (-2.5, -0.0, 1.0)'
p363
(dp364
(F-2.6
F-0.0
F1.0
tp365
F1.0
ssS'(-2.1, 0.0, 1.0), (-2.2, 0.0, 1.0), (-2.3, -0.0, 1.0)'
p366
(dp367
(F-2.4
F-0.0
F1.0
tp368
F1.0
ssS'(-3.9, 2.8, 0.7), (-3.9, 2.9, 0.7), (-3.9, 3.0, 0.7)'
p369
(dp370
(F-3.9
F3.1
F0.7
tp371
F1.0
ssS'(-4.0, 1.0, 0.7), (-4.0, 1.1, 0.7), (-4.0, 1.2, 0.7)'
p372
(dp373
(F-4.0
F1.3
F0.7
tp374
F1.0
ssS'(-0.5, 0.0, 1.0), (-0.6, 0.0, 1.0), (-0.7, 0.0, 1.0)'
p375
(dp376
(F-0.8
F0.0
F1.0
tp377
F1.0
ssS'(-4.0, 2.4, 0.7), (-4.0, 2.5, 0.7), (-4.0, 2.6, 0.7)'
p378
(dp379
(F-4.0
F2.7
F0.7
tp380
F1.0
ssS'(-3.9, 0.8, 0.7), (-3.9, 0.9, 0.7), (-3.9, 1.0, 0.7)'
p381
(dp382
(F-3.9
F1.1
F0.7
tp383
F0.7777777777777778
s(F-4.0
F1.0
F0.7
tp384
F0.2222222222222222
ssS'(-3.7, 5.3, 0.7), (-3.7, 5.4, 0.7), (-3.7, 5.5, 0.7)'
p385
(dp386
(F-3.7
F5.6
F0.7
tp387
F1.0
ssS'(-3.6, 6.7, 0.8), (-3.6, 6.8, 0.8), (-3.6, 6.9, 0.8)'
p388
(dp389
(F-3.6
F7.0
F0.8
tp390
F0.9
s(F-3.5
F6.9
F0.8
tp391
F0.1
ssS'(-1.8, 0.0, 1.0), (-1.9, -0.0, 1.0), (-2.0, -0.0, 1.0)'
p392
(dp393
(F-2.1
F-0.0
F1.0
tp394
F1.0
ssS'(-4.0, 1.6, 0.7), (-4.0, 1.7, 0.7), (-4.0, 1.8, 0.7)'
p395
(dp396
(F-4.0
F1.9
F0.7
tp397
F1.0
ssS'(-3.4, 7.9, 0.8), (-3.4, 8.0, 0.8), (-3.4, 8.1, 0.8)'
p398
(dp399
(F-3.4
F8.2
F0.8
tp400
F1.0
ssS'(-3.7, 7.2, 0.8), (-3.7, 7.3, 0.8), (-3.7, 7.4, 0.8)'
p401
(dp402
(F-3.6
F7.4
F0.8
tp403
F1.0
ssS'(-3.7, 6.1, 0.7), (-3.7, 6.2, 0.7), (-3.7, 6.3, 0.7)'
p404
(dp405
(F-3.7
F6.4
F0.7
tp406
F0.6
s(F-3.6
F6.3
F0.7
tp407
F0.4
ssS'(-3.9, 1.0, 0.7), (-3.9, 1.1, 0.7), (-3.9, 1.2, 0.7)'
p408
(dp409
(F-3.9
F1.3
F0.7
tp410
F0.8333333333333334
s(F-4.0
F1.2
F0.7
tp411
F0.16666666666666666
ssS'(-4.0, -0.1, 0.8), (-4.0, -0.1, 0.7), (-4.0, -0.0, 0.7)'
p412
(dp413
(F-4.0
F0.1
F0.7
tp414
F1.0
ssS'(-3.9, 3.9, 0.7), (-3.9, 4.0, 0.7), (-3.9, 4.1, 0.7)'
p415
(dp416
(F-3.8
F4.1
F0.7
tp417
F0.16666666666666666
s(F-3.9
F4.2
F0.7
tp418
F0.8333333333333334
ssS'(-3.6, 7.0, 0.8), (-3.6, 7.1, 0.8), (-3.5, 7.1, 0.8)'
p419
(dp420
(F-3.5
F7.2
F0.8
tp421
F1.0
ssS'(-3.3, -0.0, 1.0), (-3.3, -0.1, 1.0), (-3.4, -0.1, 1.0)'
p422
(dp423
(F-3.5
F-0.1
F1.0
tp424
F1.0
ssS'(-3.9, 1.1, 0.7), (-3.9, 1.2, 0.7), (-4.0, 1.2, 0.7)'
p425
(dp426
(F-4.0
F1.3
F0.7
tp427
F1.0
ssS'(-3.4, -0.0, 1.0), (-3.4, -0.1, 1.0), (-3.5, -0.1, 1.0)'
p428
(dp429
(F-3.6
F-0.1
F1.0
tp430
F1.0
ssS'(-0.3, 0.0, 1.0), (-0.4, 0.0, 1.0), (-0.5, 0.0, 1.0)'
p431
(dp432
(F-0.6
F0.0
F1.0
tp433
F1.0
ssS'(-3.6, 6.5, 0.7), (-3.6, 6.6, 0.7), (-3.6, 6.6, 0.8)'
p434
(dp435
(F-3.6
F6.7
F0.8
tp436
F1.0
ssS'(-2.5, 0.0, 1.0), (-2.6, -0.0, 1.0), (-2.7, -0.0, 1.0)'
p437
(dp438
(F-2.8
F-0.0
F1.0
tp439
F1.0
ssS'(-2.8, -0.1, 1.0), (-2.9, -0.1, 1.0), (-3.0, -0.1, 1.0)'
p440
(dp441
(F-3.1
F-0.1
F1.0
tp442
F1.0
ssS'(-1.8, 0.0, 1.0), (-1.9, 0.0, 1.0), (-2.0, 0.0, 1.0)'
p443
(dp444
(F-2.1
F0.0
F1.0
tp445
F1.0
ssS'(-3.5, 7.7, 0.8), (-3.4, 7.7, 0.8), (-3.4, 7.8, 0.8)'
p446
(dp447
(F-3.4
F7.9
F0.8
tp448
F1.0
ssS'(-3.9, 4.2, 0.7), (-3.9, 4.3, 0.7), (-3.8, 4.3, 0.7)'
p449
(dp450
(F-3.8
F4.4
F0.7
tp451
F1.0
ssS'(-1.7, -0.0, 1.0), (-1.8, -0.0, 1.0), (-1.9, -0.0, 1.0)'
p452
(dp453
(F-2.0
F-0.0
F1.0
tp454
F1.0
ssS'(-3.9, 5.4, 0.7), (-3.9, 5.5, 0.7), (-3.9, 5.6, 0.7)'
p455
(dp456
(F-3.9
F5.7
F0.7
tp457
F1.0
ssS'(-3.6, 7.3, 0.8), (-3.6, 7.4, 0.8), (-3.6, 7.5, 0.8)'
p458
(dp459
(F-3.6
F7.6
F0.8
tp460
F1.0
ssS'(-3.9, 5.3, 0.7), (-3.9, 5.4, 0.7), (-3.9, 5.5, 0.7)'
p461
(dp462
(F-3.8
F5.5
F0.7
tp463
F0.5
s(F-3.9
F5.6
F0.7
tp464
F0.5
ssS'(-3.6, 6.3, 0.7), (-3.6, 6.4, 0.7), (-3.6, 6.5, 0.7)'
p465
(dp466
(F-3.6
F6.5
F0.8
tp467
F0.3333333333333333
s(F-3.6
F6.6
F0.7
tp468
F0.6666666666666666
ssS'(-3.4, 8.2, 0.8), (-3.4, 8.3, 0.8), (-3.4, 8.4, 0.8)'
p469
(dp470
(F-0.1
F0.0
F1.0
tp471
F0.6
s(F-3.3
F8.4
F0.8
tp472
F0.4
ssS'(-4.0, 1.5, 0.7), (-4.0, 1.6, 0.7), (-4.0, 1.7, 0.7)'
p473
(dp474
(F-4.0
F1.8
F0.7
tp475
F0.8333333333333334
s(F-3.9
F1.7
F0.7
tp476
F0.16666666666666666
ssS'(-3.5, 7.8, 0.8), (-3.5, 7.9, 0.8), (-3.4, 7.9, 0.8)'
p477
(dp478
(F-3.4
F8.0
F0.8
tp479
F1.0
ssS'(-1.2, 0.0, 1.0), (-1.3, 0.0, 1.0), (-1.4, 0.0, 1.0)'
p480
(dp481
(F-1.5
F0.0
F1.0
tp482
F1.0
ssS'(-3.8, -0.1, 1.0), (-3.9, -0.1, 1.0), (-4.0, -0.1, 1.0)'
p483
(dp484
(F-4.0
F-0.1
F0.9
tp485
F1.0
ssS'(-3.6, 7.1, 0.8), (-3.5, 7.1, 0.8), (-3.5, 7.2, 0.8)'
p486
(dp487
(F-3.5
F7.3
F0.8
tp488
F1.0
ssS'(-3.8, 5.3, 0.7), (-3.8, 5.4, 0.7), (-3.7, 5.4, 0.7)'
p489
(dp490
(F-3.7
F5.5
F0.7
tp491
F1.0
ssS'(-3.7, 6.2, 0.7), (-3.6, 6.2, 0.7), (-3.6, 6.3, 0.7)'
p492
(dp493
(F-3.6
F6.4
F0.7
tp494
F0.5
s(F-3.6
F6.3
F0.8
tp495
F0.5
ssS'(-4.0, 1.1, 0.7), (-4.0, 1.2, 0.7), (-4.0, 1.3, 0.7)'
p496
(dp497
(F-4.0
F1.4
F0.7
tp498
F0.875
s(F-4.1
F1.3
F0.7
tp499
F0.125
ssS'(-3.8, 6.4, 0.7), (-3.7, 6.4, 0.7), (-3.7, 6.5, 0.7)'
p500
(dp501
(F-3.7
F6.6
F0.7
tp502
F1.0
ssS'(-3.9, 3.1, 0.7), (-3.9, 3.2, 0.7), (-3.9, 3.3, 0.7)'
p503
(dp504
(F-3.9
F3.4
F0.7
tp505
F1.0
ssS'(-3.9, 1.3, 0.7), (-3.9, 1.4, 0.7), (-3.9, 1.5, 0.7)'
p506
(dp507
(F-3.9
F1.6
F0.7
tp508
F1.0
ssS'(-3.5, 7.7, 0.8), (-3.5, 7.8, 0.8), (-3.4, 7.8, 0.8)'
p509
(dp510
(F-3.4
F7.9
F0.8
tp511
F1.0
ssS'(-2.6, 0.0, 1.0), (-2.7, 0.0, 1.0), (-2.8, -0.0, 1.0)'
p512
(dp513
(F-2.9
F-0.0
F1.0
tp514
F1.0
ssS'(-3.6, 6.4, 0.8), (-3.6, 6.5, 0.8), (-3.6, 6.6, 0.8)'
p515
(dp516
(F-3.6
F6.7
F0.8
tp517
F1.0
ssS'(-3.2, 0.0, 1.0), (-3.3, 0.0, 1.0), (-3.4, 0.0, 1.0)'
p518
(dp519
(F-3.5
F-0.0
F1.0
tp520
F1.0
ssS'(-2.4, 0.0, 1.0), (-2.5, -0.0, 1.0), (-2.6, -0.0, 1.0)'
p521
(dp522
(F-2.7
F-0.0
F1.0
tp523
F1.0
ssS'(-4.0, 0.1, 0.7), (-4.0, 0.2, 0.7), (-4.0, 0.3, 0.7)'
p524
(dp525
(F-4.0
F0.4
F0.7
tp526
F1.0
ssS'(-3.5, 8.2, 0.8), (-3.5, 8.3, 0.8), (-3.4, 8.3, 0.8)'
p527
(dp528
(F-3.4
F8.4
F0.8
tp529
F1.0
ssS'(-3.9, 5.5, 0.7), (-3.8, 5.5, 0.7), (-3.8, 5.6, 0.7)'
p530
(dp531
(F-3.8
F5.7
F0.7
tp532
F1.0
ssS'(-3.9, 4.1, 0.7), (-3.8, 4.1, 0.7), (-3.8, 4.2, 0.7)'
p533
(dp534
(F-3.8
F4.3
F0.7
tp535
F1.0
ssS'(-3.5, 8.0, 0.8), (-3.4, 8.0, 0.8), (-3.4, 8.1, 0.8)'
p536
(dp537
(F-3.4
F8.2
F0.8
tp538
F1.0
ssS'(-4.0, 4.3, 0.7), (-3.9, 4.3, 0.7), (-3.9, 4.4, 0.7)'
p539
(dp540
(F-3.9
F4.5
F0.7
tp541
F1.0
ssS'(-3.8, 6.0, 0.7), (-3.8, 6.1, 0.7), (-3.8, 6.2, 0.7)'
p542
(dp543
(F-3.8
F6.3
F0.7
tp544
F1.0
ssS'(-2.6, -0.1, 1.0), (-2.7, -0.1, 1.0), (-2.8, -0.1, 1.0)'
p545
(dp546
(F-2.9
F-0.1
F1.0
tp547
F1.0
ssS'(-3.4, -0.0, 1.0), (-3.5, -0.0, 1.0), (-3.5, -0.1, 1.0)'
p548
(dp549
(F-3.6
F-0.1
F1.0
tp550
F1.0
ssS'(-3.8, 5.4, 0.7), (-3.8, 5.5, 0.7), (-3.8, 5.6, 0.7)'
p551
(dp552
(F-3.7
F5.6
F0.7
tp553
F0.2
s(F-3.8
F5.7
F0.7
tp554
F0.8
ssS'(-4.1, 0.6, 0.7), (-4.1, 0.7, 0.7), (-4.1, 0.8, 0.7)'
p555
(dp556
(F-4.1
F0.9
F0.7
tp557
F1.0
ssS'(-4.0, 1.2, 0.7), (-4.0, 1.3, 0.7), (-4.1, 1.3, 0.7)'
p558
(dp559
(F-4.1
F1.4
F0.7
tp560
F1.0
ssS'(-3.5, 8.3, 0.8), (-3.5, 8.4, 0.8), (-0.1, 0.0, 1.0)'
p561
(dp562
(F-0.2
F0.0
F1.0
tp563
F1.0
ssS'(-3.9, 0.9, 0.7), (-4.0, 0.9, 0.7), (-4.0, 1.0, 0.7)'
p564
(dp565
(F-4.0
F1.1
F0.7
tp566
F1.0
ssS'(-3.7, 7.3, 0.8), (-3.7, 7.4, 0.8), (-3.6, 7.4, 0.8)'
p567
(dp568
(F-3.6
F7.5
F0.8
tp569
F1.0
ssS'(-3.9, 4.3, 0.7), (-3.9, 4.4, 0.7), (-3.9, 4.5, 0.7)'
p570
(dp571
(F-3.9
F4.6
F0.7
tp572
F1.0
ssS'(-0.1, 0.0, 1.0), (-0.2, 0.0, 1.0), (-0.3, 0.0, 1.0)'
p573
(dp574
(F-0.4
F0.0
F1.0
tp575
F1.0
ssS'(-3.4, 8.4, 0.8), (-0.1, 0.0, 1.0), (-0.2, 0.0, 1.0)'
p576
(dp577
(F-0.3
F0.0
F1.0
tp578
F1.0
ssS'(-4.0, 3.1, 0.7), (-4.0, 3.2, 0.7), (-4.0, 3.3, 0.7)'
p579
(dp580
(F-4.0
F3.4
F0.7
tp581
F1.0
ssS'(-3.8, 4.8, 0.7), (-3.8, 4.9, 0.7), (-3.8, 5.0, 0.7)'
p582
(dp583
(F-3.8
F5.1
F0.7
tp584
F1.0
ssS'(-4.1, 1.1, 0.7), (-0.1, 0.0, 1.0), (-0.2, 0.0, 1.0)'
p585
(dp586
(F-0.3
F0.0
F1.0
tp587
F1.0
ssS'(-3.4, 8.1, 0.8), (-3.4, 8.2, 0.8), (-3.3, 8.2, 0.8)'
p588
(dp589
(F-3.3
F8.3
F0.8
tp590
F1.0
ssS'(-2.9, -0.1, 1.0), (-3.0, -0.1, 1.0), (-3.1, -0.1, 1.0)'
p591
(dp592
(F-3.2
F-0.1
F1.0
tp593
F1.0
ssS'(-3.9, 2.6, 0.7), (-3.9, 2.7, 0.7), (-3.9, 2.8, 0.7)'
p594
(dp595
(F-3.9
F2.9
F0.7
tp596
F1.0
ssS'(-0.4, 0.0, 1.0), (-0.5, 0.0, 1.0), (-0.6, 0.0, 1.0)'
p597
(dp598
(F-0.7
F0.0
F1.0
tp599
F1.0
ssS'(-3.8, -0.1, 1.0), (-3.9, -0.1, 1.0), (-3.9, -0.1, 0.9)'
p600
(dp601
(F-3.9
F-0.1
F0.8
tp602
F1.0
ssS'(-3.2, -0.1, 1.0), (-3.3, -0.1, 1.0), (-3.4, -0.1, 1.0)'
p603
(dp604
(F-3.5
F-0.1
F1.0
tp605
F1.0
ssS'(-3.9, 2.0, 0.7), (-3.9, 2.1, 0.7), (-3.9, 2.2, 0.7)'
p606
(dp607
(F-3.9
F2.3
F0.7
tp608
F1.0
ssS'(-3.4, 8.1, 0.8), (-3.4, 8.2, 0.8), (-3.4, 8.3, 0.8)'
p609
(dp610
(F-3.4
F8.4
F0.8
tp611
F0.6666666666666666
s(F-3.3
F8.3
F0.8
tp612
F0.3333333333333333
ssS'(-4.0, 2.2, 0.7), (-4.0, 2.3, 0.7), (-3.9, 2.3, 0.7)'
p613
(dp614
(F-3.9
F2.4
F0.7
tp615
F1.0
ssS'(-3.8, 5.6, 0.7), (-3.7, 5.6, 0.7), (-3.7, 5.7, 0.7)'
p616
(dp617
(F-3.7
F5.8
F0.7
tp618
F1.0
ssS'(-3.9, 4.7, 0.7), (-3.9, 4.8, 0.7), (-3.8, 4.8, 0.7)'
p619
(dp620
(F-3.8
F4.9
F0.7
tp621
F1.0
ssS'(-3.3, -0.0, 1.0), (-3.4, -0.0, 1.0), (-3.5, -0.0, 1.0)'
p622
(dp623
(F-3.5
F-0.1
F1.0
tp624
F0.125
s(F-3.6
F-0.0
F1.0
tp625
F0.875
ssS'(-4.0, 1.4, 0.7), (-4.0, 1.5, 0.7), (-4.0, 1.6, 0.7)'
p626
(dp627
(F-3.9
F1.6
F0.7
tp628
F0.25
s(F-4.0
F1.7
F0.7
tp629
F0.75
ssS'(-3.8, 5.8, 0.7), (-3.8, 5.9, 0.7), (-3.8, 6.0, 0.7)'
p630
(dp631
(F-3.8
F6.1
F0.7
tp632
F0.75
s(F-3.7
F6.0
F0.7
tp633
F0.25
ssS'(-4.0, 3.7, 0.7), (-4.0, 3.8, 0.7), (-4.0, 3.9, 0.7)'
p634
(dp635
(F-4.0
F4.0
F0.7
tp636
F1.0
ssS'(-3.9, 5.6, 0.7), (-3.9, 5.7, 0.7), (-3.8, 5.7, 0.7)'
p637
(dp638
(F-3.8
F5.8
F0.7
tp639
F1.0
ssS'(-3.7, 6.4, 0.7), (-3.7, 6.5, 0.7), (-3.7, 6.5, 0.8)'
p640
(dp641
(F-3.7
F6.6
F0.8
tp642
F1.0
ssS'(-3.3, -0.0, 1.0), (-3.4, -0.0, 1.0), (-3.4, -0.1, 1.0)'
p643
(dp644
(F-3.5
F-0.1
F1.0
tp645
F1.0
ssS'(-4.1, 1.5, 0.7), (-4.1, 1.6, 0.7), (-4.1, 1.7, 0.7)'
p646
(dp647
(F-4.1
F1.8
F0.7
tp648
F1.0
ssS'(-3.7, 6.3, 0.7), (-3.6, 6.3, 0.7), (-3.6, 6.4, 0.7)'
p649
(dp650
(F-3.6
F6.5
F0.7
tp651
F0.75
s(F-3.6
F6.4
F0.8
tp652
F0.25
ssS'(-3.6, 7.0, 0.7), (-3.6, 7.1, 0.7), (-3.6, 7.1, 0.8)'
p653
(dp654
(F-3.6
F7.2
F0.8
tp655
F1.0
ssS'(-3.6, 6.9, 0.8), (-3.6, 7.0, 0.8), (-3.6, 7.1, 0.8)'
p656
(dp657
(F-3.5
F7.1
F0.8
tp658
F0.5714285714285714
s(F-3.6
F7.2
F0.8
tp659
F0.42857142857142855
ssS'(-4.0, -0.1, 0.7), (-4.0, -0.0, 0.7), (-4.0, 0.1, 0.7)'
p660
(dp661
(F-4.0
F0.2
F0.7
tp662
F1.0
ssS'(-3.9, 2.4, 0.7), (-3.9, 2.5, 0.7), (-3.9, 2.6, 0.7)'
p663
(dp664
(F-3.9
F2.7
F0.7
tp665
F1.0
ssS'(-3.6, 6.4, 0.7), (-3.6, 6.4, 0.8), (-3.6, 6.5, 0.8)'
p666
(dp667
(F-3.6
F6.6
F0.8
tp668
F1.0
ssS'(-3.0, -0.0, 1.0), (-3.0, -0.1, 1.0), (-3.1, -0.1, 1.0)'
p669
(dp670
(F-3.2
F-0.1
F1.0
tp671
F1.0
ssS'(-4.0, 2.7, 0.7), (-4.0, 2.8, 0.7), (-3.9, 2.8, 0.7)'
p672
(dp673
(F-3.9
F2.9
F0.7
tp674
F1.0
ssS'(-3.7, 6.0, 0.7), (-3.7, 6.1, 0.7), (-3.7, 6.2, 0.7)'
p675
(dp676
(F-3.6
F6.2
F0.7
tp677
F0.18181818181818182
s(F-3.7
F6.3
F0.7
tp678
F0.8181818181818182
ssS'(-3.9, 0.9, 0.7), (-3.9, 1.0, 0.7), (-4.0, 1.0, 0.7)'
p679
(dp680
(F-4.0
F1.1
F0.7
tp681
F1.0
ssS'(-3.5, 8.0, 0.8), (-3.5, 8.1, 0.8), (-3.5, 8.2, 0.8)'
p682
(dp683
(F-3.5
F8.3
F0.8
tp684
F1.0
ssS'(-3.3, 0.0, 1.0), (-3.4, 0.0, 1.0), (-3.5, -0.0, 1.0)'
p685
(dp686
(F-3.6
F-0.0
F1.0
tp687
F1.0
ssS'(-4.0, 1.5, 0.7), (-4.0, 1.6, 0.7), (-3.9, 1.6, 0.7)'
p688
(dp689
(F-3.9
F1.7
F0.7
tp690
F1.0
ssS'(-3.9, 5.4, 0.7), (-3.9, 5.5, 0.7), (-3.8, 5.5, 0.7)'
p691
(dp692
(F-3.8
F5.6
F0.7
tp693
F1.0
ssS'(-4.1, 2.0, 0.7), (-4.1, 2.1, 0.7), (-4.0, 2.1, 0.7)'
p694
(dp695
(F-4.0
F2.2
F0.7
tp696
F1.0
ssS'(-3.6, 6.6, 0.8), (-3.6, 6.7, 0.8), (-3.6, 6.8, 0.8)'
p697
(dp698
(F-3.6
F6.9
F0.8
tp699
F1.0
ssS'(-3.8, 6.6, 0.7), (-3.7, 6.6, 0.7), (-3.7, 6.7, 0.7)'
p700
(dp701
(F-3.7
F6.7
F0.8
tp702
F1.0
ssS'(-3.3, 8.2, 0.8), (-3.3, 8.3, 0.8), (-3.3, 8.4, 0.8)'
p703
(dp704
(F-0.1
F0.0
F1.0
tp705
F1.0
ssS'(-2.7, 0.0, 1.0), (-2.8, -0.0, 1.0), (-2.9, -0.0, 1.0)'
p706
(dp707
(F-3.0
F-0.0
F1.0
tp708
F1.0
ssS'(-3.6, 6.9, 0.8), (-3.5, 6.9, 0.8), (-3.5, 7.0, 0.8)'
p709
(dp710
(F-3.5
F7.1
F0.8
tp711
F1.0
ssS'(-3.6, 6.5, 0.7), (-3.6, 6.5, 0.8), (-3.6, 6.6, 0.8)'
p712
(dp713
(F-3.6
F6.7
F0.8
tp714
F1.0
ssS'(-2.9, 0.0, 1.0), (-3.0, 0.0, 1.0), (-3.1, 0.0, 1.0)'
p715
(dp716
(F-3.2
F0.0
F1.0
tp717
F1.0
ssS'(-3.1, -0.1, 1.0), (-3.2, -0.1, 1.0), (-3.3, -0.1, 1.0)'
p718
(dp719
(F-3.4
F-0.1
F1.0
tp720
F1.0
ssS'(-3.9, -0.0, 0.7), (-3.9, 0.1, 0.7), (-4.0, 0.1, 0.7)'
p721
(dp722
(F-4.0
F0.2
F0.7
tp723
F1.0
ssS'(-3.5, 7.6, 0.8), (-3.4, 7.6, 0.8), (-3.4, 7.7, 0.8)'
p724
(dp725
(F-3.4
F7.8
F0.8
tp726
F1.0
ssS'(-3.1, 0.0, 1.0), (-3.2, 0.0, 1.0), (-3.3, 0.0, 1.0)'
p727
(dp728
(F-3.4
F0.0
F1.0
tp729
F1.0
ssS'(-2.5, -0.1, 1.0), (-2.6, -0.1, 1.0), (-2.7, -0.1, 1.0)'
p730
(dp731
(F-2.8
F-0.1
F1.0
tp732
F1.0
ssS'(-3.7, 6.1, 0.7), (-3.7, 6.2, 0.7), (-3.6, 6.2, 0.7)'
p733
(dp734
(F-3.6
F6.3
F0.7
tp735
F1.0
ssS'(-3.6, 6.3, 0.8), (-3.6, 6.4, 0.8), (-3.6, 6.5, 0.8)'
p736
(dp737
(F-3.6
F6.6
F0.8
tp738
F1.0
ssS'(-3.4, 7.7, 0.8), (-3.4, 7.8, 0.8), (-3.4, 7.9, 0.8)'
p739
(dp740
(F-3.4
F8.0
F0.8
tp741
F1.0
ssS'(-3.6, 7.6, 0.8), (-3.5, 7.6, 0.8), (-3.5, 7.7, 0.8)'
p742
(dp743
(F-3.5
F7.8
F0.8
tp744
F1.0
ssS'(-3.5, 7.6, 0.8), (-3.5, 7.7, 0.8), (-3.4, 7.7, 0.8)'
p745
(dp746
(F-3.4
F7.8
F0.8
tp747
F1.0
ssS'(-3.9, 5.0, 0.7), (-3.8, 5.0, 0.7), (-3.8, 5.1, 0.7)'
p748
(dp749
(F-3.8
F5.2
F0.7
tp750
F1.0
ssS'(-2.1, 0.0, 1.0), (-2.2, 0.0, 1.0), (-2.3, 0.0, 1.0)'
p751
(dp752
(F-2.4
F0.0
F1.0
tp753
F1.0
ssS'(-3.6, 7.1, 0.7), (-3.6, 7.1, 0.8), (-3.6, 7.2, 0.8)'
p754
(dp755
(F-3.6
F7.3
F0.8
tp756
F1.0
ssS'(-1.9, 0.0, 1.0), (-2.0, 0.0, 1.0), (-2.1, 0.0, 1.0)'
p757
(dp758
(F-2.2
F0.0
F1.0
tp759
F1.0
ssS'(-3.5, 7.8, 0.8), (-3.5, 7.9, 0.8), (-3.5, 8.0, 0.8)'
p760
(dp761
(F-3.5
F8.1
F0.8
tp762
F0.6
s(F-3.4
F8.0
F0.8
tp763
F0.4
ssS'(-3.9, 1.5, 0.7), (-3.9, 1.6, 0.7), (-3.9, 1.7, 0.7)'
p764
(dp765
(F-3.9
F1.8
F0.7
tp766
F1.0
ssS'(-3.9, 4.7, 0.7), (-3.9, 4.8, 0.7), (-3.9, 4.9, 0.7)'
p767
(dp768
(F-3.9
F5.0
F0.7
tp769
F1.0
ssS'(-4.0, -0.2, 0.8), (-4.0, -0.2, 0.7), (-4.0, -0.1, 0.7)'
p770
(dp771
(F-4.0
F-0.0
F0.7
tp772
F1.0
ssS'(-3.5, -0.0, 1.0), (-3.6, -0.0, 1.0), (-3.7, -0.0, 1.0)'
p773
(dp774
(F-3.7
F-0.1
F1.0
tp775
F0.42857142857142855
s(F-3.8
F-0.0
F1.0
tp776
F0.5714285714285714
ssS'(-3.9, 2.1, 0.7), (-3.9, 2.2, 0.7), (-3.9, 2.3, 0.7)'
p777
(dp778
(F-3.9
F2.4
F0.7
tp779
F1.0
ssS'(-3.6, 7.5, 0.8), (-3.6, 7.6, 0.8), (-3.5, 7.6, 0.8)'
p780
(dp781
(F-3.5
F7.7
F0.8
tp782
F1.0
ssS'(-3.6, 6.8, 0.8), (-3.6, 6.9, 0.8), (-3.6, 7.0, 0.8)'
p783
(dp784
(F-3.5
F7.0
F0.8
tp785
F0.2222222222222222
s(F-3.6
F7.1
F0.8
tp786
F0.7777777777777778
ssS'(-3.6, -0.1, 1.0), (-3.7, -0.1, 1.0), (-3.8, -0.1, 1.0)'
p787
(dp788
(F-3.9
F-0.1
F1.0
tp789
F1.0
ssS'(-3.7, 6.9, 0.7), (-3.7, 7.0, 0.7), (-3.6, 7.0, 0.7)'
p790
(dp791
(F-3.6
F7.1
F0.7
tp792
F1.0
ssS'(-3.7, 6.7, 0.8), (-3.7, 6.8, 0.8), (-3.7, 6.9, 0.8)'
p793
(dp794
(F-3.7
F7.0
F0.8
tp795
F1.0
ssS'(-3.7, 6.8, 0.8), (-3.7, 6.9, 0.8), (-3.7, 7.0, 0.8)'
p796
(dp797
(F-3.7
F7.1
F0.8
tp798
F1.0
ssS'(-1.8, -0.0, 1.0), (-1.9, -0.0, 1.0), (-2.0, -0.0, 1.0)'
p799
(dp800
(F-2.1
F-0.0
F1.0
tp801
F1.0
ssS'(-4.1, 0.4, 0.7), (-4.1, 0.5, 0.7), (-4.1, 0.6, 0.7)'
p802
(dp803
(F-4.1
F0.7
F0.7
tp804
F1.0
ssS'(-3.9, -0.0, 0.7), (-3.9, 0.1, 0.7), (-3.9, 0.2, 0.7)'
p805
(dp806
(F-3.9
F0.3
F0.7
tp807
F1.0
ssS'(-2.7, -0.0, 1.0), (-2.8, -0.0, 1.0), (-2.9, -0.0, 1.0)'
p808
(dp809
(F-3.0
F-0.0
F1.0
tp810
F1.0
ssS'(-2.2, 0.0, 1.0), (-2.3, 0.0, 1.0), (-2.4, 0.0, 1.0)'
p811
(dp812
(F-2.5
F0.0
F1.0
tp813
F1.0
ssS'(-3.9, 3.4, 0.7), (-3.9, 3.5, 0.7), (-3.9, 3.6, 0.7)'
p814
(dp815
(F-3.9
F3.7
F0.7
tp816
F1.0
ssS'(-3.7, 6.7, 0.7), (-3.7, 6.8, 0.7), (-3.7, 6.9, 0.7)'
p817
(dp818
(F-3.7
F7.0
F0.7
tp819
F0.5
s(F-3.6
F6.9
F0.7
tp820
F0.5
ssS'(-3.9, 0.2, 0.7), (-3.9, 0.3, 0.7), (-3.9, 0.4, 0.7)'
p821
(dp822
(F-3.9
F0.5
F0.7
tp823
F1.0
ssS'(-3.9, 1.2, 0.7), (-4.0, 1.2, 0.7), (-4.0, 1.3, 0.7)'
p824
(dp825
(F-4.0
F1.4
F0.7
tp826
F1.0
ssS'(-3.8, 4.5, 0.7), (-3.8, 4.6, 0.7), (-3.8, 4.7, 0.7)'
p827
(dp828
(F-3.8
F4.8
F0.7
tp829
F1.0
ssS'(-4.0, 2.8, 0.7), (-4.0, 2.9, 0.7), (-3.9, 2.9, 0.7)'
p830
(dp831
(F-3.9
F3.0
F0.7
tp832
F1.0
ssS'(-3.9, 3.5, 0.7), (-3.9, 3.6, 0.7), (-3.9, 3.7, 0.7)'
p833
(dp834
(F-3.9
F3.8
F0.7
tp835
F1.0
ssS'(-3.4, -0.1, 1.0), (-3.5, -0.1, 1.0), (-3.6, -0.1, 1.0)'
p836
(dp837
(F-3.7
F-0.1
F1.0
tp838
F1.0
ssS'(-4.0, 2.9, 0.7), (-4.0, 3.0, 0.7), (-4.0, 3.1, 0.7)'
p839
(dp840
(F-4.0
F3.2
F0.7
tp841
F1.0
ssS'(-3.5, 6.9, 0.8), (-3.5, 7.0, 0.8), (-3.5, 7.1, 0.8)'
p842
(dp843
(F-3.5
F7.2
F0.8
tp844
F1.0
ssS'(-4.0, 4.3, 0.7), (-4.0, 4.4, 0.7), (-4.0, 4.5, 0.7)'
p845
(dp846
(F-3.9
F4.5
F0.7
tp847
F1.0
ssS'(-2.2, -0.0, 1.0), (-2.3, -0.0, 1.0), (-2.4, -0.0, 1.0)'
p848
(dp849
(F-2.5
F-0.0
F1.0
tp850
F1.0
ssS'(-2.8, 0.0, 1.0), (-2.9, 0.0, 1.0), (-3.0, 0.0, 1.0)'
p851
(dp852
(F-3.1
F0.0
F1.0
tp853
F1.0
ssS'(-0.8, 0.0, 1.0), (-0.9, 0.0, 1.0), (-1.0, 0.0, 1.0)'
p854
(dp855
(F-1.1
F0.0
F1.0
tp856
F1.0
ssS'(-2.9, -0.0, 1.0), (-3.0, -0.0, 1.0), (-3.0, -0.1, 1.0)'
p857
(dp858
(F-3.1
F-0.1
F1.0
tp859
F1.0
ssS'(-3.0, -0.0, 1.0), (-3.1, -0.0, 1.0), (-3.2, -0.0, 1.0)'
p860
(dp861
(F-3.3
F-0.0
F1.0
tp862
F1.0
ssS'(-4.0, 4.2, 0.7), (-4.0, 4.3, 0.7), (-4.0, 4.4, 0.7)'
p863
(dp864
(F-4.0
F4.5
F0.7
tp865
F1.0
ssS'(-1.0, 0.0, 1.0), (-1.1, 0.0, 1.0), (-1.2, 0.0, 1.0)'
p866
(dp867
(F-1.3
F0.0
F1.0
tp868
F1.0
ssS'(-3.8, 4.9, 0.7), (-3.8, 5.0, 0.7), (-3.8, 5.1, 0.7)'
p869
(dp870
(F-3.8
F5.2
F0.7
tp871
F1.0
ssS'(-3.3, 8.4, 0.8), (-0.1, 0.0, 1.0), (-0.2, 0.0, 1.0)'
p872
(dp873
(F-0.3
F0.0
F1.0
tp874
F1.0
ssS'(-3.6, 6.2, 0.7), (-3.6, 6.3, 0.7), (-3.6, 6.4, 0.7)'
p875
(dp876
(F-3.6
F6.4
F0.8
tp877
F1.0
ssS'(-3.7, 6.8, 0.7), (-3.7, 6.9, 0.7), (-3.7, 7.0, 0.7)'
p878
(dp879
(F-3.6
F7.0
F0.7
tp880
F1.0
ssS'(-3.8, 5.6, 0.7), (-3.8, 5.7, 0.7), (-3.8, 5.8, 0.7)'
p881
(dp882
(F-3.8
F5.9
F0.7
tp883
F1.0
ssS'(-3.9, -0.0, 0.8), (-3.9, -0.0, 0.7), (-3.9, 0.1, 0.7)'
p884
(dp885
(F-3.9
F0.2
F0.7
tp886
F1.0
ssS'(-3.9, 1.0, 0.7), (-4.0, 1.0, 0.7), (-4.0, 1.1, 0.7)'
p887
(dp888
(F-4.0
F1.2
F0.7
tp889
F1.0
ssS'(-3.9, 1.2, 0.7), (-3.9, 1.3, 0.7), (-3.9, 1.4, 0.7)'
p890
(dp891
(F-3.9
F1.5
F0.7
tp892
F1.0
ssS'(-3.6, 7.3, 0.8), (-3.5, 7.3, 0.8), (-3.5, 7.4, 0.8)'
p893
(dp894
(F-3.5
F7.5
F0.8
tp895
F1.0
ssS'(-3.7, 5.9, 0.7), (-3.7, 6.0, 0.7), (-3.7, 6.1, 0.7)'
p896
(dp897
(F-3.7
F6.2
F0.7
tp898
F1.0
ssS'(-1.7, 0.0, 1.0), (-1.8, 0.0, 1.0), (-1.9, -0.0, 1.0)'
p899
(dp900
(F-2.0
F-0.0
F1.0
tp901
F1.0
ssS'(-3.9, 4.5, 0.7), (-3.9, 4.6, 0.7), (-3.9, 4.7, 0.7)'
p902
(dp903
(F-3.9
F4.8
F0.7
tp904
F1.0
ssS'(-4.0, 4.4, 0.7), (-4.0, 4.5, 0.7), (-3.9, 4.5, 0.7)'
p905
(dp906
(F-3.9
F4.6
F0.7
tp907
F1.0
ssS'(-4.0, 3.2, 0.7), (-4.0, 3.3, 0.7), (-4.0, 3.4, 0.7)'
p908
(dp909
(F-4.0
F3.5
F0.7
tp910
F1.0
ssS'(-3.5, 8.3, 0.8), (-3.4, 8.3, 0.8), (-3.4, 8.4, 0.8)'
p911
(dp912
(F-0.1
F0.0
F1.0
tp913
F1.0
ssS'(-3.2, -0.0, 1.0), (-3.3, -0.0, 1.0), (-3.3, -0.1, 1.0)'
p914
(dp915
(F-3.4
F-0.1
F1.0
tp916
F1.0
ssS'(-3.7, -0.0, 1.0), (-3.8, -0.0, 1.0), (-3.8, -0.1, 1.0)'
p917
(dp918
(F-3.9
F-0.1
F1.0
tp919
F1.0
ssS'(-3.9, 4.6, 0.7), (-3.9, 4.7, 0.7), (-3.9, 4.8, 0.7)'
p920
(dp921
(F-3.8
F4.8
F0.7
tp922
F0.25
s(F-3.9
F4.9
F0.7
tp923
F0.75
ssS'(-2.2, 0.0, 1.0), (-2.3, -0.0, 1.0), (-2.4, -0.0, 1.0)'
p924
(dp925
(F-2.5
F-0.0
F1.0
tp926
F1.0
ssS'(-3.7, 7.0, 0.7), (-3.6, 7.0, 0.7), (-3.6, 7.1, 0.7)'
p927
(dp928
(F-3.6
F7.1
F0.8
tp929
F1.0
ssS'(-3.7, 6.5, 0.7), (-3.7, 6.6, 0.7), (-3.6, 6.6, 0.7)'
p930
(dp931
(F-3.6
F6.7
F0.7
tp932
F1.0
ssS'(-3.6, 7.7, 0.8), (-3.6, 7.8, 0.8), (-3.5, 7.8, 0.8)'
p933
(dp934
(F-3.5
F7.9
F0.8
tp935
F1.0
ssS'(-3.9, 5.5, 0.7), (-3.9, 5.6, 0.7), (-3.9, 5.7, 0.7)'
p936
(dp937
(F-3.8
F5.7
F0.7
tp938
F1.0
ssS'(-3.5, 8.4, 0.8), (-0.1, 0.0, 1.0), (-0.2, 0.0, 1.0)'
p939
(dp940
(F-0.3
F0.0
F1.0
tp941
F1.0
ssS'(-3.8, 6.0, 0.7), (-3.7, 6.0, 0.7), (-3.7, 6.1, 0.7)'
p942
(dp943
(F-3.7
F6.2
F0.7
tp944
F1.0
ssS'(-4.0, 1.3, 0.7), (-4.1, 1.3, 0.7), (-4.1, 1.4, 0.7)'
p945
(dp946
(F-4.1
F1.5
F0.7
tp947
F1.0
ssS'(-1.7, 0.0, 1.0), (-1.8, 0.0, 1.0), (-1.9, 0.0, 1.0)'
p948
(dp949
(F-2.0
F0.0
F1.0
tp950
F1.0
ssS'(-3.9, 4.2, 0.7), (-3.8, 4.2, 0.7), (-3.8, 4.3, 0.7)'
p951
(dp952
(F-3.8
F4.4
F0.7
tp953
F1.0
ssS'(-1.1, 0.0, 1.0), (-1.2, 0.0, 1.0), (-1.3, 0.0, 1.0)'
p954
(dp955
(F-1.4
F0.0
F1.0
tp956
F1.0
ssS'(-3.9, -0.1, 0.7), (-3.9, -0.0, 0.7), (-3.9, 0.1, 0.7)'
p957
(dp958
(F-4.0
F0.1
F0.7
tp959
F0.09090909090909091
s(F-3.9
F0.2
F0.7
tp960
F0.9090909090909091
ssS'(-3.5, 7.4, 0.8), (-3.5, 7.5, 0.8), (-3.5, 7.6, 0.8)'
p961
(dp962
(F-3.4
F7.6
F0.8
tp963
F0.1
s(F-3.5
F7.7
F0.8
tp964
F0.9
ssS'(-4.1, 1.3, 0.7), (-4.1, 1.4, 0.7), (-4.1, 1.5, 0.7)'
p965
(dp966
(F-4.1
F1.6
F0.7
tp967
F1.0
ssS'(-1.6, 0.0, 1.0), (-1.7, 0.0, 1.0), (-1.8, -0.0, 1.0)'
p968
(dp969
(F-1.9
F-0.0
F1.0
tp970
F1.0
ssS'(-3.6, 7.9, 0.8), (-3.6, 8.0, 0.8), (-3.5, 8.0, 0.8)'
p971
(dp972
(F-3.5
F8.1
F0.8
tp973
F1.0
ssS'(-3.8, 4.2, 0.7), (-3.8, 4.3, 0.7), (-3.8, 4.4, 0.7)'
p974
(dp975
(F-3.8
F4.5
F0.7
tp976
F1.0
ssS'(-3.9, 0.6, 0.7), (-3.9, 0.7, 0.7), (-3.9, 0.8, 0.7)'
p977
(dp978
(F-3.9
F0.9
F0.7
tp979
F1.0
ssS'(-3.4, 0.0, 1.0), (-3.5, -0.0, 1.0), (-3.6, -0.0, 1.0)'
p980
(dp981
(F-3.7
F-0.0
F1.0
tp982
F1.0
ssS'(-3.7, 7.1, 0.8), (-3.6, 7.1, 0.8), (-3.6, 7.2, 0.8)'
p983
(dp984
(F-3.6
F7.3
F0.8
tp985
F1.0
ssS'(-3.7, 6.6, 0.8), (-3.7, 6.7, 0.8), (-3.7, 6.8, 0.8)'
p986
(dp987
(F-3.7
F6.9
F0.8
tp988
F1.0
ssS'(-3.5, 7.6, 0.8), (-3.5, 7.7, 0.8), (-3.5, 7.8, 0.8)'
p989
(dp990
(F-3.4
F7.8
F0.8
tp991
F0.42857142857142855
s(F-3.5
F7.9
F0.8
tp992
F0.5714285714285714
ssS'(-3.6, -0.0, 1.0), (-3.6, -0.1, 1.0), (-3.7, -0.1, 1.0)'
p993
(dp994
(F-3.8
F-0.1
F1.0
tp995
F1.0
ssS'(-1.5, -0.0, 1.0), (-1.6, -0.0, 1.0), (-1.7, -0.0, 1.0)'
p996
(dp997
(F-1.8
F-0.0
F1.0
tp998
F1.0
ssS'(-2.3, 0.0, 1.0), (-2.4, 0.0, 1.0), (-2.5, 0.0, 1.0)'
p999
(dp1000
(F-2.6
F0.0
F1.0
tp1001
F1.0
ssS'(-3.7, 6.3, 0.7), (-3.7, 6.4, 0.7), (-3.6, 6.4, 0.7)'
p1002
(dp1003
(F-3.6
F6.5
F0.7
tp1004
F1.0
ssS'(-1.7, 0.0, 1.0), (-1.8, -0.0, 1.0), (-1.9, -0.0, 1.0)'
p1005
(dp1006
(F-2.0
F-0.0
F1.0
tp1007
F1.0
ssS'(-3.5, -0.0, 1.0), (-3.6, -0.0, 1.0), (-3.6, -0.1, 1.0)'
p1008
(dp1009
(F-3.7
F-0.1
F1.0
tp1010
F1.0
ssS'(-3.9, 1.1, 0.7), (-3.9, 1.2, 0.7), (-3.9, 1.3, 0.7)'
p1011
(dp1012
(F-3.9
F1.4
F0.7
tp1013
F1.0
ssS'(-3.8, 5.3, 0.7), (-3.7, 5.4, 0.7), (-3.7, 5.5, 0.7)'
p1014
(dp1015
(F-3.7
F5.6
F0.7
tp1016
F1.0
ssS'(-3.9, 2.7, 0.7), (-3.9, 2.8, 0.7), (-3.9, 2.9, 0.7)'
p1017
(dp1018
(F-3.9
F3.0
F0.7
tp1019
F1.0
ssS'(-4.0, 0.8, 0.7), (-4.0, 0.9, 0.7), (-4.0, 1.0, 0.7)'
p1020
(dp1021
(F-4.0
F1.1
F0.7
tp1022
F1.0
ssS'(-3.9, -0.1, 1.0), (-4.0, -0.1, 1.0), (-4.0, -0.1, 0.9)'
p1023
(dp1024
(F-4.0
F-0.1
F0.8
tp1025
F1.0
ssS'(-3.6, 6.3, 0.7), (-3.6, 6.4, 0.7), (-3.6, 6.4, 0.8)'
p1026
(dp1027
(F-3.6
F6.5
F0.8
tp1028
F1.0
ssS'(-2.5, 0.0, 1.0), (-2.6, 0.0, 1.0), (-2.7, -0.0, 1.0)'
p1029
(dp1030
(F-2.8
F-0.0
F1.0
tp1031
F1.0
ssS'(-3.7, 6.4, 0.7), (-3.6, 6.4, 0.7), (-3.6, 6.5, 0.7)'
p1032
(dp1033
(F-3.6
F6.5
F0.8
tp1034
F1.0
ssS'(-4.0, 2.3, 0.7), (-4.0, 2.4, 0.7), (-4.0, 2.5, 0.7)'
p1035
(dp1036
(F-4.0
F2.6
F0.7
tp1037
F1.0
ssS'(-4.0, -0.0, 0.7), (-4.0, 0.1, 0.7), (-4.0, 0.2, 0.7)'
p1038
(dp1039
(F-4.0
F0.3
F0.7
tp1040
F1.0
ssS'(-3.7, 6.6, 0.7), (-3.6, 6.6, 0.7), (-3.6, 6.7, 0.7)'
p1041
(dp1042
(F-3.6
F6.7
F0.8
tp1043
F1.0
ssS'(-4.1, 0.5, 0.7), (-4.1, 0.6, 0.7), (-4.1, 0.7, 0.7)'
p1044
(dp1045
(F-4.1
F0.8
F0.7
tp1046
F1.0
ssS'(-3.9, -0.1, 0.9), (-3.9, -0.1, 0.8), (-3.9, -0.1, 0.7)'
p1047
(dp1048
(F-3.9
F-0.0
F0.7
tp1049
F1.0
ssS'(-3.9, -0.0, 1.0), (-3.9, -0.0, 0.9), (-3.9, -0.0, 0.8)'
p1050
(dp1051
(F-3.9
F-0.0
F0.7
tp1052
F1.0
ssS'(-2.7, 0.0, 1.0), (-2.8, 0.0, 1.0), (-2.9, -0.0, 1.0)'
p1053
(dp1054
(F-3.0
F-0.0
F1.0
tp1055
F1.0
ssS'(-1.4, -0.0, 1.0), (-1.5, -0.0, 1.0), (-1.6, -0.0, 1.0)'
p1056
(dp1057
(F-1.7
F-0.0
F1.0
tp1058
F1.0
ssS'(-2.4, 0.0, 1.0), (-2.5, 0.0, 1.0), (-2.6, -0.0, 1.0)'
p1059
(dp1060
(F-2.7
F-0.0
F1.0
tp1061
F1.0
ssS'(-4.0, 4.5, 0.7), (-3.9, 4.5, 0.7), (-3.9, 4.6, 0.7)'
p1062
(dp1063
(F-3.9
F4.7
F0.7
tp1064
F1.0
ssS'(-3.6, 7.6, 0.8), (-3.6, 7.7, 0.8), (-3.5, 7.7, 0.8)'
p1065
(dp1066
(F-3.5
F7.8
F0.8
tp1067
F1.0
ssS'(-3.9, 4.3, 0.7), (-3.8, 4.3, 0.7), (-3.8, 4.4, 0.7)'
p1068
(dp1069
(F-3.8
F4.5
F0.7
tp1070
F1.0
ssS'(-3.8, 4.4, 0.7), (-3.8, 4.5, 0.7), (-3.8, 4.6, 0.7)'
p1071
(dp1072
(F-3.8
F4.7
F0.7
tp1073
F1.0
ssS'(-1.5, 0.0, 1.0), (-1.6, 0.0, 1.0), (-1.7, 0.0, 1.0)'
p1074
(dp1075
(F-1.8
F0.0
F1.0
tp1076
F1.0
ssS'(-4.1, 2.1, 0.7), (-4.0, 2.1, 0.7), (-4.0, 2.2, 0.7)'
p1077
(dp1078
(F-4.0
F2.3
F0.7
tp1079
F1.0
ssS'(-3.5, 7.5, 0.8), (-3.5, 7.6, 0.8), (-3.5, 7.7, 0.8)'
p1080
(dp1081
(F-3.4
F7.7
F0.8
tp1082
F0.3333333333333333
s(F-3.5
F7.8
F0.8
tp1083
F0.6666666666666666
ssS'(-3.6, 6.9, 0.8), (-3.6, 7.0, 0.8), (-3.5, 7.0, 0.8)'
p1084
(dp1085
(F-3.5
F7.1
F0.8
tp1086
F1.0
ssS'(-3.9, 5.2, 0.7), (-3.9, 5.3, 0.7), (-3.9, 5.4, 0.7)'
p1087
(dp1088
(F-3.9
F5.5
F0.7
tp1089
F1.0
ssS'(-2.4, -0.0, 1.0), (-2.5, -0.0, 1.0), (-2.6, -0.0, 1.0)'
p1090
(dp1091
(F-2.7
F-0.0
F1.0
tp1092
F1.0
ssS'(-0.7, 0.0, 1.0), (-0.8, 0.0, 1.0), (-0.9, 0.0, 1.0)'
p1093
(dp1094
(F-1.0
F0.0
F1.0
tp1095
F1.0
ssS'(-2.0, -0.0, 1.0), (-2.1, -0.0, 1.0), (-2.2, -0.0, 1.0)'
p1096
(dp1097
(F-2.3
F-0.0
F1.0
tp1098
F1.0
ssS'(-4.0, 0.7, 0.7), (-4.0, 0.8, 0.7), (-4.0, 0.9, 0.7)'
p1099
(dp1100
(F-4.0
F1.0
F0.7
tp1101
F1.0
ssS'(-1.9, -0.0, 1.0), (-2.0, -0.0, 1.0), (-2.1, -0.0, 1.0)'
p1102
(dp1103
(F-2.2
F-0.0
F1.0
tp1104
F1.0
ssS'(-2.1, -0.0, 1.0), (-2.2, -0.0, 1.0), (-2.3, -0.0, 1.0)'
p1105
(dp1106
(F-2.4
F-0.0
F1.0
tp1107
F1.0
ssS'(-3.7, 6.5, 0.7), (-3.7, 6.6, 0.7), (-3.7, 6.7, 0.7)'
p1108
(dp1109
(F-3.7
F6.8
F0.7
tp1110
F1.0
ssS'(-3.8, 5.2, 0.7), (-3.8, 5.3, 0.7), (-3.8, 5.4, 0.7)'
p1111
(dp1112
(F-3.7
F5.4
F0.7
tp1113
F0.4
s(F-3.8
F5.5
F0.7
tp1114
F0.6
ssS'(-3.6, 7.5, 0.8), (-3.6, 7.6, 0.8), (-3.6, 7.7, 0.8)'
p1115
(dp1116
(F-3.5
F7.7
F0.8
tp1117
F0.3333333333333333
s(F-3.6
F7.8
F0.8
tp1118
F0.6666666666666666
ssS'(-4.0, 2.3, 0.7), (-3.9, 2.3, 0.7), (-3.9, 2.4, 0.7)'
p1119
(dp1120
(F-3.9
F2.5
F0.7
tp1121
F1.0
ssS'(-3.4, 8.3, 0.8), (-3.3, 8.3, 0.8), (-3.3, 8.4, 0.8)'
p1122
(dp1123
(F-0.1
F0.0
F1.0
tp1124
F1.0
ssS'(-4.0, 3.6, 0.7), (-4.0, 3.7, 0.7), (-4.0, 3.8, 0.7)'
p1125
(dp1126
(F-4.0
F3.9
F0.7
tp1127
F1.0
ssS'(-3.9, 1.6, 0.7), (-3.9, 1.7, 0.7), (-3.9, 1.8, 0.7)'
p1128
(dp1129
(F-3.9
F1.9
F0.7
tp1130
F1.0
ssS'(-3.7, 6.3, 0.7), (-3.7, 6.4, 0.7), (-3.7, 6.5, 0.7)'
p1131
(dp1132
(F-3.7
F6.6
F0.7
tp1133
F0.6
s(F-3.6
F6.5
F0.7
tp1134
F0.2
s(F-3.7
F6.5
F0.8
tp1135
F0.2
ssS'(-3.7, 6.9, 0.7), (-3.6, 6.9, 0.7), (-3.6, 7.0, 0.7)'
p1136
(dp1137
(F-3.6
F7.0
F0.8
tp1138
F1.0
ssS'(-1.6, -0.0, 1.0), (-1.7, -0.0, 1.0), (-1.8, -0.0, 1.0)'
p1139
(dp1140
(F-1.9
F-0.0
F1.0
tp1141
F1.0
ssS'(-3.4, -0.0, 1.0), (-3.5, -0.0, 1.0), (-3.6, -0.0, 1.0)'
p1142
(dp1143
(F-3.6
F-0.1
F1.0
tp1144
F0.14285714285714285
s(F-3.7
F-0.0
F1.0
tp1145
F0.8571428571428571
ssS'(-2.7, 0.0, 1.0), (-2.8, 0.0, 1.0), (-2.9, 0.0, 1.0)'
p1146
(dp1147
(F-3.0
F0.0
F1.0
tp1148
F1.0
ssS'(-3.9, -0.1, 1.0), (-3.9, -0.2, 1.0), (-4.0, -0.2, 1.0)'
p1149
(dp1150
(F-4.0
F-0.2
F0.9
tp1151
F1.0
ssS'(-3.5, 7.9, 0.8), (-3.4, 7.9, 0.8), (-3.4, 8.0, 0.8)'
p1152
(dp1153
(F-3.4
F8.1
F0.8
tp1154
F1.0
ssS'(-3.8, 5.4, 0.7), (-3.8, 5.5, 0.7), (-3.7, 5.5, 0.7)'
p1155
(dp1156
(F-3.7
F5.6
F0.7
tp1157
F1.0
ssS'(-3.8, 5.9, 0.7), (-3.8, 6.0, 0.7), (-3.8, 6.1, 0.7)'
p1158
(dp1159
(F-3.7
F6.1
F0.7
tp1160
F0.3333333333333333
s(F-3.8
F6.2
F0.7
tp1161
F0.6666666666666666
ssS'(-3.4, 8.2, 0.8), (-3.3, 8.2, 0.8), (-3.3, 8.3, 0.8)'
p1162
(dp1163
(F-3.3
F8.4
F0.8
tp1164
F1.0
ssS'(-4.0, 2.8, 0.7), (-4.0, 2.9, 0.7), (-4.0, 3.0, 0.7)'
p1165
(dp1166
(F-4.0
F3.1
F0.7
tp1167
F1.0
ssS'(-4.1, 0.7, 0.7), (-4.1, 0.8, 0.7), (-4.1, 0.9, 0.7)'
p1168
(dp1169
(F-4.1
F1.0
F0.7
tp1170
F1.0
ssS'(-3.9, 5.0, 0.7), (-3.9, 5.1, 0.7), (-3.9, 5.2, 0.7)'
p1171
(dp1172
(F-3.9
F5.3
F0.7
tp1173
F1.0
ssS'(-3.7, 7.1, 0.8), (-3.7, 7.2, 0.8), (-3.7, 7.3, 0.8)'
p1174
(dp1175
(F-3.7
F7.4
F0.8
tp1176
F1.0
ssS'(-3.9, 3.3, 0.7), (-3.9, 3.4, 0.7), (-3.9, 3.5, 0.7)'
p1177
(dp1178
(F-3.9
F3.6
F0.7
tp1179
F1.0
ssS'(-2.6, 0.0, 1.0), (-2.7, 0.0, 1.0), (-2.8, 0.0, 1.0)'
p1180
(dp1181
(F-2.9
F-0.0
F1.0
tp1182
F1.0
ssS'(-3.9, -0.1, 1.0), (-3.9, -0.1, 0.9), (-3.9, -0.1, 0.8)'
p1183
(dp1184
(F-3.9
F-0.1
F0.7
tp1185
F1.0
ssS'(-2.0, 0.0, 1.0), (-2.1, 0.0, 1.0), (-2.2, 0.0, 1.0)'
p1186
(dp1187
(F-2.3
F-0.0
F1.0
tp1188
F1.0
ssS'(-3.6, -0.0, 1.0), (-3.7, -0.0, 1.0), (-3.8, -0.0, 1.0)'
p1189
(dp1190
(F-3.9
F-0.0
F1.0
tp1191
F0.25
s(F-3.8
F-0.1
F1.0
tp1192
F0.75
ssS'(-3.9, 2.2, 0.7), (-3.9, 2.3, 0.7), (-3.9, 2.4, 0.7)'
p1193
(dp1194
(F-3.9
F2.5
F0.7
tp1195
F1.0
ssS'(-3.9, 4.8, 0.7), (-3.8, 4.8, 0.7), (-3.8, 4.9, 0.7)'
p1196
(dp1197
(F-3.8
F5.0
F0.7
tp1198
F1.0
ssS'(-2.5, -0.0, 1.0), (-2.6, -0.0, 1.0), (-2.7, -0.0, 1.0)'
p1199
(dp1200
(F-2.8
F-0.0
F1.0
tp1201
F1.0
ssS'(-3.8, 5.9, 0.7), (-3.8, 6.0, 0.7), (-3.7, 6.0, 0.7)'
p1202
(dp1203
(F-3.7
F6.1
F0.7
tp1204
F1.0
ssS'(-3.9, 0.5, 0.7), (-3.9, 0.6, 0.7), (-3.9, 0.7, 0.7)'
p1205
(dp1206
(F-3.9
F0.8
F0.7
tp1207
F1.0
ssS'(-3.6, 6.3, 0.7), (-3.6, 6.3, 0.8), (-3.6, 6.4, 0.8)'
p1208
(dp1209
(F-3.6
F6.5
F0.8
tp1210
F1.0
ssS'(-3.4, 8.2, 0.8), (-3.4, 8.3, 0.8), (-3.3, 8.3, 0.8)'
p1211
(dp1212
(F-3.3
F8.4
F0.8
tp1213
F1.0
ssS'(-3.5, 7.5, 0.8), (-3.5, 7.6, 0.8), (-3.4, 7.6, 0.8)'
p1214
(dp1215
(F-3.4
F7.7
F0.8
tp1216
F1.0
ssS'(-3.6, 6.9, 0.7), (-3.6, 7.0, 0.7), (-3.6, 7.0, 0.8)'
p1217
(dp1218
(F-3.6
F7.1
F0.8
tp1219
F1.0
ssS'(-3.7, 6.6, 0.8), (-3.6, 6.6, 0.8), (-3.6, 6.7, 0.8)'
p1220
(dp1221
(F-3.6
F6.8
F0.8
tp1222
F1.0
ssS'(-3.6, 6.5, 0.7), (-3.6, 6.6, 0.7), (-3.6, 6.7, 0.7)'
p1223
(dp1224
(F-3.6
F6.7
F0.8
tp1225
F1.0
ssS'(-2.7, -0.1, 1.0), (-2.8, -0.1, 1.0), (-2.9, -0.1, 1.0)'
p1226
(dp1227
(F-3.0
F-0.1
F1.0
tp1228
F1.0
ssS'(-3.9, 0.1, 0.7), (-3.9, 0.2, 0.7), (-3.9, 0.3, 0.7)'
p1229
(dp1230
(F-3.9
F0.4
F0.7
tp1231
F1.0
ssS'(-4.0, 1.7, 0.7), (-3.9, 1.7, 0.7), (-3.9, 1.8, 0.7)'
p1232
(dp1233
(F-3.9
F1.9
F0.7
tp1234
F1.0
ssS'(-4.0, -0.1, 1.0), (-4.0, -0.1, 0.9), (-4.0, -0.1, 0.8)'
p1235
(dp1236
(F-4.0
F-0.1
F0.7
tp1237
F1.0
ssS'(-4.1, 0.8, 0.7), (-4.1, 0.9, 0.7), (-4.1, 1.0, 0.7)'
p1238
(dp1239
(F-4.1
F1.1
F0.7
tp1240
F1.0
ssS'(-4.0, 1.2, 0.7), (-4.0, 1.3, 0.7), (-4.0, 1.4, 0.7)'
p1241
(dp1242
(F-4.0
F1.5
F0.7
tp1243
F1.0
ssS'(-3.8, 4.7, 0.7), (-3.8, 4.8, 0.7), (-3.8, 4.9, 0.7)'
p1244
(dp1245
(F-3.8
F5.0
F0.7
tp1246
F1.0
ssS'(-3.7, 6.7, 0.7), (-3.7, 6.7, 0.8), (-3.7, 6.8, 0.8)'
p1247
(dp1248
(F-3.7
F6.9
F0.8
tp1249
F1.0
ssS'(-3.4, 7.6, 0.8), (-3.4, 7.7, 0.8), (-3.4, 7.8, 0.8)'
p1250
(dp1251
(F-3.4
F7.9
F0.8
tp1252
F1.0
ssS'(-3.9, 4.5, 0.7), (-3.9, 4.6, 0.7), (-3.8, 4.6, 0.7)'
p1253
(dp1254
(F-3.8
F4.7
F0.7
tp1255
F1.0
ssS'(-4.0, 2.9, 0.7), (-3.9, 2.9, 0.7), (-3.9, 3.0, 0.7)'
p1256
(dp1257
(F-3.9
F3.1
F0.7
tp1258
F1.0
ssS'(-2.5, 0.0, 1.0), (-2.6, 0.0, 1.0), (-2.7, 0.0, 1.0)'
p1259
(dp1260
(F-2.8
F0.0
F1.0
tp1261
F1.0
ssS'(-4.1, 1.9, 0.7), (-4.1, 2.0, 0.7), (-4.1, 2.1, 0.7)'
p1262
(dp1263
(F-4.0
F2.1
F0.7
tp1264
F1.0
ssS'(-3.9, -0.0, 0.9), (-3.9, -0.0, 0.8), (-3.9, -0.0, 0.7)'
p1265
(dp1266
(F-3.9
F0.1
F0.7
tp1267
F1.0
ssS'(-3.9, 4.0, 0.7), (-3.9, 4.1, 0.7), (-3.9, 4.2, 0.7)'
p1268
(dp1269
(F-3.9
F4.3
F0.7
tp1270
F0.6
s(F-3.8
F4.2
F0.7
tp1271
F0.4
ssS'(-1.2, -0.0, 1.0), (-1.3, -0.0, 1.0), (-1.4, -0.0, 1.0)'
p1272
(dp1273
(F-1.5
F-0.0
F1.0
tp1274
F1.0
ssS'(-2.5, -0.0, 1.0), (-2.5, -0.1, 1.0), (-2.6, -0.1, 1.0)'
p1275
(dp1276
(F-2.7
F-0.1
F1.0
tp1277
F1.0
ssS'(-3.7, 6.2, 0.7), (-3.7, 6.3, 0.7), (-3.6, 6.3, 0.7)'
p1278
(dp1279
(F-3.6
F6.4
F0.7
tp1280
F1.0
ssS'(-3.6, 7.4, 0.8), (-3.6, 7.5, 0.8), (-3.6, 7.6, 0.8)'
p1281
(dp1282
(F-3.5
F7.6
F0.8
tp1283
F0.25
s(F-3.6
F7.7
F0.8
tp1284
F0.75
ssS'(-3.6, 7.2, 0.8), (-3.6, 7.3, 0.8), (-3.6, 7.4, 0.8)'
p1285
(dp1286
(F-3.6
F7.5
F0.8
tp1287
F0.75
s(F-3.5
F7.4
F0.8
tp1288
F0.25
ssS'(-3.9, 5.7, 0.7), (-3.8, 5.7, 0.7), (-3.8, 5.8, 0.7)'
p1289
(dp1290
(F-3.8
F5.9
F0.7
tp1291
F1.0
ssS'(-3.9, 0.1, 0.7), (-4.0, 0.1, 0.7), (-4.0, 0.2, 0.7)'
p1292
(dp1293
(F-4.0
F0.3
F0.7
tp1294
F1.0
ssS'(-3.9, 4.6, 0.7), (-3.8, 4.6, 0.7), (-3.8, 4.7, 0.7)'
p1295
(dp1296
(F-3.8
F4.8
F0.7
tp1297
F1.0
ssS'(-3.9, 1.4, 0.7), (-3.9, 1.5, 0.7), (-3.9, 1.6, 0.7)'
p1298
(dp1299
(F-3.9
F1.7
F0.7
tp1300
F1.0
ssS'(-2.3, 0.0, 1.0), (-2.4, -0.0, 1.0), (-2.5, -0.0, 1.0)'
p1301
(dp1302
(F-2.6
F-0.0
F1.0
tp1303
F1.0
ssS'(-1.3, -0.0, 1.0), (-1.4, -0.0, 1.0), (-1.5, -0.0, 1.0)'
p1304
(dp1305
(F-1.6
F-0.0
F1.0
tp1306
F1.0
ssS'(-3.6, 7.8, 0.8), (-3.5, 7.8, 0.8), (-3.5, 7.9, 0.8)'
p1307
(dp1308
(F-3.5
F8.0
F0.8
tp1309
F1.0
ssS'(-3.9, 4.9, 0.7), (-3.9, 5.0, 0.7), (-3.9, 5.1, 0.7)'
p1310
(dp1311
(F-3.9
F5.2
F0.7
tp1312
F1.0
ssS'(-4.0, -0.2, 0.7), (-4.0, -0.1, 0.7), (-4.0, -0.0, 0.7)'
p1313
(dp1314
(F-4.0
F0.1
F0.7
tp1315
F1.0
ssS'(-3.5, -0.0, 1.0), (-3.5, -0.1, 1.0), (-3.6, -0.1, 1.0)'
p1316
(dp1317
(F-3.7
F-0.1
F1.0
tp1318
F1.0
ssS'(-4.0, 4.0, 0.7), (-4.0, 4.1, 0.7), (-4.0, 4.2, 0.7)'
p1319
(dp1320
(F-4.0
F4.3
F0.7
tp1321
F1.0
ssS'(-2.6, 0.0, 1.0), (-2.7, -0.0, 1.0), (-2.8, -0.0, 1.0)'
p1322
(dp1323
(F-2.9
F-0.0
F1.0
tp1324
F1.0
ssS'(-3.8, 5.5, 0.7), (-3.7, 5.5, 0.7), (-3.7, 5.6, 0.7)'
p1325
(dp1326
(F-3.7
F5.7
F0.7
tp1327
F1.0
ssS'(-3.4, 7.8, 0.8), (-3.4, 7.9, 0.8), (-3.4, 8.0, 0.8)'
p1328
(dp1329
(F-3.4
F8.1
F0.8
tp1330
F1.0
ssS'(-3.7, 6.4, 0.7), (-3.7, 6.5, 0.7), (-3.6, 6.5, 0.7)'
p1331
(dp1332
(F-3.6
F6.6
F0.7
tp1333
F1.0
ssS'(-1.1, 0.0, 1.0), (-1.2, -0.0, 1.0), (-1.3, -0.0, 1.0)'
p1334
(dp1335
(F-1.4
F-0.0
F1.0
tp1336
F1.0
ssS'(-4.0, 3.8, 0.7), (-4.0, 3.9, 0.7), (-4.0, 4.0, 0.7)'
p1337
(dp1338
(F-4.0
F4.1
F0.7
tp1339
F1.0
ssS'(-3.9, 0.3, 0.7), (-3.9, 0.4, 0.7), (-3.9, 0.5, 0.7)'
p1340
(dp1341
(F-3.9
F0.6
F0.7
tp1342
F1.0
ssS'(-3.3, -0.1, 1.0), (-3.4, -0.1, 1.0), (-3.5, -0.1, 1.0)'
p1343
(dp1344
(F-3.6
F-0.1
F1.0
tp1345
F1.0
ssS'(-4.0, 0.3, 0.7), (-4.0, 0.4, 0.7), (-4.0, 0.5, 0.7)'
p1346
(dp1347
(F-4.0
F0.6
F0.7
tp1348
F1.0
ssS'(-3.6, 6.5, 0.8), (-3.6, 6.6, 0.8), (-3.6, 6.7, 0.8)'
p1349
(dp1350
(F-3.6
F6.8
F0.8
tp1351
F1.0
ssS'(-4.0, 1.8, 0.7), (-4.0, 1.9, 0.7), (-4.0, 2.0, 0.7)'
p1352
(dp1353
(F-4.0
F2.1
F0.7
tp1354
F0.8
s(F-3.9
F2.0
F0.7
tp1355
F0.2
ssS'(-3.9, 4.9, 0.7), (-3.9, 5.0, 0.7), (-3.8, 5.0, 0.7)'
p1356
(dp1357
(F-3.8
F5.1
F0.7
tp1358
F1.0
ssS'(-3.9, 3.8, 0.7), (-3.9, 3.9, 0.7), (-3.9, 4.0, 0.7)'
p1359
(dp1360
(F-3.9
F4.1
F0.7
tp1361
F1.0
ssS'(-3.8, -0.0, 1.0), (-3.8, -0.1, 1.0), (-3.9, -0.1, 1.0)'
p1362
(dp1363
(F-3.9
F-0.1
F0.9
tp1364
F0.6666666666666666
s(F-4.0
F-0.1
F1.0
tp1365
F0.3333333333333333
ssS'(-3.6, 7.7, 0.8), (-3.6, 7.8, 0.8), (-3.6, 7.9, 0.8)'
p1366
(dp1367
(F-3.6
F8.0
F0.8
tp1368
F1.0
ssS'(-3.6, 7.4, 0.8), (-3.5, 7.4, 0.8), (-3.5, 7.5, 0.8)'
p1369
(dp1370
(F-3.5
F7.6
F0.8
tp1371
F1.0
ssS'(-2.6, -0.0, 1.0), (-2.7, -0.0, 1.0), (-2.8, -0.0, 1.0)'
p1372
(dp1373
(F-2.9
F-0.0
F1.0
tp1374
F1.0
ssS'(-3.7, -0.1, 1.0), (-3.8, -0.1, 1.0), (-3.9, -0.1, 1.0)'
p1375
(dp1376
(F-3.9
F-0.1
F0.9
tp1377
F0.8181818181818182
s(F-4.0
F-0.1
F1.0
tp1378
F0.09090909090909091
s(F-3.9
F-0.2
F1.0
tp1379
F0.09090909090909091
ssS'(-3.4, 8.3, 0.8), (-3.4, 8.4, 0.8), (-0.1, 0.0, 1.0)'
p1380
(dp1381
(F-0.2
F0.0
F1.0
tp1382
F1.0
ssS'(-3.6, 6.2, 0.7), (-3.6, 6.3, 0.7), (-3.6, 6.3, 0.8)'
p1383
(dp1384
(F-3.6
F6.4
F0.8
tp1385
F1.0
ssS'(-3.3, 8.3, 0.8), (-3.3, 8.4, 0.8), (-0.1, 0.0, 1.0)'
p1386
(dp1387
(F-0.2
F0.0
F1.0
tp1388
F1.0
ssS'(-4.0, 2.0, 0.7), (-4.0, 2.1, 0.7), (-4.0, 2.2, 0.7)'
p1389
(dp1390
(F-4.0
F2.3
F0.7
tp1391
F1.0
ssS'(-3.9, 4.4, 0.7), (-3.9, 4.5, 0.7), (-3.9, 4.6, 0.7)'
p1392
(dp1393
(F-3.8
F4.6
F0.7
tp1394
F0.4
s(F-3.9
F4.7
F0.7
tp1395
F0.6
ssS'(-3.8, 6.3, 0.7), (-3.8, 6.4, 0.7), (-3.7, 6.4, 0.7)'
p1396
(dp1397
(F-3.7
F6.5
F0.7
tp1398
F1.0
ssS'(-3.9, 4.0, 0.7), (-3.9, 4.1, 0.7), (-3.8, 4.1, 0.7)'
p1399
(dp1400
(F-3.8
F4.2
F0.7
tp1401
F1.0
ssS'(-4.0, 0.3, 0.7), (-4.0, 0.4, 0.7), (-4.1, 0.4, 0.7)'
p1402
(dp1403
(F-4.1
F0.5
F0.7
tp1404
F1.0
ssS'(-3.8, 5.2, 0.7), (-3.8, 5.3, 0.7), (-3.7, 5.4, 0.7)'
p1405
(dp1406
(F-3.7
F5.5
F0.7
tp1407
F1.0
ssS'(-3.5, 7.0, 0.8), (-3.5, 7.1, 0.8), (-3.5, 7.2, 0.8)'
p1408
(dp1409
(F-3.5
F7.3
F0.8
tp1410
F1.0
ssS'(-1.4, 0.0, 1.0), (-1.5, 0.0, 1.0), (-1.6, 0.0, 1.0)'
p1411
(dp1412
(F-1.7
F0.0
F1.0
tp1413
F1.0
ssS'(-3.9, 1.9, 0.7), (-3.9, 2.0, 0.7), (-3.9, 2.1, 0.7)'
p1414
(dp1415
(F-3.9
F2.2
F0.7
tp1416
F1.0
ssS'(-3.6, 7.6, 0.8), (-3.6, 7.7, 0.8), (-3.6, 7.8, 0.8)'
p1417
(dp1418
(F-3.6
F7.9
F0.8
tp1419
F0.5
s(F-3.5
F7.8
F0.8
tp1420
F0.5
ssS'(-3.8, 6.5, 0.7), (-3.8, 6.6, 0.7), (-3.7, 6.6, 0.7)'
p1421
(dp1422
(F-3.7
F6.7
F0.7
tp1423
F1.0
ssS'(-4.0, 3.3, 0.7), (-4.0, 3.4, 0.7), (-4.0, 3.5, 0.7)'
p1424
(dp1425
(F-4.0
F3.6
F0.7
tp1426
F1.0
ssS'(-4.0, 3.0, 0.7), (-4.0, 3.1, 0.7), (-4.0, 3.2, 0.7)'
p1427
(dp1428
(F-4.0
F3.3
F0.7
tp1429
F1.0
ssS'(-3.8, 5.1, 0.7), (-3.8, 5.2, 0.7), (-3.8, 5.3, 0.7)'
p1430
(dp1431
(F-3.7
F5.3
F0.7
tp1432
F0.08333333333333333
s(F-3.7
F5.4
F0.7
tp1433
F0.08333333333333333
s(F-3.8
F5.4
F0.7
tp1434
F0.8333333333333334
ssS'(-4.0, 2.0, 0.7), (-3.9, 2.0, 0.7), (-3.9, 2.1, 0.7)'
p1435
(dp1436
(F-3.9
F2.2
F0.7
tp1437
F1.0
ssS'(-4.0, 0.5, 0.7), (-4.0, 0.6, 0.7), (-4.0, 0.7, 0.7)'
p1438
(dp1439
(F-4.0
F0.8
F0.7
tp1440
F1.0
ssS'(-3.8, 5.4, 0.7), (-3.7, 5.4, 0.7), (-3.7, 5.5, 0.7)'
p1441
(dp1442
(F-3.7
F5.6
F0.7
tp1443
F1.0
ssS'(-3.9, -0.1, 0.8), (-3.9, -0.1, 0.7), (-3.9, -0.0, 0.7)'
p1444
(dp1445
(F-3.9
F0.1
F0.7
tp1446
F1.0
ssS'(-3.6, 7.0, 0.7), (-3.6, 7.0, 0.8), (-3.6, 7.1, 0.8)'
p1447
(dp1448
(F-3.6
F7.2
F0.8
tp1449
F1.0
ssS'(-3.0, -0.1, 1.0), (-3.1, -0.1, 1.0), (-3.2, -0.1, 1.0)'
p1450
(dp1451
(F-3.3
F-0.1
F1.0
tp1452
F1.0
ssS'(-4.1, 1.0, 0.7), (-4.1, 1.1, 0.7), (-0.1, 0.0, 1.0)'
p1453
(dp1454
(F-0.2
F0.0
F1.0
tp1455
F1.0
ssS'(-4.0, 2.6, 0.7), (-4.0, 2.7, 0.7), (-4.0, 2.8, 0.7)'
p1456
(dp1457
(F-4.0
F2.9
F0.7
tp1458
F0.75
s(F-3.9
F2.8
F0.7
tp1459
F0.25
ssS'(-3.6, 6.4, 0.7), (-3.6, 6.5, 0.7), (-3.6, 6.5, 0.8)'
p1460
(dp1461
(F-3.6
F6.6
F0.8
tp1462
F1.0
ssS'(-3.8, 4.1, 0.7), (-3.8, 4.2, 0.7), (-3.8, 4.3, 0.7)'
p1463
(dp1464
(F-3.8
F4.4
F0.7
tp1465
F1.0
ssS'(-4.0, 2.1, 0.7), (-4.0, 2.2, 0.7), (-4.0, 2.3, 0.7)'
p1466
(dp1467
(F-4.0
F2.4
F0.7
tp1468
F0.8
s(F-3.9
F2.3
F0.7
tp1469
F0.2
ssS'(-3.7, -0.0, 1.0), (-3.7, -0.1, 1.0), (-3.8, -0.1, 1.0)'
p1470
(dp1471
(F-3.9
F-0.1
F1.0
tp1472
F1.0
ssS'(-3.9, 0.4, 0.7), (-3.9, 0.5, 0.7), (-3.9, 0.6, 0.7)'
p1473
(dp1474
(F-3.9
F0.7
F0.7
tp1475
F1.0
ssS'(-3.6, 6.6, 0.7), (-3.6, 6.7, 0.7), (-3.6, 6.7, 0.8)'
p1476
(dp1477
(F-3.6
F6.8
F0.8
tp1478
F1.0
ssS'(-3.6, 6.4, 0.7), (-3.6, 6.5, 0.7), (-3.6, 6.6, 0.7)'
p1479
(dp1480
(F-3.6
F6.6
F0.8
tp1481
F1.0
ssS'(-3.9, 5.1, 0.7), (-3.9, 5.2, 0.7), (-3.9, 5.3, 0.7)'
p1482
(dp1483
(F-3.9
F5.4
F0.7
tp1484
F1.0
ssS'(-3.9, 1.8, 0.7), (-3.9, 1.9, 0.7), (-3.9, 2.0, 0.7)'
p1485
(dp1486
(F-3.9
F2.1
F0.7
tp1487
F1.0
ssS'(-3.0, 0.0, 1.0), (-3.1, 0.0, 1.0), (-3.2, 0.0, 1.0)'
p1488
(dp1489
(F-3.3
F0.0
F1.0
tp1490
F1.0
ssS'(-3.9, 3.6, 0.7), (-3.9, 3.7, 0.7), (-3.9, 3.8, 0.7)'
p1491
(dp1492
(F-3.9
F3.9
F0.7
tp1493
F1.0
ssS'(-2.2, 0.0, 1.0), (-2.3, 0.0, 1.0), (-2.4, -0.0, 1.0)'
p1494
(dp1495
(F-2.5
F-0.0
F1.0
tp1496
F1.0
ssS'(-4.0, -0.2, 0.9), (-4.0, -0.2, 0.8), (-4.0, -0.2, 0.7)'
p1497
(dp1498
(F-4.0
F-0.1
F0.7
tp1499
F1.0
ssS'(-4.0, 2.8, 0.7), (-3.9, 2.8, 0.7), (-3.9, 2.9, 0.7)'
p1500
(dp1501
(F-3.9
F3.0
F0.7
tp1502
F1.0
ssS'(-3.7, 6.6, 0.7), (-3.7, 6.7, 0.7), (-3.7, 6.7, 0.8)'
p1503
(dp1504
(F-3.7
F6.8
F0.8
tp1505
F1.0
ssS'(-3.2, -0.0, 1.0), (-3.3, -0.0, 1.0), (-3.4, -0.0, 1.0)'
p1506
(dp1507
(F-3.5
F-0.0
F1.0
tp1508
F0.8
s(F-3.4
F-0.1
F1.0
tp1509
F0.2
ssS'(-3.5, 7.9, 0.8), (-3.5, 8.0, 0.8), (-3.5, 8.1, 0.8)'
p1510
(dp1511
(F-3.5
F8.2
F0.8
tp1512
F1.0
ssS'(-4.0, 4.1, 0.7), (-4.0, 4.2, 0.7), (-4.0, 4.3, 0.7)'
p1513
(dp1514
(F-4.0
F4.4
F0.7
tp1515
F0.5
s(F-3.9
F4.3
F0.7
tp1516
F0.5
ssS'(-3.7, 7.0, 0.8), (-3.7, 7.1, 0.8), (-3.6, 7.1, 0.8)'
p1517
(dp1518
(F-3.6
F7.2
F0.8
tp1519
F1.0
ssS'(-3.9, 4.3, 0.7), (-3.9, 4.4, 0.7), (-3.8, 4.4, 0.7)'
p1520
(dp1521
(F-3.8
F4.5
F0.7
tp1522
F1.0
ssS'(-3.6, 7.0, 0.8), (-3.6, 7.1, 0.8), (-3.6, 7.2, 0.8)'
p1523
(dp1524
(F-3.6
F7.3
F0.8
tp1525
F1.0
ssS'(-4.0, 0.2, 0.7), (-4.0, 0.3, 0.7), (-4.0, 0.4, 0.7)'
p1526
(dp1527
(F-4.0
F0.5
F0.7
tp1528
F0.75
s(F-4.1
F0.4
F0.7
tp1529
F0.25
ssS'(-3.6, 7.2, 0.8), (-3.6, 7.3, 0.8), (-3.5, 7.3, 0.8)'
p1530
(dp1531
(F-3.5
F7.4
F0.8
tp1532
F1.0
ss.